
cam_small.elf:     file format elf32-littlenios2
cam_small.elf
architecture: nios2:r1, flags 0x00000112:
EXEC_P, HAS_SYMS, D_PAGED
start address 0x00020020

Program Header:
    LOAD off    0x00001000 vaddr 0x00020000 paddr 0x00020000 align 2**12
         filesz 0x00000020 memsz 0x00000020 flags r-x
    LOAD off    0x00001020 vaddr 0x00020020 paddr 0x00020020 align 2**12
         filesz 0x00005564 memsz 0x00005564 flags r-x
    LOAD off    0x00006584 vaddr 0x00025584 paddr 0x00025704 align 2**12
         filesz 0x00000180 memsz 0x00000180 flags rw-
    LOAD off    0x00006884 vaddr 0x00025884 paddr 0x00025884 align 2**12
         filesz 0x00000000 memsz 0x00000118 flags rw-

Sections:
Idx Name          Size      VMA       LMA       File off  Algn
  0 .entry        00000020  00020000  00020000  00001000  2**5
                  CONTENTS, ALLOC, LOAD, READONLY, CODE
  1 .exceptions   00000000  00020020  00020020  00006704  2**0
                  CONTENTS
  2 .text         00004854  00020020  00020020  00001020  2**2
                  CONTENTS, ALLOC, LOAD, READONLY, CODE
  3 .rodata       00000d10  00024874  00024874  00005874  2**2
                  CONTENTS, ALLOC, LOAD, READONLY, DATA
  4 .rwdata       00000180  00025584  00025704  00006584  2**2
                  CONTENTS, ALLOC, LOAD, DATA, SMALL_DATA
  5 .bss          00000118  00025884  00025884  00006884  2**2
                  ALLOC, SMALL_DATA
  6 .onchip_memory2_0 00000000  0002599c  0002599c  00006704  2**0
                  CONTENTS
  7 .comment      00000023  00000000  00000000  00006704  2**0
                  CONTENTS, READONLY
  8 .debug_aranges 00000688  00000000  00000000  00006728  2**3
                  CONTENTS, READONLY, DEBUGGING
  9 .debug_info   0000e1c5  00000000  00000000  00006db0  2**0
                  CONTENTS, READONLY, DEBUGGING
 10 .debug_abbrev 0000402a  00000000  00000000  00014f75  2**0
                  CONTENTS, READONLY, DEBUGGING
 11 .debug_line   00004b20  00000000  00000000  00018f9f  2**0
                  CONTENTS, READONLY, DEBUGGING
 12 .debug_frame  0000115c  00000000  00000000  0001dac0  2**2
                  CONTENTS, READONLY, DEBUGGING
 13 .debug_str    00001f02  00000000  00000000  0001ec1c  2**0
                  CONTENTS, READONLY, DEBUGGING
 14 .debug_loc    00004b0d  00000000  00000000  00020b1e  2**0
                  CONTENTS, READONLY, DEBUGGING
 15 .debug_alt_sim_info 00000060  00000000  00000000  0002562c  2**2
                  CONTENTS, READONLY, DEBUGGING
 16 .debug_ranges 00000708  00000000  00000000  00025690  2**3
                  CONTENTS, READONLY, DEBUGGING
 17 .thread_model 00000003  00000000  00000000  00027ffa  2**0
                  CONTENTS, READONLY
 18 .cpu          0000000a  00000000  00000000  00027ffd  2**0
                  CONTENTS, READONLY
 19 .qsys         00000001  00000000  00000000  00028007  2**0
                  CONTENTS, READONLY
 20 .simulation_enabled 00000001  00000000  00000000  00028008  2**0
                  CONTENTS, READONLY
 21 .sysid_hash   00000004  00000000  00000000  00028009  2**0
                  CONTENTS, READONLY
 22 .sysid_base   00000004  00000000  00000000  0002800d  2**0
                  CONTENTS, READONLY
 23 .sysid_time   00000004  00000000  00000000  00028011  2**0
                  CONTENTS, READONLY
 24 .stderr_dev   00000009  00000000  00000000  00028015  2**0
                  CONTENTS, READONLY
 25 .stdin_dev    00000009  00000000  00000000  0002801e  2**0
                  CONTENTS, READONLY
 26 .stdout_dev   00000009  00000000  00000000  00028027  2**0
                  CONTENTS, READONLY
 27 .sopc_system_name 00000004  00000000  00000000  00028030  2**0
                  CONTENTS, READONLY
 28 .quartus_project_dir 0000002d  00000000  00000000  00028034  2**0
                  CONTENTS, READONLY
 29 .jdi          00004eb7  00000000  00000000  00028061  2**0
                  CONTENTS, READONLY
 30 .sopcinfo     0011e4c9  00000000  00000000  0002cf18  2**0
                  CONTENTS, READONLY
SYMBOL TABLE:
00020000 l    d  .entry	00000000 .entry
00020020 l    d  .exceptions	00000000 .exceptions
00020020 l    d  .text	00000000 .text
00024874 l    d  .rodata	00000000 .rodata
00025584 l    d  .rwdata	00000000 .rwdata
00025884 l    d  .bss	00000000 .bss
0002599c l    d  .onchip_memory2_0	00000000 .onchip_memory2_0
00000000 l    d  .comment	00000000 .comment
00000000 l    d  .debug_aranges	00000000 .debug_aranges
00000000 l    d  .debug_info	00000000 .debug_info
00000000 l    d  .debug_abbrev	00000000 .debug_abbrev
00000000 l    d  .debug_line	00000000 .debug_line
00000000 l    d  .debug_frame	00000000 .debug_frame
00000000 l    d  .debug_str	00000000 .debug_str
00000000 l    d  .debug_loc	00000000 .debug_loc
00000000 l    d  .debug_alt_sim_info	00000000 .debug_alt_sim_info
00000000 l    d  .debug_ranges	00000000 .debug_ranges
00000000 l    df *ABS*	00000000 ../cam_small_bsp//obj/HAL/src/crt0.o
00020068 l       .text	00000000 alt_after_alt_main
00000000 l    df *ABS*	00000000 I2C_core.c
00000000 l    df *ABS*	00000000 auto.c
00000000 l    df *ABS*	00000000 auto_focus.c
00000000 l    df *ABS*	00000000 filters_buffers.c
00000000 l    df *ABS*	00000000 input.c
000256c8 l     O .rwdata	00000002 current_focus.3684
00000000 l    df *ABS*	00000000 main.c
00000000 l    df *ABS*	00000000 mipi_bridge_config.c
00024bb2 l     O .rodata	00000034 MipiBridgeReg
00000000 l    df *ABS*	00000000 mipi_camera_config.c
00024c84 l     O .rodata	00000774 MipiCameraReg
00000000 l    df *ABS*	00000000 mipi_setup.c
00000000 l    df *ABS*	00000000 support.c
000258bc l     O .bss	00000040 observation_buf.3678
00025898 l     O .bss	00000004 count.3692
00000000 l    df *ABS*	00000000 lib2-divmod.c
00000000 l    df *ABS*	00000000 malloc.c
00000000 l    df *ABS*	00000000 nano-mallocr.c
00000000 l    df *ABS*	00000000 nano-mallocr.c
00000000 l    df *ABS*	00000000 printf.c
00000000 l    df *ABS*	00000000 putchar.c
00000000 l    df *ABS*	00000000 puts.c
00000000 l    df *ABS*	00000000 sbrkr.c
00000000 l    df *ABS*	00000000 sprintf.c
00000000 l    df *ABS*	00000000 strlen.c
00000000 l    df *ABS*	00000000 vfprintf.c
00023364 l     F .text	0000006c print_repeat
00000000 l    df *ABS*	00000000 vfprintf.c
00023910 l     F .text	0000006c print_repeat
00000000 l    df *ABS*	00000000 fvwrite_small_dev.c
00000000 l    df *ABS*	00000000 fvwrite_small_str.c
00000000 l    df *ABS*	00000000 impure.c
00025584 l     O .rwdata	000000e0 impure_data
00000000 l    df *ABS*	00000000 int_errno.c
00000000 l    df *ABS*	00000000 memmove.c
00000000 l    df *ABS*	00000000 putc.c
00000000 l    df *ABS*	00000000 writer.c
00000000 l    df *ABS*	00000000 alt_fcntl.c
00000000 l    df *ABS*	00000000 alt_getchar.c
00000000 l    df *ABS*	00000000 alt_load.c
00000000 l    df *ABS*	00000000 alt_main.c
00000000 l    df *ABS*	00000000 alt_printf.c
00000000 l    df *ABS*	00000000 alt_putchar.c
00000000 l    df *ABS*	00000000 alt_sbrk.c
000256d8 l     O .rwdata	00000004 heap_end
00000000 l    df *ABS*	00000000 alt_tick.c
00000000 l    df *ABS*	00000000 alt_usleep.c
00000000 l    df *ABS*	00000000 alt_write.c
00000000 l    df *ABS*	00000000 alt_sys_init.c
00000000 l    df *ABS*	00000000 altera_avalon_jtag_uart_read.c
00000000 l    df *ABS*	00000000 altera_avalon_jtag_uart_write.c
00000000 l    df *ABS*	00000000 alt_busy_sleep.c
00000000 l    df *ABS*	00000000 alt_dcache_flush_all.c
00000000 l    df *ABS*	00000000 alt_dev.c
00024820 l     F .text	00000008 alt_dev_null_write
00000000 l    df *ABS*	00000000 alt_errno.c
00000000 l    df *ABS*	00000000 alt_icache_flush_all.c
00000000 l    df *ABS*	00000000 altera_nios2_gen2_irq.c
00000000 l    df *ABS*	00000000 alt_icache_flush.c
0002316c g     F .text	0000001c putchar
0002435c g     F .text	0000002c alt_main
00023188 g     F .text	00000080 _puts_r
00020c8c g     F .text	00000080 Focus_Released
000201ec g     F .text	00000048 ACK_check
00025704 g       *ABS*	00000000 __flash_rwdata_start
00020198 g     F .text	00000054 ACK_single_check
00020d0c g     F .text	00000158 Focus_Window
00021cf0 g     F .text	00000038 OV8865_write_AF
00025884 g     O .bss	00000004 print
0002599c g       *ABS*	00000000 __alt_heap_start
00023118 g     F .text	0000004c printf
00021fc4 g     F .text	000000a8 OV8865SetRedGain
000228fc g     F .text	00000004 wait_eop
00022900 g     F .text	00000014 to_hex_code
0002401c g     F .text	00000060 memmove
00020234 g     F .text	00000128 OC_I2C_Write
00020944 g     F .text	000000b8 auto_gain
00020ba8 g     F .text	000000e4 Focus_Init
0002206c g     F .text	000000a8 OV8865SetGreenGain
000256e8 g     O .rwdata	00000004 jtag_uart
00024834 g     F .text	00000008 altera_nios2_gen2_irq_init
00025894 g     O .bss	00000004 frames_elapsed
00020f38 g     F .text	00000038 fir_load_vertical
00023f74 g     F .text	000000a8 __sfvwrite_small_str
00020000 g     F .entry	0000001c __reset
00020020 g       *ABS*	00000000 __flash_exceptions_start
000256be g     O .rwdata	00000001 focus_scal
000258a4 g     O .bss	00000004 errno
000258ac g     O .bss	00000004 alt_argv
0002d6bc g       *ABS*	00000000 _gp
00024678 g     F .text	00000004 usleep
00021124 g     F .text	00000060 green_average
00025664 g     O .rwdata	00000030 alt_fd_list
000258fc g     O .bss	00000050 histogram_processed
00023164 g     F .text	00000008 _putchar_r
000200a0 g     F .text	00000098 oc_i2c_init_ex
00021074 g     F .text	000000b0 print_wb_buffer
00023208 g     F .text	00000014 puts
00024700 g     F .text	0000005c altera_avalon_jtag_uart_read
00022e78 g     F .text	00000014 malloc
000230dc g     F .text	0000003c _printf_r
00020000 g       *ABS*	00000000 __alt_mem_onchip_memory2_0
00022dbc g     F .text	00000064 .hidden __udivsi3
0002483c g     F .text	00000038 alt_icache_flush
00021d74 g     F .text	00000094 OV8865_FOCUS_Move_to
00020f70 g     F .text	00000104 print_image
0002321c g     F .text	00000050 _sbrk_r
000256c0 g     O .rwdata	00000002 focus_height
000256ec g     O .rwdata	00000004 alt_max_fd
00021cb8 g     F .text	00000038 OV8865_write_cmos_sensor_8
00025888 g     O .bss	00000004 debug
0002588c g     O .bss	00000004 observations
000256d0 g     O .rwdata	00000004 _global_impure_ptr
0002599c g       *ABS*	00000000 __bss_end
00024238 g     F .text	00000044 alt_getchar
000245c0 g     F .text	000000b8 alt_tick
000228f0 g     F .text	0000000c wait_sop
000256c4 g     O .rwdata	00000002 video_h
000225e4 g     F .text	000000ac mipi_clear_error
00020624 g     F .text	00000160 OC_I2CL_Write
0002458c g     F .text	00000034 alt_alarm_stop
0002035c g     F .text	00000034 ACK_judge_for_read
00021eb4 g     F .text	000000ac OV8865SetGain
00025694 g     O .rwdata	00000028 alt_dev_null
0002006c g     F .text	00000018 Write32_Data
00024808 g     F .text	00000018 alt_dcache_flush_all
000256bd g     O .rwdata	00000001 focus_scal_f
00025704 g       *ABS*	00000000 __ram_rwdata_end
00020ef8 g     F .text	00000040 fir_load_inv_sobel
000256f0 g     O .rwdata	00000008 alt_dev_list
0002467c g     F .text	00000060 write
000240d0 g     F .text	00000058 _putc_r
00025584 g       *ABS*	00000000 __ram_rodata_end
00022e20 g     F .text	00000058 .hidden __umodsi3
0002272c g     F .text	0000013c mipi_show_error_info_more
0002599c g       *ABS*	00000000 end
000221bc g     F .text	00000070 OV8865ReadAvg
0002ea60 g       *ABS*	00000000 __alt_stack_pointer
0002475c g     F .text	00000034 altera_avalon_jtag_uart_write
0002397c g     F .text	00000524 ___vfprintf_internal_r
0002326c g     F .text	00000064 _sprintf_r
00022ea0 g     F .text	000000e4 _free_r
00024388 g     F .text	00000170 alt_printf
00020020 g     F .text	0000004c _start
000258b8 g     O .bss	00000004 _alt_tick_rate
00021f60 g     F .text	00000064 enableMWB
00020eb8 g     F .text	00000040 fir_load_sobel
000258b4 g     O .bss	00000004 _alt_nticks
000246fc g     F .text	00000004 alt_sys_init
00021c80 g     F .text	00000038 OV8865_read_cmos_sensor_8
00021b1c g     F .text	00000038 MipiBridgeRegWrite
00025584 g       *ABS*	00000000 __ram_rwdata_start
00024874 g       *ABS*	00000000 __ram_rodata_start
00022cb4 g     F .text	00000010 wait_frame
00024790 g     F .text	00000078 alt_busy_sleep
00022914 g     F .text	00000128 initialize_observations
00021184 g     F .text	00000060 red_average
0002599c g       *ABS*	00000000 __alt_stack_base
00020138 g     F .text	00000014 oc_i2c_init
00022c48 g     F .text	00000020 print_as_rgb
00024540 g     F .text	0000004c sbrk
000233d0 g     F .text	00000524 ___svfprintf_internal_r
00022458 g     F .text	0000018c MipiCameraInit
00021b08 g     F .text	00000014 nSWAP16
00023ebc g     F .text	000000b8 __sfvwrite_small_dev
00025884 g       *ABS*	00000000 __bss_start
000215d0 g     F .text	00000538 main
000258a8 g     O .bss	00000004 alt_envp
000256e4 g     O .rwdata	00000004 uart_0
00022c68 g     F .text	0000004c frame_isr
0002ea60 g       *ABS*	00000000 __alt_heap_limit
00022f84 g     F .text	00000158 _malloc_r
000256cc g     O .rwdata	00000004 number_observations
00025700 g     O .rwdata	00000004 alt_errno
0002407c g     F .text	00000054 putc
00022cc4 g     F .text	00000084 .hidden __divsi3
0002014c g     F .text	0000004c oc_i2c_uninit
00021240 g     F .text	000002dc process_input
000222c4 g     F .text	00000194 MIPI_BIN_LEVEL
00024874 g       *ABS*	00000000 __flash_rodata_start
000209fc g     F .text	000001ac auto_wb
00025890 g     O .bss	00000004 delay
00020e90 g     F .text	00000028 fir_load_avg
000246dc g     F .text	00000020 alt_irq_init
00021b98 g     F .text	000000e8 MipiBridgeInit
000232d0 g     F .text	00000078 sprintf
00022114 g     F .text	000000a8 OV8865SetBlueGain
00024128 g     F .text	00000058 _write_r
000256d4 g     O .rwdata	00000004 _impure_ptr
000258b0 g     O .bss	00000004 alt_argc
00021b54 g     F .text	00000044 MipiBridgeRegRead
000256c6 g     O .rwdata	00000002 video_w
000211e4 g     F .text	0000005c blue_average
00022b20 g     F .text	00000128 print_observations
000256f8 g     O .rwdata	00000008 alt_fs_list
00020084 g     F .text	0000001c Read32_Data
000238f4 g     F .text	0000001c __vfprintf_internal_unused
00020390 g     F .text	00000190 OC_I2C_Read
00020020 g       *ABS*	00000000 __ram_exceptions_start
00020e64 g     F .text	0000002c fir_load_unit
00025704 g       *ABS*	00000000 _edata
0002599c g       *ABS*	00000000 _end
0002222c g     F .text	00000098 OV8865ReadExposure
00020020 g       *ABS*	00000000 __ram_exceptions_end
00020520 g     F .text	00000104 OC_I2C_Read_Continue
000256bc g     O .rwdata	00000001 focus_th
00022d48 g     F .text	00000074 .hidden __modsi3
0002ea60 g       *ABS*	00000000 __alt_data_end
00022690 g     F .text	0000009c mipi_show_error_info
00022a3c g     F .text	000000e4 merge_observations
0002151c g     F .text	000000b4 get_building_hist
00020784 g     F .text	000001c0 OC_I2CL_Read
0002001c g       .entry	00000000 _exit
00023348 g     F .text	0000001c strlen
000244f8 g     F .text	00000048 alt_putchar
0002594c g     O .bss	00000050 histogram
0002589c g     O .bss	00000004 __malloc_sbrk_start
00024828 g     F .text	0000000c alt_icache_flush_all
00021e08 g     F .text	000000ac OV8865SetExposure
000256c2 g     O .rwdata	00000002 focus_width
000258a0 g     O .bss	00000004 __malloc_free_list
00023ea0 g     F .text	0000001c __vfprintf_internal
00022868 g     F .text	00000088 MIPI_Init
00024180 g     F .text	000000b8 fcntl
000256dc g     O .rwdata	00000008 alt_alarm_list
00021d28 g     F .text	0000004c OV8865_read_AF
0002427c g     F .text	000000e0 alt_load
00022e8c g     F .text	00000014 free



Disassembly of section .entry:

00020000 <__reset>:
#if NIOS2_ICACHE_SIZE > 0 && defined(ALT_ALLOW_CODE_AT_RESET) && (!defined(ALT_SIM_OPTIMIZE) || defined(NIOS2_ECC_PRESENT))
    /* Assume the instruction cache size is always a power of two. */
#if NIOS2_ICACHE_SIZE > 0x8000
    movhi r2, %hi(NIOS2_ICACHE_SIZE)
#else
    movui r2, NIOS2_ICACHE_SIZE
   20000:	00840014 	movui	r2,4096
#endif

0:
    initi r2
   20004:	1001483a 	initi	r2
    addi r2, r2, -NIOS2_ICACHE_LINE_SIZE
   20008:	10bff804 	addi	r2,r2,-32
    bgt r2, zero, 0b
   2000c:	00bffd16 	blt	zero,r2,20004 <__alt_data_end+0xffff15a4>
 * Jump to the _start entry point in the .text section if reset code
 * is allowed or if optimizing for RTL simulation.
 */
#if defined(ALT_ALLOW_CODE_AT_RESET) || defined(ALT_SIM_OPTIMIZE)
    /* Jump to the _start entry point in the .text section. */
    movhi r1, %hi(_start)
   20010:	004000b4 	movhi	at,2
    ori r1, r1, %lo(_start)
   20014:	08400814 	ori	at,at,32
    jmp r1
   20018:	0800683a 	jmp	at

0002001c <_exit>:
   2001c:	00000000 	call	0 <__alt_mem_onchip_memory2_0-0x20000>

Disassembly of section .text:

00020020 <_start>:

    /* Assume the data cache size is always a power of two. */
#if NIOS2_DCACHE_SIZE > 0x8000
    movhi r2, %hi(NIOS2_DCACHE_SIZE)
#else
    movui r2, NIOS2_DCACHE_SIZE
   20020:	00840014 	movui	r2,4096
#endif

0:
    initd 0(r2)
   20024:	10000033 	initd	0(r2)
#ifdef NIOS2_ECC_PRESENT
    addi r2, r2, -4
#else
    addi r2, r2, -NIOS2_DCACHE_LINE_SIZE
   20028:	10bff804 	addi	r2,r2,-32
#endif
    bgt r2, zero, 0b
   2002c:	00bffd16 	blt	zero,r2,20024 <__alt_data_end+0xffff15c4>

    /*
     * Now that the caches are initialized, set up the stack pointer and global pointer.
     * The values provided by the linker are assumed to be correctly aligned.
     */
    movhi sp, %hi(__alt_stack_pointer)
   20030:	06c000b4 	movhi	sp,2
    ori sp, sp, %lo(__alt_stack_pointer)
   20034:	defa9814 	ori	sp,sp,60000
    movhi gp, %hi(_gp)
   20038:	068000b4 	movhi	gp,2
    ori gp, gp, %lo(_gp)
   2003c:	d6b5af14 	ori	gp,gp,54972
 */
#ifndef ALT_SIM_OPTIMIZE
    /* Log that the BSS is about to be cleared. */
    ALT_LOG_PUTS(alt_log_msg_bss)

    movhi r2, %hi(__bss_start)
   20040:	008000b4 	movhi	r2,2
    ori r2, r2, %lo(__bss_start)
   20044:	10962114 	ori	r2,r2,22660

    movhi r3, %hi(__bss_end)
   20048:	00c000b4 	movhi	r3,2
    ori r3, r3, %lo(__bss_end)
   2004c:	18d66714 	ori	r3,r3,22940

    beq r2, r3, 1f
   20050:	10c00326 	beq	r2,r3,20060 <_start+0x40>

0:
    stw zero, (r2)
   20054:	10000015 	stw	zero,0(r2)
    addi r2, r2, 4
   20058:	10800104 	addi	r2,r2,4
    bltu r2, r3, 0b
   2005c:	10fffd36 	bltu	r2,r3,20054 <__alt_data_end+0xffff15f4>
     * section aren't defined until alt_load() has been called).
     */
    mov   et, zero
#endif

    call alt_load
   20060:	002427c0 	call	2427c <alt_load>

    /* Log that alt_main is about to be called. */
    ALT_LOG_PUTS(alt_log_msg_alt_main)

    /* Call the C entry point. It should never return. */
    call alt_main
   20064:	002435c0 	call	2435c <alt_main>

00020068 <alt_after_alt_main>:

    /* Wait in infinite loop in case alt_main does return. */
alt_after_alt_main:
    br alt_after_alt_main
   20068:	003fff06 	br	20068 <__alt_data_end+0xffff1608>

0002006c <Write32_Data>:
#define TRUE 1
#define FALSE 0

bool Write32_Data(alt_32 base_address, alt_32 offset_address, alt_32 Data){
	bool bPass;
    IOWR(base_address, offset_address,Data);
   2006c:	294b883a 	add	r5,r5,r5
   20070:	294b883a 	add	r5,r5,r5
   20074:	2909883a 	add	r4,r5,r4
   20078:	21800035 	stwio	r6,0(r4)
    bPass=TRUE;
    return bPass;
}
   2007c:	00800044 	movi	r2,1
   20080:	f800283a 	ret

00020084 <Read32_Data>:



bool  Read32_Data(alt_32 base_address, alt_32 offset_address, alt_32 *pData32){
	bool bPass;
	*pData32 =IORD(base_address ,offset_address  );
   20084:	294b883a 	add	r5,r5,r5
   20088:	294b883a 	add	r5,r5,r5
   2008c:	2909883a 	add	r4,r5,r4
   20090:	20800037 	ldwio	r2,0(r4)
   20094:	30800015 	stw	r2,0(r6)
	bPass=TRUE;
    return bPass;
}
   20098:	00800044 	movi	r2,1
   2009c:	f800283a 	ret

000200a0 <oc_i2c_init_ex>:

	return bSuccess;
}

bool  oc_i2c_init_ex(alt_32 i2c_base, alt_32 ref_clk, alt_32 i2c_clk)
{
   200a0:	defffe04 	addi	sp,sp,-8
   200a4:	dc000015 	stw	r16,0(sp)
   200a8:	2021883a 	mov	r16,r4
   200ac:	2809883a 	mov	r4,r5
	const alt_u8 ControlValue = 0x80;

    // I2c sysclock =50M hz
	// i2c scl max 400k
	//scl =sysclock/(prescale*5)
	prescale = (ref_clk/(5*i2c_clk))-1;
   200b0:	31400164 	muli	r5,r6,5

	return bSuccess;
}

bool  oc_i2c_init_ex(alt_32 i2c_base, alt_32 ref_clk, alt_32 i2c_clk)
{
   200b4:	dfc00115 	stw	ra,4(sp)
	const alt_u8 ControlValue = 0x80;

    // I2c sysclock =50M hz
	// i2c scl max 400k
	//scl =sysclock/(prescale*5)
	prescale = (ref_clk/(5*i2c_clk))-1;
   200b8:	0022cc40 	call	22cc4 <__divsi3>
   200bc:	10bfffc4 	addi	r2,r2,-1
   200c0:	11c03fcc 	andi	r7,r2,255
	prescale_low = prescale & 0xFF;
	prescale_high = (prescale >> 8) & 0xFF;

   IOWR(i2c_base, 0, prescale_low);//write low byte of  prescale (reg 0)
   200c4:	81c00035 	stwio	r7,0(r16)
   200c8:	1005d23a 	srai	r2,r2,8
   IOWR(i2c_base, 1, prescale_high);//write high byte of prescale (reg 1)
   200cc:	81800104 	addi	r6,r16,4
   200d0:	10803fcc 	andi	r2,r2,255
   200d4:	30800035 	stwio	r2,0(r6)

   //enable the I2C core, but disable the IRQ
   IOWR( i2c_base, 2, ControlValue);
   200d8:	81400204 	addi	r5,r16,8
   200dc:	01002004 	movi	r4,128
   200e0:	29000035 	stwio	r4,0(r5)


    // check prescale low byte
    if (bSuccess){
    	read_data =IORD(i2c_base, 0);
   200e4:	80c00037 	ldwio	r3,0(r16)
        if( (read_data & 0x00ff) != prescale_low ){
   200e8:	18c03fcc 	andi	r3,r3,255
   200ec:	38c0031e 	bne	r7,r3,200fc <oc_i2c_init_ex+0x5c>
        }
    }

    // check prescale high byte
    if (bSuccess){
    	read_data =IORD(i2c_base, 1);
   200f0:	30c00037 	ldwio	r3,0(r6)
        if( (read_data & 0x00ff) != prescale_high ){
   200f4:	18c03fcc 	andi	r3,r3,255
   200f8:	10c00726 	beq	r2,r3,20118 <oc_i2c_init_ex+0x78>

   if (bSuccess){
//       printf("\nI2C core is enabled! \r\n");
   }
   else
	   if (print){
   200fc:	d0a07217 	ldw	r2,-32312(gp)
   20100:	10000926 	beq	r2,zero,20128 <oc_i2c_init_ex+0x88>
		   printf("\nI2C core is not enabled successfully! \r\n");
   20104:	010000b4 	movhi	r4,2
   20108:	21121d04 	addi	r4,r4,18548
   2010c:	00232080 	call	23208 <puts>
   20110:	0005883a 	mov	r2,zero
   20114:	00000406 	br	20128 <oc_i2c_init_ex+0x88>
        }
    }

    // check control
    if (bSuccess){
    	read_data =IORD(i2c_base, 2);
   20118:	28800037 	ldwio	r2,0(r5)
        if( (read_data & 0x00ff) != ControlValue ){
   2011c:	10803fcc 	andi	r2,r2,255
   20120:	113ff61e 	bne	r2,r4,200fc <__alt_data_end+0xffff169c>
   20124:	00800044 	movi	r2,1
		   printf("\nI2C core is not enabled successfully! \r\n");
	   }

   return bSuccess;

}
   20128:	dfc00117 	ldw	ra,4(sp)
   2012c:	dc000017 	ldw	r16,0(sp)
   20130:	dec00204 	addi	sp,sp,8
   20134:	f800283a 	ret

00020138 <oc_i2c_init>:
bool oc_i2c_init(alt_32 i2c_base){
	bool bSuccess;
	const alt_32 ref_clk = 50*1000*1000; // 50MHz
	const alt_32 i2c_clk = 400*1000; // 400KHz

	bSuccess = oc_i2c_init_ex(i2c_base, ref_clk, i2c_clk);
   20138:	018001b4 	movhi	r6,6
   2013c:	0140bef4 	movhi	r5,763
   20140:	3186a004 	addi	r6,r6,6784
   20144:	297c2004 	addi	r5,r5,-3968
   20148:	00200a01 	jmpi	200a0 <oc_i2c_init_ex>

0002014c <oc_i2c_uninit>:
{
	bool bSuccess=TRUE;
	alt_32 read_data;
	const alt_u8 ControlValue = 0x00;

    IOWR( i2c_base, 2, ControlValue);
   2014c:	21000204 	addi	r4,r4,8
   20150:	20000035 	stwio	zero,0(r4)
   	read_data =IORD(i2c_base, 2);
   20154:	20800037 	ldwio	r2,0(r4)
	if( (read_data & 0x00ff) != ControlValue ){
   20158:	10803fcc 	andi	r2,r2,255
   2015c:	1000021e 	bne	r2,zero,20168 <oc_i2c_uninit+0x1c>

}

bool oc_i2c_uninit(alt_32 i2c_base)
{
	bool bSuccess=TRUE;
   20160:	00800044 	movi	r2,1
		   printf("\I2C core is failed to disable! \r\n");
	   }

   return bSuccess;

}
   20164:	f800283a 	ret

   if (bSuccess){
//       printf("\I2C core  is disabled! \r\n");
   }
   else
	   if (print){
   20168:	d0a07217 	ldw	r2,-32312(gp)
   2016c:	10000926 	beq	r2,zero,20194 <oc_i2c_uninit+0x48>
		   printf("\I2C core is failed to disable! \r\n");
   20170:	010000b4 	movhi	r4,2
   return bSuccess;

}

bool oc_i2c_uninit(alt_32 i2c_base)
{
   20174:	deffff04 	addi	sp,sp,-4
   if (bSuccess){
//       printf("\I2C core  is disabled! \r\n");
   }
   else
	   if (print){
		   printf("\I2C core is failed to disable! \r\n");
   20178:	21122804 	addi	r4,r4,18592
   return bSuccess;

}

bool oc_i2c_uninit(alt_32 i2c_base)
{
   2017c:	dfc00015 	stw	ra,0(sp)
   if (bSuccess){
//       printf("\I2C core  is disabled! \r\n");
   }
   else
	   if (print){
		   printf("\I2C core is failed to disable! \r\n");
   20180:	00232080 	call	23208 <puts>
	const alt_u8 ControlValue = 0x00;

    IOWR( i2c_base, 2, ControlValue);
   	read_data =IORD(i2c_base, 2);
	if( (read_data & 0x00ff) != ControlValue ){
            bSuccess = FALSE;
   20184:	0005883a 	mov	r2,zero
		   printf("\I2C core is failed to disable! \r\n");
	   }

   return bSuccess;

}
   20188:	dfc00017 	ldw	ra,0(sp)
   2018c:	dec00104 	addi	sp,sp,4
   20190:	f800283a 	ret
   20194:	f800283a 	ret

00020198 <ACK_single_check>:




bool  ACK_single_check(alt_32 i2c_base)
{
   20198:	defffe04 	addi	sp,sp,-8
   2019c:	dc000015 	stw	r16,0(sp)
   201a0:	2021883a 	mov	r16,r4
	bool bSuccess=TRUE;
	alt_32 read_data;

    usleep(ACK_SLEEP_TIME);
   201a4:	01003e84 	movi	r4,250




bool  ACK_single_check(alt_32 i2c_base)
{
   201a8:	dfc00115 	stw	ra,4(sp)
	bool bSuccess=TRUE;
	alt_32 read_data;

    usleep(ACK_SLEEP_TIME);
    read_data =IORD(i2c_base, 4);
   201ac:	84000404 	addi	r16,r16,16
bool  ACK_single_check(alt_32 i2c_base)
{
	bool bSuccess=TRUE;
	alt_32 read_data;

    usleep(ACK_SLEEP_TIME);
   201b0:	00246780 	call	24678 <usleep>
    read_data =IORD(i2c_base, 4);
   201b4:	80800037 	ldwio	r2,0(r16)
    if(read_data & 0x02)
   201b8:	1080008c 	andi	r2,r2,2
   201bc:	10000226 	beq	r2,zero,201c8 <ACK_single_check+0x30>
   201c0:	0005883a 	mov	r2,zero
   201c4:	00000506 	br	201dc <ACK_single_check+0x44>
            bSuccess = FALSE;
     if (bSuccess){
            usleep(ACK_SLEEP_TIME);
   201c8:	01003e84 	movi	r4,250
   201cc:	00246780 	call	24678 <usleep>
            read_data =IORD(i2c_base, 4);
   201d0:	80800037 	ldwio	r2,0(r16)
   201d4:	1080200c 	andi	r2,r2,128
   201d8:	1005003a 	cmpeq	r2,r2,zero
                if(read_data & 0x80)
                    bSuccess = FALSE;
     }
    return bSuccess;
}
   201dc:	dfc00117 	ldw	ra,4(sp)
   201e0:	dc000017 	ldw	r16,0(sp)
   201e4:	dec00204 	addi	sp,sp,8
   201e8:	f800283a 	ret

000201ec <ACK_check>:


bool  ACK_check(alt_32 i2c_base){
   201ec:	defffd04 	addi	sp,sp,-12
   201f0:	dc400115 	stw	r17,4(sp)
   201f4:	dc000015 	stw	r16,0(sp)
   201f8:	dfc00215 	stw	ra,8(sp)
   201fc:	2023883a 	mov	r17,r4
   20200:	040002c4 	movi	r16,11
   20204:	843fffc4 	addi	r16,r16,-1
    bool bSuccess = FALSE;
    int i=0;

    while(!bSuccess && i++ < 10){
   20208:	80000426 	beq	r16,zero,2021c <ACK_check+0x30>
        bSuccess = ACK_single_check(i2c_base);
   2020c:	8809883a 	mov	r4,r17
   20210:	00201980 	call	20198 <ACK_single_check>

bool  ACK_check(alt_32 i2c_base){
    bool bSuccess = FALSE;
    int i=0;

    while(!bSuccess && i++ < 10){
   20214:	103ffb26 	beq	r2,zero,20204 <__alt_data_end+0xffff17a4>
   20218:	00000106 	br	20220 <ACK_check+0x34>
   2021c:	0005883a 	mov	r2,zero
        bSuccess = ACK_single_check(i2c_base);
    }

    return bSuccess;
}
   20220:	dfc00217 	ldw	ra,8(sp)
   20224:	dc400117 	ldw	r17,4(sp)
   20228:	dc000017 	ldw	r16,0(sp)
   2022c:	dec00304 	addi	sp,sp,12
   20230:	f800283a 	ret

00020234 <OC_I2C_Write>:

bool  OC_I2C_Write(alt_32 i2c_base,alt_u8 device_address,alt_u8 sub_address, alt_u8 *pData, int nWriteLength)
{
   20234:	defff804 	addi	sp,sp,-32
   20238:	dd800615 	stw	r22,24(sp)
   2023c:	dd400515 	stw	r21,20(sp)
   20240:	dcc00315 	stw	r19,12(sp)
   20244:	dc400115 	stw	r17,4(sp)
   20248:	dfc00715 	stw	ra,28(sp)
   2024c:	dd000415 	stw	r20,16(sp)
   20250:	dc800215 	stw	r18,8(sp)
   20254:	dc000015 	stw	r16,0(sp)
   20258:	2027883a 	mov	r19,r4
   2025c:	3023883a 	mov	r17,r6
   20260:	382d883a 	mov	r22,r7
#define TRUE 1
#define FALSE 0

bool Write32_Data(alt_32 base_address, alt_32 offset_address, alt_32 Data){
	bool bPass;
    IOWR(base_address, offset_address,Data);
   20264:	25400304 	addi	r21,r4,12
   20268:	29403fcc 	andi	r5,r5,255
   2026c:	a9400035 	stwio	r5,0(r21)
   20270:	24800404 	addi	r18,r4,16
   20274:	00802404 	movi	r2,144
   20278:	90800035 	stwio	r2,0(r18)
	   }
       return FALSE;
   }

   //wait TIP bit go to 0 to end Tx
    if(!ACK_check( i2c_base)){
   2027c:	00201ec0 	call	201ec <ACK_check>
   20280:	1000081e 	bne	r2,zero,202a4 <OC_I2C_Write+0x70>
   20284:	1021883a 	mov	r16,r2
    	if (print){
   20288:	d0a07217 	ldw	r2,-32312(gp)
   2028c:	1000021e 	bne	r2,zero,20298 <OC_I2C_Write+0x64>
    		printf("OC_I2C_Write error[2]\r\n");
    	}
        return FALSE;
   20290:	0021883a 	mov	r16,zero
   20294:	00002606 	br	20330 <OC_I2C_Write+0xfc>
   }

   //wait TIP bit go to 0 to end Tx
    if(!ACK_check( i2c_base)){
    	if (print){
    		printf("OC_I2C_Write error[2]\r\n");
   20298:	010000b4 	movhi	r4,2
   2029c:	21123104 	addi	r4,r4,18628
   202a0:	00001c06 	br	20314 <OC_I2C_Write+0xe0>
#define TRUE 1
#define FALSE 0

bool Write32_Data(alt_32 base_address, alt_32 offset_address, alt_32 Data){
	bool bPass;
    IOWR(base_address, offset_address,Data);
   202a4:	8c403fcc 	andi	r17,r17,255
   202a8:	ac400035 	stwio	r17,0(r21)
   202ac:	05000404 	movi	r20,16
   202b0:	95000035 	stwio	r20,0(r18)
    	}
        return FALSE;
    }

   //wait TIP bit go to 0 to end Tx
    if(!ACK_check( i2c_base)){
   202b4:	9809883a 	mov	r4,r19
   202b8:	00201ec0 	call	201ec <ACK_check>
   202bc:	1021883a 	mov	r16,r2
   202c0:	1000051e 	bne	r2,zero,202d8 <OC_I2C_Write+0xa4>
    	if (print){
   202c4:	d0a07217 	ldw	r2,-32312(gp)
   202c8:	103ff126 	beq	r2,zero,20290 <__alt_data_end+0xffff1830>
        printf("OC_I2C_Write error[5]\r\n");
   202cc:	010000b4 	movhi	r4,2
   202d0:	21123704 	addi	r4,r4,18652
   202d4:	00000f06 	br	20314 <OC_I2C_Write+0xe0>
        return FALSE;
    }
 //  printf("\n receive ACK-reg address! \n");

#if 1
        for( i=nWriteLength-1;i>=0;i--){
   202d8:	dc400817 	ldw	r17,32(sp)
   202dc:	8c7fffc4 	addi	r17,r17,-1
   202e0:	88000e16 	blt	r17,zero,2031c <OC_I2C_Write+0xe8>
        //set the txr reg data with the data
          if (!Write32_Data( i2c_base, 3,*(pData+i))){
   202e4:	b445883a 	add	r2,r22,r17
#define TRUE 1
#define FALSE 0

bool Write32_Data(alt_32 base_address, alt_32 offset_address, alt_32 Data){
	bool bPass;
    IOWR(base_address, offset_address,Data);
   202e8:	10800003 	ldbu	r2,0(r2)
   202ec:	a8800035 	stwio	r2,0(r21)
   202f0:	95000035 	stwio	r20,0(r18)
        	 }
              return FALSE;
         }

         //wait TIP bit go to 0 to end Tx
          if(!ACK_check( i2c_base)){
   202f4:	9809883a 	mov	r4,r19
   202f8:	00201ec0 	call	201ec <ACK_check>
   202fc:	1021883a 	mov	r16,r2
   20300:	103ff61e 	bne	r2,zero,202dc <__alt_data_end+0xffff187c>
        	  if (print){
   20304:	d0a07217 	ldw	r2,-32312(gp)
   20308:	103fe126 	beq	r2,zero,20290 <__alt_data_end+0xffff1830>
        		  printf("OC_I2C_Write error[8]\r\n");
   2030c:	010000b4 	movhi	r4,2
   20310:	21123d04 	addi	r4,r4,18676
   20314:	00232080 	call	23208 <puts>
   20318:	00000506 	br	20330 <OC_I2C_Write+0xfc>
#define TRUE 1
#define FALSE 0

bool Write32_Data(alt_32 base_address, alt_32 offset_address, alt_32 Data){
	bool bPass;
    IOWR(base_address, offset_address,Data);
   2031c:	00801004 	movi	r2,64
   20320:	90800035 	stwio	r2,0(r18)
    	 }
         return FALSE;
     }
         //Sleep(10);
     //OS_msleep(1);
     usleep(SLEEP_TIME);
   20324:	01003e84 	movi	r4,250
   20328:	00246780 	call	24678 <usleep>

  // printf("\n receive ACK-data! \n");

     return TRUE;
   2032c:	04000044 	movi	r16,1

}
   20330:	8005883a 	mov	r2,r16
   20334:	dfc00717 	ldw	ra,28(sp)
   20338:	dd800617 	ldw	r22,24(sp)
   2033c:	dd400517 	ldw	r21,20(sp)
   20340:	dd000417 	ldw	r20,16(sp)
   20344:	dcc00317 	ldw	r19,12(sp)
   20348:	dc800217 	ldw	r18,8(sp)
   2034c:	dc400117 	ldw	r17,4(sp)
   20350:	dc000017 	ldw	r16,0(sp)
   20354:	dec00804 	addi	sp,sp,32
   20358:	f800283a 	ret

0002035c <ACK_judge_for_read>:


bool ACK_judge_for_read(alt_32 i2c_base)
{
   2035c:	defffe04 	addi	sp,sp,-8
   20360:	dc000015 	stw	r16,0(sp)
   20364:	2021883a 	mov	r16,r4
	bool bSuccess;
    alt_32 this_data;

   // OS_msleep( SLEEP_TIME );
     usleep(ACK_SLEEP_TIME);
   20368:	01003e84 	movi	r4,250

}


bool ACK_judge_for_read(alt_32 i2c_base)
{
   2036c:	dfc00115 	stw	ra,4(sp)
	bool bSuccess;
    alt_32 this_data;

   // OS_msleep( SLEEP_TIME );
     usleep(ACK_SLEEP_TIME);
   20370:	00246780 	call	24678 <usleep>



bool  Read32_Data(alt_32 base_address, alt_32 offset_address, alt_32 *pData32){
	bool bPass;
	*pData32 =IORD(base_address ,offset_address  );
   20374:	80800437 	ldwio	r2,16(r16)
        if(this_data & 0x02)
            bSuccess = FALSE;
    }
   //wait the rx ACK signal 0-valid

    return bSuccess;
   20378:	1080008c 	andi	r2,r2,2

}
   2037c:	1005003a 	cmpeq	r2,r2,zero
   20380:	dfc00117 	ldw	ra,4(sp)
   20384:	dc000017 	ldw	r16,0(sp)
   20388:	dec00204 	addi	sp,sp,8
   2038c:	f800283a 	ret

00020390 <OC_I2C_Read>:

bool  OC_I2C_Read(alt_32 i2c_base,alt_u8 device_address,alt_u8 sub_address, alt_u8 *pData8, int nReadLength){
   20390:	defff704 	addi	sp,sp,-36
   20394:	dd400515 	stw	r21,20(sp)
   20398:	dd400917 	ldw	r21,36(sp)
   2039c:	ddc00715 	stw	r23,28(sp)
   203a0:	dd800615 	stw	r22,24(sp)
   203a4:	dd000415 	stw	r20,16(sp)
   203a8:	dc800215 	stw	r18,8(sp)
   203ac:	dc400115 	stw	r17,4(sp)
   203b0:	dfc00815 	stw	ra,32(sp)
   203b4:	dcc00315 	stw	r19,12(sp)
   203b8:	dc000015 	stw	r16,0(sp)
   203bc:	2023883a 	mov	r17,r4
   203c0:	2825883a 	mov	r18,r5
   203c4:	302f883a 	mov	r23,r6
   203c8:	382d883a 	mov	r22,r7
    //BYTE data = 0x0;
    alt_32 Data32;
    int i;

   //set the tx reg audio chip dev address with write bit
   IOWR( i2c_base, 3,device_address);
   203cc:	25000304 	addi	r20,r4,12
   203d0:	28803fcc 	andi	r2,r5,255
   203d4:	a0800035 	stwio	r2,0(r20)
   //set STA and WR bits(bit7 and bit4)
   IOWR( i2c_base, 4,0x90);
   203d8:	24c00404 	addi	r19,r4,16
   203dc:	00802404 	movi	r2,144
   203e0:	98800035 	stwio	r2,0(r19)
   //wait TIP bit go to 0 to end Tx
   if (!ACK_check( i2c_base && print)){
   203e4:	20000326 	beq	r4,zero,203f4 <OC_I2C_Read+0x64>
   203e8:	d1207217 	ldw	r4,-32312(gp)
   203ec:	2008c03a 	cmpne	r4,r4,zero
   203f0:	00000106 	br	203f8 <OC_I2C_Read+0x68>
   203f4:	0009883a 	mov	r4,zero
   203f8:	00201ec0 	call	201ec <ACK_check>
   203fc:	1021883a 	mov	r16,r2
   20400:	1000031e 	bne	r2,zero,20410 <OC_I2C_Read+0x80>
       printf("OC_I2C_Read error[2]\r\n");
   20404:	010000b4 	movhi	r4,2
   20408:	21124304 	addi	r4,r4,18700
   2040c:	00000c06 	br	20440 <OC_I2C_Read+0xb0>
       return FALSE;
   }
   IOWR(i2c_base, 3,sub_address);
   20410:	bdc03fcc 	andi	r23,r23,255
   20414:	a5c00035 	stwio	r23,0(r20)

   //set WR bits(bit4)
   IOWR( i2c_base, 4,0x10);
   20418:	00800404 	movi	r2,16
   2041c:	98800035 	stwio	r2,0(r19)
   //wait TIP bit go to 0 to end Tx
    if (!ACK_check( i2c_base) && print){
   20420:	8809883a 	mov	r4,r17
   20424:	00201ec0 	call	201ec <ACK_check>
   20428:	1021883a 	mov	r16,r2
   2042c:	1000061e 	bne	r2,zero,20448 <OC_I2C_Read+0xb8>
   20430:	d0a07217 	ldw	r2,-32312(gp)
   20434:	10000426 	beq	r2,zero,20448 <OC_I2C_Read+0xb8>
        printf("OC_I2C_Read error[5]\r\n");
   20438:	010000b4 	movhi	r4,2
   2043c:	21124904 	addi	r4,r4,18724
   20440:	00232080 	call	23208 <puts>
        return FALSE;
   20444:	00002a06 	br	204f0 <OC_I2C_Read+0x160>
  // printf("\n read receive ACK-reg address! \n");

   //read
    //set the tx reg audio chip dev address with read bit 1

    IOWR(i2c_base, 3,device_address|0x01);
   20448:	94800054 	ori	r18,r18,1
   2044c:	94803fcc 	andi	r18,r18,255
   20450:	a4800035 	stwio	r18,0(r20)

   //set STA and WR bits(bit7 and bit4)
    IOWR( i2c_base, 4,0x90);
   20454:	00802404 	movi	r2,144
   20458:	98800035 	stwio	r2,0(r19)

   //wait TIP bit go to 0 to end Tx
    if (!ACK_check( i2c_base) && print){
   2045c:	8809883a 	mov	r4,r17
   20460:	00201ec0 	call	201ec <ACK_check>
   20464:	1021883a 	mov	r16,r2
   20468:	10000326 	beq	r2,zero,20478 <OC_I2C_Read+0xe8>
   2046c:	b025883a 	mov	r18,r22
    }

    for(i=0;i<nReadLength;i++){
  // printf("\n read receive ACK-device address(read)! \n");
   //set the RD and ACK bit(bit5 and bit3)
    	IOWR( i2c_base, 4,((i+1) == nReadLength)?0x28:0x20);
   20470:	002d883a 	mov	r22,zero
   20474:	00001006 	br	204b8 <OC_I2C_Read+0x128>

   //set STA and WR bits(bit7 and bit4)
    IOWR( i2c_base, 4,0x90);

   //wait TIP bit go to 0 to end Tx
    if (!ACK_check( i2c_base) && print){
   20478:	d0a07217 	ldw	r2,-32312(gp)
   2047c:	103ffb26 	beq	r2,zero,2046c <__alt_data_end+0xffff1a0c>
        printf("OC_I2C_Read error[8]\r\n");
   20480:	010000b4 	movhi	r4,2
   20484:	21124f04 	addi	r4,r4,18748
   20488:	003fed06 	br	20440 <__alt_data_end+0xffff19e0>
    }

    for(i=0;i<nReadLength;i++){
  // printf("\n read receive ACK-device address(read)! \n");
   //set the RD and ACK bit(bit5 and bit3)
    	IOWR( i2c_base, 4,((i+1) == nReadLength)?0x28:0x20);
   2048c:	b5800044 	addi	r22,r22,1
   20490:	ad800b1e 	bne	r21,r22,204c0 <OC_I2C_Read+0x130>
   20494:	00800a04 	movi	r2,40
   20498:	98800035 	stwio	r2,0(r19)

        if (!ACK_judge_for_read( i2c_base) && print){
   2049c:	8809883a 	mov	r4,r17
   204a0:	002035c0 	call	2035c <ACK_judge_for_read>
   204a4:	1021883a 	mov	r16,r2
   204a8:	10000726 	beq	r2,zero,204c8 <OC_I2C_Read+0x138>
            printf("OC_I2C_Read error[10]\r\n");
            return FALSE;
        }
   // printf("\n read receive ACK-device address(read)! \n");

        Data32=IORD( i2c_base, 3);
   204ac:	a0800037 	ldwio	r2,0(r20)
        *(pData8+i) =  Data32 & 0xff;
   204b0:	90800005 	stb	r2,0(r18)
   204b4:	94800044 	addi	r18,r18,1
    if (!ACK_check( i2c_base) && print){
        printf("OC_I2C_Read error[8]\r\n");
        return FALSE;
    }

    for(i=0;i<nReadLength;i++){
   204b8:	b57ff416 	blt	r22,r21,2048c <__alt_data_end+0xffff1a2c>
   204bc:	00000706 	br	204dc <OC_I2C_Read+0x14c>
  // printf("\n read receive ACK-device address(read)! \n");
   //set the RD and ACK bit(bit5 and bit3)
    	IOWR( i2c_base, 4,((i+1) == nReadLength)?0x28:0x20);
   204c0:	00800804 	movi	r2,32
   204c4:	003ff406 	br	20498 <__alt_data_end+0xffff1a38>

        if (!ACK_judge_for_read( i2c_base) && print){
   204c8:	d0a07217 	ldw	r2,-32312(gp)
   204cc:	103ff726 	beq	r2,zero,204ac <__alt_data_end+0xffff1a4c>
            printf("OC_I2C_Read error[10]\r\n");
   204d0:	010000b4 	movhi	r4,2
   204d4:	21125504 	addi	r4,r4,18772
   204d8:	003fd906 	br	20440 <__alt_data_end+0xffff19e0>

        Data32=IORD( i2c_base, 3);
        *(pData8+i) =  Data32 & 0xff;
    }

    IOWR( i2c_base, 4,0x40);
   204dc:	00801004 	movi	r2,64
   204e0:	98800035 	stwio	r2,0(r19)

  // Sleep(10);
   //OS_msleep(1);
    usleep(SLEEP_TIME);
   204e4:	01003e84 	movi	r4,250
   204e8:	00246780 	call	24678 <usleep>
 //  printf(" Read  [%02X] = %02Xh\r\n", sub_address, data);


   return TRUE;
   204ec:	04000044 	movi	r16,1

}
   204f0:	8005883a 	mov	r2,r16
   204f4:	dfc00817 	ldw	ra,32(sp)
   204f8:	ddc00717 	ldw	r23,28(sp)
   204fc:	dd800617 	ldw	r22,24(sp)
   20500:	dd400517 	ldw	r21,20(sp)
   20504:	dd000417 	ldw	r20,16(sp)
   20508:	dcc00317 	ldw	r19,12(sp)
   2050c:	dc800217 	ldw	r18,8(sp)
   20510:	dc400117 	ldw	r17,4(sp)
   20514:	dc000017 	ldw	r16,0(sp)
   20518:	dec00904 	addi	sp,sp,36
   2051c:	f800283a 	ret

00020520 <OC_I2C_Read_Continue>:


bool  OC_I2C_Read_Continue(alt_32 i2c_base,alt_u8 device_address, alt_u8 *pData8, int nReadLength){
   20520:	defff804 	addi	sp,sp,-32
	int i;
	alt_u32 Data32;

    IOWR(i2c_base, 3,device_address|0x01);
   20524:	29400054 	ori	r5,r5,1
   return TRUE;

}


bool  OC_I2C_Read_Continue(alt_32 i2c_base,alt_u8 device_address, alt_u8 *pData8, int nReadLength){
   20528:	dd800615 	stw	r22,24(sp)
   2052c:	dd400515 	stw	r21,20(sp)
   20530:	dd000415 	stw	r20,16(sp)
   20534:	dc400115 	stw	r17,4(sp)
   20538:	dfc00715 	stw	ra,28(sp)
   2053c:	dcc00315 	stw	r19,12(sp)
   20540:	dc800215 	stw	r18,8(sp)
   20544:	dc000015 	stw	r16,0(sp)
   20548:	2029883a 	mov	r20,r4
   2054c:	3023883a 	mov	r17,r6
   20550:	382d883a 	mov	r22,r7
	int i;
	alt_u32 Data32;

    IOWR(i2c_base, 3,device_address|0x01);
   20554:	25400304 	addi	r21,r4,12
   20558:	29403fcc 	andi	r5,r5,255
   2055c:	a9400035 	stwio	r5,0(r21)

   //set STA and WR bits(bit7 and bit4)
    IOWR( i2c_base, 4,0x90);
   20560:	24c00404 	addi	r19,r4,16
   20564:	00802404 	movi	r2,144
   20568:	98800035 	stwio	r2,0(r19)
//usleep(5*1000);
   //wait TIP bit go to 0 to end Tx
    if (!ACK_check( i2c_base) && print){
   2056c:	00201ec0 	call	201ec <ACK_check>
   20570:	10000226 	beq	r2,zero,2057c <OC_I2C_Read_Continue+0x5c>
    }

    for(i=0;i<nReadLength;i++){
  // printf("\n read receive ACK-device address(read)! \n");
   //set the RD and ACK bit(bit5 and bit3)
    	IOWR( i2c_base, 4,((i+1) == nReadLength)?0x28:0x20);
   20574:	0025883a 	mov	r18,zero
   20578:	00000906 	br	205a0 <OC_I2C_Read_Continue+0x80>
   2057c:	1021883a 	mov	r16,r2

   //set STA and WR bits(bit7 and bit4)
    IOWR( i2c_base, 4,0x90);
//usleep(5*1000);
   //wait TIP bit go to 0 to end Tx
    if (!ACK_check( i2c_base) && print){
   20580:	d0a07217 	ldw	r2,-32312(gp)
   20584:	103ffb26 	beq	r2,zero,20574 <__alt_data_end+0xffff1b14>
        printf("OC_I2C_Read error[8]\r\n");
   20588:	010000b4 	movhi	r4,2
   2058c:	21124f04 	addi	r4,r4,18748
   20590:	00001006 	br	205d4 <OC_I2C_Read_Continue+0xb4>
            printf("OC_I2C_Read error[10]\r\n");
            return FALSE;
        }
   // printf("\n read receive ACK-device address(read)! \n");

        Data32=IORD( i2c_base, 3);
   20594:	a8800037 	ldwio	r2,0(r21)
        *(pData8+i) =  Data32 & 0xff;
   20598:	88800005 	stb	r2,0(r17)
   2059c:	8c400044 	addi	r17,r17,1
    if (!ACK_check( i2c_base) && print){
        printf("OC_I2C_Read error[8]\r\n");
        return FALSE;
    }

    for(i=0;i<nReadLength;i++){
   205a0:	9580100e 	bge	r18,r22,205e4 <OC_I2C_Read_Continue+0xc4>
  // printf("\n read receive ACK-device address(read)! \n");
   //set the RD and ACK bit(bit5 and bit3)
    	IOWR( i2c_base, 4,((i+1) == nReadLength)?0x28:0x20);
   205a4:	94800044 	addi	r18,r18,1
   205a8:	b4800c1e 	bne	r22,r18,205dc <OC_I2C_Read_Continue+0xbc>
   205ac:	00800a04 	movi	r2,40
   205b0:	98800035 	stwio	r2,0(r19)

        if (!ACK_judge_for_read( i2c_base) && print){
   205b4:	a009883a 	mov	r4,r20
   205b8:	002035c0 	call	2035c <ACK_judge_for_read>
   205bc:	1021883a 	mov	r16,r2
   205c0:	103ff41e 	bne	r2,zero,20594 <__alt_data_end+0xffff1b34>
   205c4:	d0a07217 	ldw	r2,-32312(gp)
   205c8:	103ff226 	beq	r2,zero,20594 <__alt_data_end+0xffff1b34>
            printf("OC_I2C_Read error[10]\r\n");
   205cc:	010000b4 	movhi	r4,2
   205d0:	21125504 	addi	r4,r4,18772
   205d4:	00232080 	call	23208 <puts>
            return FALSE;
   205d8:	00000706 	br	205f8 <OC_I2C_Read_Continue+0xd8>
    }

    for(i=0;i<nReadLength;i++){
  // printf("\n read receive ACK-device address(read)! \n");
   //set the RD and ACK bit(bit5 and bit3)
    	IOWR( i2c_base, 4,((i+1) == nReadLength)?0x28:0x20);
   205dc:	00800804 	movi	r2,32
   205e0:	003ff306 	br	205b0 <__alt_data_end+0xffff1b50>

        Data32=IORD( i2c_base, 3);
        *(pData8+i) =  Data32 & 0xff;
    }

    IOWR( i2c_base, 4,0x40);
   205e4:	00801004 	movi	r2,64
   205e8:	98800035 	stwio	r2,0(r19)

  // Sleep(10);
   //OS_msleep(1);
    usleep(SLEEP_TIME);
   205ec:	01003e84 	movi	r4,250
   205f0:	00246780 	call	24678 <usleep>
 //  printf(" Read  [%02X] = %02Xh\r\n", sub_address, data);


   return TRUE;
   205f4:	04000044 	movi	r16,1

}
   205f8:	8005883a 	mov	r2,r16
   205fc:	dfc00717 	ldw	ra,28(sp)
   20600:	dd800617 	ldw	r22,24(sp)
   20604:	dd400517 	ldw	r21,20(sp)
   20608:	dd000417 	ldw	r20,16(sp)
   2060c:	dcc00317 	ldw	r19,12(sp)
   20610:	dc800217 	ldw	r18,8(sp)
   20614:	dc400117 	ldw	r17,4(sp)
   20618:	dc000017 	ldw	r16,0(sp)
   2061c:	dec00804 	addi	sp,sp,32
   20620:	f800283a 	ret

00020624 <OC_I2CL_Write>:


//  size > 2Kb
bool  OC_I2CL_Write(alt_32 i2c_base,alt_u8 device_address,alt_u16 sub_address,alt_u8 *pData, int nWriteLength)
    {
   20624:	defff804 	addi	sp,sp,-32
   20628:	dc400115 	stw	r17,4(sp)
    //DWORD reg_data = 0x0;
	alt_u8 AddrHigh, AddrLow;
    //int count= 0;

    AddrHigh = (sub_address >> 8) & 0xFF;
   2062c:	347fffcc 	andi	r17,r6,65535
   20630:	8822d23a 	srli	r17,r17,8
}


//  size > 2Kb
bool  OC_I2CL_Write(alt_32 i2c_base,alt_u8 device_address,alt_u16 sub_address,alt_u8 *pData, int nWriteLength)
    {
   20634:	dd800615 	stw	r22,24(sp)
   20638:	dd400515 	stw	r21,20(sp)
   2063c:	dd000415 	stw	r20,16(sp)
   20640:	dcc00315 	stw	r19,12(sp)
   20644:	dfc00715 	stw	ra,28(sp)
   20648:	dc800215 	stw	r18,8(sp)
   2064c:	dc000015 	stw	r16,0(sp)
   20650:	2027883a 	mov	r19,r4
   20654:	302d883a 	mov	r22,r6
   20658:	382b883a 	mov	r21,r7
#define TRUE 1
#define FALSE 0

bool Write32_Data(alt_32 base_address, alt_32 offset_address, alt_32 Data){
	bool bPass;
    IOWR(base_address, offset_address,Data);
   2065c:	25000304 	addi	r20,r4,12
   20660:	29403fcc 	andi	r5,r5,255
   20664:	a1400035 	stwio	r5,0(r20)
   20668:	24800404 	addi	r18,r4,16
   2066c:	00802404 	movi	r2,144
   20670:	90800035 	stwio	r2,0(r18)
   //set STA and WR bits(bit7 and bit4)
   if (!Write32_Data( i2c_base, 4,0x90))//0x90
       return FALSE;

   //wait TIP bit go to 0 to end Tx
    if(!ACK_check( i2c_base) && print){
   20674:	00201ec0 	call	201ec <ACK_check>
   20678:	1000061e 	bne	r2,zero,20694 <OC_I2CL_Write+0x70>
   2067c:	1021883a 	mov	r16,r2
   20680:	d0a07217 	ldw	r2,-32312(gp)
   20684:	10000326 	beq	r2,zero,20694 <OC_I2CL_Write+0x70>
        printf("OC_I2CL_Write error[0]\r\n");
   20688:	010000b4 	movhi	r4,2
   2068c:	21125b04 	addi	r4,r4,18796
   20690:	00001706 	br	206f0 <OC_I2CL_Write+0xcc>
#define TRUE 1
#define FALSE 0

bool Write32_Data(alt_32 base_address, alt_32 offset_address, alt_32 Data){
	bool bPass;
    IOWR(base_address, offset_address,Data);
   20694:	a4400035 	stwio	r17,0(r20)
   20698:	04400404 	movi	r17,16
   2069c:	94400035 	stwio	r17,0(r18)
   //set WR bits(bit4)
    if (!Write32_Data( i2c_base, 4,0x10))
        return FALSE;

   //wait TIP bit go to 0 to end Tx
    if(!ACK_check( i2c_base) && print){
   206a0:	9809883a 	mov	r4,r19
   206a4:	00201ec0 	call	201ec <ACK_check>
   206a8:	1021883a 	mov	r16,r2
   206ac:	1000051e 	bne	r2,zero,206c4 <OC_I2CL_Write+0xa0>
   206b0:	d0a07217 	ldw	r2,-32312(gp)
   206b4:	10000326 	beq	r2,zero,206c4 <OC_I2CL_Write+0xa0>
        printf("OC_I2CL_Write error[1]\r\n");
   206b8:	010000b4 	movhi	r4,2
   206bc:	21126104 	addi	r4,r4,18820
   206c0:	00000b06 	br	206f0 <OC_I2CL_Write+0xcc>
#define TRUE 1
#define FALSE 0

bool Write32_Data(alt_32 base_address, alt_32 offset_address, alt_32 Data){
	bool bPass;
    IOWR(base_address, offset_address,Data);
   206c4:	b5803fcc 	andi	r22,r22,255
   206c8:	a5800035 	stwio	r22,0(r20)
   206cc:	94400035 	stwio	r17,0(r18)

   //set WR bits(bit4)
    Write32_Data( i2c_base, 4,0x10);

   //wait TIP bit go to 0 to end Tx
    if(!ACK_check( i2c_base) && print){
   206d0:	9809883a 	mov	r4,r19
   206d4:	00201ec0 	call	201ec <ACK_check>
   206d8:	1021883a 	mov	r16,r2
   206dc:	1000061e 	bne	r2,zero,206f8 <OC_I2CL_Write+0xd4>
   206e0:	d0a07217 	ldw	r2,-32312(gp)
   206e4:	10000426 	beq	r2,zero,206f8 <OC_I2CL_Write+0xd4>
        printf("OC_I2CL_Write error[2]\r\n");
   206e8:	010000b4 	movhi	r4,2
   206ec:	21126704 	addi	r4,r4,18844
   206f0:	00232080 	call	23208 <puts>
        return FALSE;
   206f4:	00001806 	br	20758 <OC_I2CL_Write+0x134>
    }
  //  printf("\n receive ACK-reg low address! \n");

#if 1
    for( i=nWriteLength-1;i>=0;i--){
   206f8:	dc400817 	ldw	r17,32(sp)
#define TRUE 1
#define FALSE 0

bool Write32_Data(alt_32 base_address, alt_32 offset_address, alt_32 Data){
	bool bPass;
    IOWR(base_address, offset_address,Data);
   206fc:	05800404 	movi	r22,16
        return FALSE;
    }
  //  printf("\n receive ACK-reg low address! \n");

#if 1
    for( i=nWriteLength-1;i>=0;i--){
   20700:	8c7fffc4 	addi	r17,r17,-1
   20704:	88000f16 	blt	r17,zero,20744 <OC_I2CL_Write+0x120>
        //set the txr reg data with the other data 8 bit LSB
        if (!Write32_Data( i2c_base, 3,*(pData+i)))
   20708:	ac45883a 	add	r2,r21,r17
#define TRUE 1
#define FALSE 0

bool Write32_Data(alt_32 base_address, alt_32 offset_address, alt_32 Data){
	bool bPass;
    IOWR(base_address, offset_address,Data);
   2070c:	10800003 	ldbu	r2,0(r2)
   20710:	a0800035 	stwio	r2,0(r20)
   20714:	95800035 	stwio	r22,0(r18)
       //set STO and WR bits(bit7 and bit4)
        if (!Write32_Data( i2c_base, 4,0x10))
            return FALSE;

        //wait TIP bit go to 0 to end Tx
         if(!ACK_check( i2c_base) && print){
   20718:	9809883a 	mov	r4,r19
   2071c:	00201ec0 	call	201ec <ACK_check>
   20720:	1021883a 	mov	r16,r2
   20724:	1000051e 	bne	r2,zero,2073c <OC_I2CL_Write+0x118>
   20728:	d0a07217 	ldw	r2,-32312(gp)
   2072c:	10000326 	beq	r2,zero,2073c <OC_I2CL_Write+0x118>
             printf("OC_I2CL_Write error[3]\r\n");
   20730:	010000b4 	movhi	r4,2
   20734:	21126d04 	addi	r4,r4,18868
   20738:	003fed06 	br	206f0 <__alt_data_end+0xffff1c90>
        return FALSE;
    }
  //  printf("\n receive ACK-reg low address! \n");

#if 1
    for( i=nWriteLength-1;i>=0;i--){
   2073c:	8c7fffc4 	addi	r17,r17,-1
   20740:	003ff006 	br	20704 <__alt_data_end+0xffff1ca4>
#define TRUE 1
#define FALSE 0

bool Write32_Data(alt_32 base_address, alt_32 offset_address, alt_32 Data){
	bool bPass;
    IOWR(base_address, offset_address,Data);
   20744:	00801004 	movi	r2,64
   20748:	90800035 	stwio	r2,0(r18)
#endif
    if (!Write32_Data( i2c_base, 4,0x40))
         return FALSE;

     //OS_msleep(1);
      usleep(SLEEP_TIME);
   2074c:	01003e84 	movi	r4,250
   20750:	00246780 	call	24678 <usleep>
  //  printf("\n receive ACK-data! \n");

     return TRUE;
   20754:	04000044 	movi	r16,1
}
   20758:	8005883a 	mov	r2,r16
   2075c:	dfc00717 	ldw	ra,28(sp)
   20760:	dd800617 	ldw	r22,24(sp)
   20764:	dd400517 	ldw	r21,20(sp)
   20768:	dd000417 	ldw	r20,16(sp)
   2076c:	dcc00317 	ldw	r19,12(sp)
   20770:	dc800217 	ldw	r18,8(sp)
   20774:	dc400117 	ldw	r17,4(sp)
   20778:	dc000017 	ldw	r16,0(sp)
   2077c:	dec00804 	addi	sp,sp,32
   20780:	f800283a 	ret

00020784 <OC_I2CL_Read>:

   return TRUE;

} */

bool  OC_I2CL_Read(alt_32 i2c_base,alt_u8 device_address, alt_u16 sub_address, alt_u8 *pData8, int nReadLength){
   20784:	defff604 	addi	sp,sp,-40
   20788:	ddc00715 	stw	r23,28(sp)
    int i;

    alt_u8 AddrHigh, AddrLow;
    alt_u8 DataHigh, DataLow;

    AddrHigh = (sub_address >> 8) & 0xFF;
   2078c:	35ffffcc 	andi	r23,r6,65535

   return TRUE;

} */

bool  OC_I2CL_Read(alt_32 i2c_base,alt_u8 device_address, alt_u16 sub_address, alt_u8 *pData8, int nReadLength){
   20790:	dd400515 	stw	r21,20(sp)
    int i;

    alt_u8 AddrHigh, AddrLow;
    alt_u8 DataHigh, DataLow;

    AddrHigh = (sub_address >> 8) & 0xFF;
   20794:	b82ed23a 	srli	r23,r23,8

   return TRUE;

} */

bool  OC_I2CL_Read(alt_32 i2c_base,alt_u8 device_address, alt_u16 sub_address, alt_u8 *pData8, int nReadLength){
   20798:	dd400a17 	ldw	r21,40(sp)
   2079c:	df000815 	stw	fp,32(sp)
   207a0:	dd800615 	stw	r22,24(sp)
   207a4:	dd000415 	stw	r20,16(sp)
   207a8:	dcc00315 	stw	r19,12(sp)
   207ac:	dc800215 	stw	r18,8(sp)
   207b0:	dfc00915 	stw	ra,36(sp)
   207b4:	dc400115 	stw	r17,4(sp)
   207b8:	dc000015 	stw	r16,0(sp)
   207bc:	2025883a 	mov	r18,r4
   207c0:	2827883a 	mov	r19,r5
   207c4:	3039883a 	mov	fp,r6
   207c8:	382d883a 	mov	r22,r7
#define TRUE 1
#define FALSE 0

bool Write32_Data(alt_32 base_address, alt_32 offset_address, alt_32 Data){
	bool bPass;
    IOWR(base_address, offset_address,Data);
   207cc:	25000304 	addi	r20,r4,12
   207d0:	28803fcc 	andi	r2,r5,255
   207d4:	a0800035 	stwio	r2,0(r20)
   207d8:	24400404 	addi	r17,r4,16
   207dc:	00802404 	movi	r2,144
   207e0:	88800035 	stwio	r2,0(r17)
   //set STA and WR bits(bit7 and bit4)
   if (!Write32_Data( i2c_base, 4,0x90))
       return FALSE;

   //wait TIP bit go to 0 to end Tx
    if(!ACK_check( i2c_base) && print){
   207e4:	00201ec0 	call	201ec <ACK_check>
   207e8:	1000061e 	bne	r2,zero,20804 <OC_I2CL_Read+0x80>
   207ec:	1021883a 	mov	r16,r2
   207f0:	d0a07217 	ldw	r2,-32312(gp)
   207f4:	10000326 	beq	r2,zero,20804 <OC_I2CL_Read+0x80>
        printf("OC_I2CL_Read error[0]\r\n");
   207f8:	010000b4 	movhi	r4,2
   207fc:	21127304 	addi	r4,r4,18892
   20800:	00002806 	br	208a4 <OC_I2CL_Read+0x120>
#define TRUE 1
#define FALSE 0

bool Write32_Data(alt_32 base_address, alt_32 offset_address, alt_32 Data){
	bool bPass;
    IOWR(base_address, offset_address,Data);
   20804:	a5c00035 	stwio	r23,0(r20)
   20808:	05c00404 	movi	r23,16
   2080c:	8dc00035 	stwio	r23,0(r17)
   //set WR bits(bit4)
    if (!Write32_Data( i2c_base, 4,0x10))
        return FALSE;

   //wait TIP bit go to 0 to end Tx
    if(!ACK_check( i2c_base) && print){
   20810:	9009883a 	mov	r4,r18
   20814:	00201ec0 	call	201ec <ACK_check>
   20818:	1021883a 	mov	r16,r2
   2081c:	1000051e 	bne	r2,zero,20834 <OC_I2CL_Read+0xb0>
   20820:	d0a07217 	ldw	r2,-32312(gp)
   20824:	10000326 	beq	r2,zero,20834 <OC_I2CL_Read+0xb0>
        printf("OC_I2CL_Read error[1]\r\n");
   20828:	010000b4 	movhi	r4,2
   2082c:	21127904 	addi	r4,r4,18916
   20830:	00001c06 	br	208a4 <OC_I2CL_Read+0x120>
#define TRUE 1
#define FALSE 0

bool Write32_Data(alt_32 base_address, alt_32 offset_address, alt_32 Data){
	bool bPass;
    IOWR(base_address, offset_address,Data);
   20834:	e7003fcc 	andi	fp,fp,255
   20838:	a7000035 	stwio	fp,0(r20)
   2083c:	8dc00035 	stwio	r23,0(r17)
   //set WR bits(bit4)
    if (!Write32_Data( i2c_base, 4,0x10))
        return FALSE;

   //wait TIP bit go to 0 to end Tx
    if(!ACK_check( i2c_base) && print){
   20840:	9009883a 	mov	r4,r18
   20844:	00201ec0 	call	201ec <ACK_check>
   20848:	1021883a 	mov	r16,r2
   2084c:	1000051e 	bne	r2,zero,20864 <OC_I2CL_Read+0xe0>
   20850:	d0a07217 	ldw	r2,-32312(gp)
   20854:	10000326 	beq	r2,zero,20864 <OC_I2CL_Read+0xe0>
        printf("OC_I2CL_Read error[2]\r\n");
   20858:	010000b4 	movhi	r4,2
   2085c:	21127f04 	addi	r4,r4,18940
   20860:	00001006 	br	208a4 <OC_I2CL_Read+0x120>
#define TRUE 1
#define FALSE 0

bool Write32_Data(alt_32 base_address, alt_32 offset_address, alt_32 Data){
	bool bPass;
    IOWR(base_address, offset_address,Data);
   20864:	9cc00054 	ori	r19,r19,1
   20868:	9cc03fcc 	andi	r19,r19,255
   2086c:	a4c00035 	stwio	r19,0(r20)
   20870:	00802404 	movi	r2,144
   20874:	88800035 	stwio	r2,0(r17)
   //set STA and WR bits(bit7 and bit4)
     if (!Write32_Data( i2c_base, 4,0x90))
         return FALSE;

   //wait TIP bit go to 0 to end Tx
    if(!ACK_check( i2c_base) && print){
   20878:	9009883a 	mov	r4,r18
   2087c:	00201ec0 	call	201ec <ACK_check>
   20880:	1021883a 	mov	r16,r2
   20884:	10000326 	beq	r2,zero,20894 <OC_I2CL_Read+0x110>
   20888:	b027883a 	mov	r19,r22

#if 1
    for(i=0;i<nReadLength;i++){
  // printf("\n read receive ACK-device address(read)! \n");
   //set the RD and ACK bit(bit5 and bit3)
    	IOWR( i2c_base, 4,((i+1) == nReadLength)?0x28:0x20);
   2088c:	002d883a 	mov	r22,zero
   20890:	00001106 	br	208d8 <OC_I2CL_Read+0x154>
   //set STA and WR bits(bit7 and bit4)
     if (!Write32_Data( i2c_base, 4,0x90))
         return FALSE;

   //wait TIP bit go to 0 to end Tx
    if(!ACK_check( i2c_base) && print){
   20894:	d0a07217 	ldw	r2,-32312(gp)
   20898:	103ffb26 	beq	r2,zero,20888 <__alt_data_end+0xffff1e28>
        printf("OC_I2CL_Read error[3]\r\n");
   2089c:	010000b4 	movhi	r4,2
   208a0:	21128504 	addi	r4,r4,18964
   208a4:	00232080 	call	23208 <puts>
        return FALSE;
   208a8:	00001906 	br	20910 <OC_I2CL_Read+0x18c>

#if 1
    for(i=0;i<nReadLength;i++){
  // printf("\n read receive ACK-device address(read)! \n");
   //set the RD and ACK bit(bit5 and bit3)
    	IOWR( i2c_base, 4,((i+1) == nReadLength)?0x28:0x20);
   208ac:	b5800044 	addi	r22,r22,1
   208b0:	ad800b1e 	bne	r21,r22,208e0 <OC_I2CL_Read+0x15c>
   208b4:	00800a04 	movi	r2,40
   208b8:	88800035 	stwio	r2,0(r17)

        if (!ACK_judge_for_read( i2c_base) && print){
   208bc:	9009883a 	mov	r4,r18
   208c0:	002035c0 	call	2035c <ACK_judge_for_read>
   208c4:	1021883a 	mov	r16,r2
   208c8:	10000726 	beq	r2,zero,208e8 <OC_I2CL_Read+0x164>
            printf("OC_I2CL_Read error[4]\r\n");
            return FALSE;
        }
   // printf("\n read receive ACK-device address(read)! \n");

        Data32=IORD( i2c_base, 3);
   208cc:	a0800037 	ldwio	r2,0(r20)
        *(pData8+i) =  Data32 & 0xff;
   208d0:	98800005 	stb	r2,0(r19)
   208d4:	9cc00044 	addi	r19,r19,1
//   printf("\n read receive ACK-device address(read)! \n");

       //read the rxr data

#if 1
    for(i=0;i<nReadLength;i++){
   208d8:	b57ff416 	blt	r22,r21,208ac <__alt_data_end+0xffff1e4c>
   208dc:	00000706 	br	208fc <OC_I2CL_Read+0x178>
  // printf("\n read receive ACK-device address(read)! \n");
   //set the RD and ACK bit(bit5 and bit3)
    	IOWR( i2c_base, 4,((i+1) == nReadLength)?0x28:0x20);
   208e0:	00800804 	movi	r2,32
   208e4:	003ff406 	br	208b8 <__alt_data_end+0xffff1e58>

        if (!ACK_judge_for_read( i2c_base) && print){
   208e8:	d0a07217 	ldw	r2,-32312(gp)
   208ec:	103ff726 	beq	r2,zero,208cc <__alt_data_end+0xffff1e6c>
            printf("OC_I2CL_Read error[4]\r\n");
   208f0:	010000b4 	movhi	r4,2
   208f4:	21128b04 	addi	r4,r4,18988
   208f8:	003fea06 	br	208a4 <__alt_data_end+0xffff1e44>
#define TRUE 1
#define FALSE 0

bool Write32_Data(alt_32 base_address, alt_32 offset_address, alt_32 Data){
	bool bPass;
    IOWR(base_address, offset_address,Data);
   208fc:	00801004 	movi	r2,64
   20900:	88800035 	stwio	r2,0(r17)

   if (!Write32_Data( i2c_base, 4,0x40))
       return FALSE;

   //OS_msleep(1);
    usleep(SLEEP_TIME);
   20904:	01003e84 	movi	r4,250
   20908:	00246780 	call	24678 <usleep>

   return TRUE;
   2090c:	04000044 	movi	r16,1

}
   20910:	8005883a 	mov	r2,r16
   20914:	dfc00917 	ldw	ra,36(sp)
   20918:	df000817 	ldw	fp,32(sp)
   2091c:	ddc00717 	ldw	r23,28(sp)
   20920:	dd800617 	ldw	r22,24(sp)
   20924:	dd400517 	ldw	r21,20(sp)
   20928:	dd000417 	ldw	r20,16(sp)
   2092c:	dcc00317 	ldw	r19,12(sp)
   20930:	dc800217 	ldw	r18,8(sp)
   20934:	dc400117 	ldw	r17,4(sp)
   20938:	dc000017 	ldw	r16,0(sp)
   2093c:	dec00a04 	addi	sp,sp,40
   20940:	f800283a 	ret

00020944 <auto_gain>:
#include "auto.h"

void auto_gain(int target, int epsilon){
   20944:	defffa04 	addi	sp,sp,-24
   20948:	dc800215 	stw	r18,8(sp)
   2094c:	2025883a 	mov	r18,r4
	int currentgain = 0x280;
	OV8865SetGain(currentgain);
   20950:	0100a004 	movi	r4,640
#include "auto.h"

void auto_gain(int target, int epsilon){
   20954:	dfc00515 	stw	ra,20(sp)
   20958:	dd000415 	stw	r20,16(sp)
   2095c:	dcc00315 	stw	r19,12(sp)
   20960:	dc400115 	stw	r17,4(sp)
   20964:	2827883a 	mov	r19,r5
   20968:	dc000015 	stw	r16,0(sp)
	int currentgain = 0x280;
	OV8865SetGain(currentgain);
   2096c:	0021eb40 	call	21eb4 <OV8865SetGain>
	usleep(100000);
   20970:	010000b4 	movhi	r4,2
   20974:	2121a804 	addi	r4,r4,-31072
   20978:	00246780 	call	24678 <usleep>

	int value = OV8865ReadAvg();
   2097c:	00221bc0 	call	221bc <OV8865ReadAvg>
	int delta = target - value;
   20980:	90a3c83a 	sub	r17,r18,r2
#include "auto.h"

void auto_gain(int target, int epsilon){
	int currentgain = 0x280;
   20984:	0400a004 	movi	r16,640

	int value = OV8865ReadAvg();
	int delta = target - value;
	int kp = 1;

	while ( delta > epsilon || delta < -epsilon){
   20988:	04e9c83a 	sub	r20,zero,r19
   2098c:	9c40120e 	bge	r19,r17,209d8 <auto_gain+0x94>
		currentgain = currentgain + delta*kp;
   20990:	8461883a 	add	r16,r16,r17
   20994:	8000010e 	bge	r16,zero,2099c <auto_gain+0x58>
   20998:	0021883a 	mov	r16,zero
		if (currentgain < 0) currentgain = 0;
		OV8865SetGain(currentgain);
   2099c:	8009883a 	mov	r4,r16
   209a0:	0021eb40 	call	21eb4 <OV8865SetGain>
		usleep(100000);
   209a4:	010000b4 	movhi	r4,2
   209a8:	2121a804 	addi	r4,r4,-31072
   209ac:	00246780 	call	24678 <usleep>

		value = OV8865ReadAvg();
   209b0:	00221bc0 	call	221bc <OV8865ReadAvg>
		delta = target - value;
   209b4:	90a3c83a 	sub	r17,r18,r2

		if (print){
   209b8:	d0a07217 	ldw	r2,-32312(gp)
   209bc:	103ff326 	beq	r2,zero,2098c <__alt_data_end+0xffff1f2c>
			printf("Delta: %d, gain: %d\n", delta, currentgain);
   209c0:	010000b4 	movhi	r4,2
   209c4:	800d883a 	mov	r6,r16
   209c8:	880b883a 	mov	r5,r17
   209cc:	21129204 	addi	r4,r4,19016
   209d0:	00231180 	call	23118 <printf>
   209d4:	003fed06 	br	2098c <__alt_data_end+0xffff1f2c>

	int value = OV8865ReadAvg();
	int delta = target - value;
	int kp = 1;

	while ( delta > epsilon || delta < -epsilon){
   209d8:	8d3fed16 	blt	r17,r20,20990 <__alt_data_end+0xffff1f30>
		if (print){
			printf("Delta: %d, gain: %d\n", delta, currentgain);
		}
	}

}
   209dc:	dfc00517 	ldw	ra,20(sp)
   209e0:	dd000417 	ldw	r20,16(sp)
   209e4:	dcc00317 	ldw	r19,12(sp)
   209e8:	dc800217 	ldw	r18,8(sp)
   209ec:	dc400117 	ldw	r17,4(sp)
   209f0:	dc000017 	ldw	r16,0(sp)
   209f4:	dec00604 	addi	sp,sp,24
   209f8:	f800283a 	ret

000209fc <auto_wb>:

void auto_wb(int target, int epsilon){
   209fc:	defffa04 	addi	sp,sp,-24
   20a00:	dc400115 	stw	r17,4(sp)
   20a04:	2023883a 	mov	r17,r4
	int kp = 1;


	//Red Balance
	int currentgain = 0x400;
	OV8865SetRedGain(currentgain);
   20a08:	01010004 	movi	r4,1024
		}
	}

}

void auto_wb(int target, int epsilon){
   20a0c:	dfc00515 	stw	ra,20(sp)
   20a10:	dd000415 	stw	r20,16(sp)
   20a14:	dcc00315 	stw	r19,12(sp)
   20a18:	dc800215 	stw	r18,8(sp)
   20a1c:	dc000015 	stw	r16,0(sp)
   20a20:	2825883a 	mov	r18,r5
	int kp = 1;


	//Red Balance
	int currentgain = 0x400;
	OV8865SetRedGain(currentgain);
   20a24:	0021fc40 	call	21fc4 <OV8865SetRedGain>
	usleep(delay);
   20a28:	010000b4 	movhi	r4,2
   20a2c:	2121a804 	addi	r4,r4,-31072
   20a30:	00246780 	call	24678 <usleep>
	 alt_u32 value = red_average();
   20a34:	00211840 	call	21184 <red_average>
	int delta = target - value;
   20a38:	88a1c83a 	sub	r16,r17,r2
	int delay = 100000;
	int kp = 1;


	//Red Balance
	int currentgain = 0x400;
   20a3c:	05010004 	movi	r20,1024
	OV8865SetRedGain(currentgain);
	usleep(delay);
	 alt_u32 value = red_average();
	int delta = target - value;

	while ( delta > epsilon || delta < -epsilon){
   20a40:	04a7c83a 	sub	r19,zero,r18
   20a44:	9400150e 	bge	r18,r16,20a9c <auto_wb+0xa0>
		currentgain = currentgain + delta/2;
   20a48:	8004d7fa 	srli	r2,r16,31
   20a4c:	1421883a 	add	r16,r2,r16
   20a50:	8021d07a 	srai	r16,r16,1
   20a54:	8529883a 	add	r20,r16,r20
   20a58:	a000010e 	bge	r20,zero,20a60 <auto_wb+0x64>
   20a5c:	0029883a 	mov	r20,zero
		if (currentgain < 0) currentgain = 0;
		OV8865SetRedGain(currentgain);
   20a60:	a009883a 	mov	r4,r20
   20a64:	0021fc40 	call	21fc4 <OV8865SetRedGain>
		usleep(delay);
   20a68:	010000b4 	movhi	r4,2
   20a6c:	2121a804 	addi	r4,r4,-31072
   20a70:	00246780 	call	24678 <usleep>

		value = red_average();
   20a74:	00211840 	call	21184 <red_average>

		delta = target - value;
   20a78:	88a1c83a 	sub	r16,r17,r2
		if(print){
   20a7c:	d0a07217 	ldw	r2,-32312(gp)
   20a80:	103ff026 	beq	r2,zero,20a44 <__alt_data_end+0xffff1fe4>
			printf("Red Delta: %d, gain: %d\n", delta, currentgain);
   20a84:	010000b4 	movhi	r4,2
   20a88:	a00d883a 	mov	r6,r20
   20a8c:	800b883a 	mov	r5,r16
   20a90:	21129104 	addi	r4,r4,19012
   20a94:	00231180 	call	23118 <printf>
   20a98:	003fea06 	br	20a44 <__alt_data_end+0xffff1fe4>
	OV8865SetRedGain(currentgain);
	usleep(delay);
	 alt_u32 value = red_average();
	int delta = target - value;

	while ( delta > epsilon || delta < -epsilon){
   20a9c:	84ffea16 	blt	r16,r19,20a48 <__alt_data_end+0xffff1fe8>
		}
	}

	//Green Balance
	currentgain = 0x400;
	OV8865SetGreenGain(currentgain);
   20aa0:	01010004 	movi	r4,1024
   20aa4:	002206c0 	call	2206c <OV8865SetGreenGain>
	usleep(delay);
   20aa8:	010000b4 	movhi	r4,2
   20aac:	2121a804 	addi	r4,r4,-31072
   20ab0:	00246780 	call	24678 <usleep>
	value = green_average();
   20ab4:	00211240 	call	21124 <green_average>
	delta = target - value;
   20ab8:	88a1c83a 	sub	r16,r17,r2
			printf("Red Delta: %d, gain: %d\n", delta, currentgain);
		}
	}

	//Green Balance
	currentgain = 0x400;
   20abc:	05010004 	movi	r20,1024
	OV8865SetGreenGain(currentgain);
	usleep(delay);
	value = green_average();
	delta = target - value;

	while ( delta > epsilon || delta < -epsilon){
   20ac0:	9400130e 	bge	r18,r16,20b10 <auto_wb+0x114>
		currentgain = currentgain + delta/2;
   20ac4:	8004d7fa 	srli	r2,r16,31
   20ac8:	1421883a 	add	r16,r2,r16
   20acc:	8021d07a 	srai	r16,r16,1
   20ad0:	8529883a 	add	r20,r16,r20
   20ad4:	a000010e 	bge	r20,zero,20adc <auto_wb+0xe0>
   20ad8:	0029883a 	mov	r20,zero
		if (currentgain < 0) currentgain = 0;
		OV8865SetGreenGain(currentgain);
   20adc:	a009883a 	mov	r4,r20
   20ae0:	002206c0 	call	2206c <OV8865SetGreenGain>
		usleep(delay);
   20ae4:	010000b4 	movhi	r4,2
   20ae8:	2121a804 	addi	r4,r4,-31072
   20aec:	00246780 	call	24678 <usleep>

		value = green_average();
   20af0:	00211240 	call	21124 <green_average>

		delta = target - value;
   20af4:	88a1c83a 	sub	r16,r17,r2

		printf("Green Delta: %d, gain: %d\n", delta, currentgain);
   20af8:	010000b4 	movhi	r4,2
   20afc:	a00d883a 	mov	r6,r20
   20b00:	800b883a 	mov	r5,r16
   20b04:	21129804 	addi	r4,r4,19040
   20b08:	00231180 	call	23118 <printf>
   20b0c:	003fec06 	br	20ac0 <__alt_data_end+0xffff2060>
	OV8865SetGreenGain(currentgain);
	usleep(delay);
	value = green_average();
	delta = target - value;

	while ( delta > epsilon || delta < -epsilon){
   20b10:	84ffec16 	blt	r16,r19,20ac4 <__alt_data_end+0xffff2064>
		printf("Green Delta: %d, gain: %d\n", delta, currentgain);
	}

	//Blue Balance
	currentgain = 0x400;
	OV8865SetBlueGain(currentgain);
   20b14:	01010004 	movi	r4,1024
   20b18:	00221140 	call	22114 <OV8865SetBlueGain>
	usleep(delay);
   20b1c:	010000b4 	movhi	r4,2
   20b20:	2121a804 	addi	r4,r4,-31072
   20b24:	00246780 	call	24678 <usleep>
	value = blue_average();
   20b28:	00211e40 	call	211e4 <blue_average>
	delta = target - value;
   20b2c:	88a1c83a 	sub	r16,r17,r2

		printf("Green Delta: %d, gain: %d\n", delta, currentgain);
	}

	//Blue Balance
	currentgain = 0x400;
   20b30:	05010004 	movi	r20,1024
	OV8865SetBlueGain(currentgain);
	usleep(delay);
	value = blue_average();
	delta = target - value;

	while ( delta > epsilon || delta < -epsilon){
   20b34:	9400130e 	bge	r18,r16,20b84 <auto_wb+0x188>
		currentgain = currentgain + delta/2;
   20b38:	8004d7fa 	srli	r2,r16,31
   20b3c:	1421883a 	add	r16,r2,r16
   20b40:	8021d07a 	srai	r16,r16,1
   20b44:	8529883a 	add	r20,r16,r20
   20b48:	a000010e 	bge	r20,zero,20b50 <auto_wb+0x154>
   20b4c:	0029883a 	mov	r20,zero
		if (currentgain < 0) currentgain = 0;
		OV8865SetBlueGain(currentgain);
   20b50:	a009883a 	mov	r4,r20
   20b54:	00221140 	call	22114 <OV8865SetBlueGain>
		usleep(delay);
   20b58:	010000b4 	movhi	r4,2
   20b5c:	2121a804 	addi	r4,r4,-31072
   20b60:	00246780 	call	24678 <usleep>

		value = blue_average();
   20b64:	00211e40 	call	211e4 <blue_average>

		delta = target - value;
   20b68:	88a1c83a 	sub	r16,r17,r2

		printf("Blue Delta: %d, gain: %d\n", delta, currentgain);
   20b6c:	010000b4 	movhi	r4,2
   20b70:	a00d883a 	mov	r6,r20
   20b74:	800b883a 	mov	r5,r16
   20b78:	21129f04 	addi	r4,r4,19068
   20b7c:	00231180 	call	23118 <printf>
   20b80:	003fec06 	br	20b34 <__alt_data_end+0xffff20d4>
	OV8865SetBlueGain(currentgain);
	usleep(delay);
	value = blue_average();
	delta = target - value;

	while ( delta > epsilon || delta < -epsilon){
   20b84:	84ffec16 	blt	r16,r19,20b38 <__alt_data_end+0xffff20d8>
		delta = target - value;

		printf("Blue Delta: %d, gain: %d\n", delta, currentgain);
		}

}
   20b88:	dfc00517 	ldw	ra,20(sp)
   20b8c:	dd000417 	ldw	r20,16(sp)
   20b90:	dcc00317 	ldw	r19,12(sp)
   20b94:	dc800217 	ldw	r18,8(sp)
   20b98:	dc400117 	ldw	r17,4(sp)
   20b9c:	dc000017 	ldw	r16,0(sp)
   20ba0:	dec00604 	addi	sp,sp,24
   20ba4:	f800283a 	ret

00020ba8 <Focus_Init>:
// please observe focus performance when change the scal ,scal_f. or when change camera frame rate
alt_u8  focus_scal   =   4;  // scan 0 -> 1023 , step: SCAL , to find STEP_UP
alt_u8  focus_scal_f =   1;  //  scan STEP_UP + - SCAL/2 , step: SCAL_F
alt_u8  focus_th     =   20;

void Focus_Init(void){
   20ba8:	defffd04 	addi	sp,sp,-12
  // please look at TERASIC_AUTO_FOCUS IP to see register's detail.
  IOWR(TERASIC_AUTO_FOCUS_0_BASE,REG_CTRL, 0);// focus mode : 1: window-screen, 0: full-screen
   20bac:	008000f4 	movhi	r2,3
// please observe focus performance when change the scal ,scal_f. or when change camera frame rate
alt_u8  focus_scal   =   4;  // scan 0 -> 1023 , step: SCAL , to find STEP_UP
alt_u8  focus_scal_f =   1;  //  scan STEP_UP + - SCAL/2 , step: SCAL_F
alt_u8  focus_th     =   20;

void Focus_Init(void){
   20bb0:	dc400115 	stw	r17,4(sp)
   20bb4:	dfc00215 	stw	ra,8(sp)
   20bb8:	dc000015 	stw	r16,0(sp)
  // please look at TERASIC_AUTO_FOCUS IP to see register's detail.
  IOWR(TERASIC_AUTO_FOCUS_0_BASE,REG_CTRL, 0);// focus mode : 1: window-screen, 0: full-screen
   20bbc:	0023883a 	mov	r17,zero
   20bc0:	1088a104 	addi	r2,r2,8836
   20bc4:	14400035 	stwio	r17,0(r2)
  IOWR(TERASIC_AUTO_FOCUS_0_BASE,REG_FOCUS_W, focus_width);// focus_width
   20bc8:	d0e0018b 	ldhu	r3,-32762(gp)
   20bcc:	008000f4 	movhi	r2,3
   20bd0:	1088a204 	addi	r2,r2,8840
   20bd4:	10c00035 	stwio	r3,0(r2)
  IOWR(TERASIC_AUTO_FOCUS_0_BASE,REG_FOCUS_H, focus_height);// focus_height
   20bd8:	d0e0010b 	ldhu	r3,-32764(gp)
   20bdc:	008000f4 	movhi	r2,3
   20be0:	1088a304 	addi	r2,r2,8844
   20be4:	10c00035 	stwio	r3,0(r2)
  IOWR(TERASIC_AUTO_FOCUS_0_BASE,REG_FOCUS_X_START, video_w/2-focus_width/2);//x_start
   20be8:	d0a0028b 	ldhu	r2,-32758(gp)
   20bec:	1006d07a 	srli	r3,r2,1
   20bf0:	d0a0018b 	ldhu	r2,-32762(gp)
   20bf4:	1004d07a 	srli	r2,r2,1
   20bf8:	1885c83a 	sub	r2,r3,r2
   20bfc:	00c000f4 	movhi	r3,3
   20c00:	18c8a404 	addi	r3,r3,8848
   20c04:	18800035 	stwio	r2,0(r3)
  IOWR(TERASIC_AUTO_FOCUS_0_BASE,REG_FOCUS_Y_START, video_h/2-focus_height/2);// y_start
   20c08:	d0a0020b 	ldhu	r2,-32760(gp)
   20c0c:	1006d07a 	srli	r3,r2,1
   20c10:	d0a0010b 	ldhu	r2,-32764(gp)
   20c14:	1004d07a 	srli	r2,r2,1
   20c18:	1885c83a 	sub	r2,r3,r2
   20c1c:	00c000f4 	movhi	r3,3
   20c20:	18c8a504 	addi	r3,r3,8852
   20c24:	18800035 	stwio	r2,0(r3)

  IOWR(TERASIC_AUTO_FOCUS_0_BASE,REG_SCAL, focus_scal*256 + focus_scal_f); // scan 0 -> 1023 , step: SCAL , to find STEP_UP
   20c28:	d0a00083 	ldbu	r2,-32766(gp)
   20c2c:	1006923a 	slli	r3,r2,8
   20c30:	d0a00043 	ldbu	r2,-32767(gp)
   20c34:	1885883a 	add	r2,r3,r2
   20c38:	00c000f4 	movhi	r3,3
   20c3c:	18c8a604 	addi	r3,r3,8856
   20c40:	18800035 	stwio	r2,0(r3)
                                                                          //  scan STEP_UP + - SCAL/2 , step: SCAL_F
  IOWR(TERASIC_AUTO_FOCUS_0_BASE,REG_TH, focus_th);
   20c44:	d0e00003 	ldbu	r3,-32768(gp)
   20c48:	008000f4 	movhi	r2,3
   20c4c:	1088a704 	addi	r2,r2,8860
   20c50:	10c00035 	stwio	r3,0(r2)

  //////////// focus at initial time
  usleep(100);
   20c54:	01001904 	movi	r4,100
   20c58:	00246780 	call	24678 <usleep>
  IOWR(TERASIC_AUTO_FOCUS_0_BASE,REG_GO, 1);
   20c5c:	040000f4 	movhi	r16,3
   20c60:	8408a004 	addi	r16,r16,8832
   20c64:	00800044 	movi	r2,1
   20c68:	80800035 	stwio	r2,0(r16)
  usleep(2);
   20c6c:	01000084 	movi	r4,2
   20c70:	00246780 	call	24678 <usleep>
  IOWR(TERASIC_AUTO_FOCUS_0_BASE,REG_GO, 0);
   20c74:	84400035 	stwio	r17,0(r16)
}
   20c78:	dfc00217 	ldw	ra,8(sp)
   20c7c:	dc400117 	ldw	r17,4(sp)
   20c80:	dc000017 	ldw	r16,0(sp)
   20c84:	dec00304 	addi	sp,sp,12
   20c88:	f800283a 	ret

00020c8c <Focus_Released>:

int Focus_Released(void){
  int Released = FALSE;
  alt_u32 TimeOut;

  TimeOut = alt_nticks() + alt_ticks_per_second()*8;
   20c8c:	d0a07f17 	ldw	r2,-32260(gp)
 * alt_nticks() returns the elapsed number of system clock ticks since reset.
 */

static ALT_INLINE alt_u32 ALT_ALWAYS_INLINE alt_nticks (void)
{
  return _alt_nticks;
   20c90:	d0e07e17 	ldw	r3,-32264(gp)
   }
   return end_focus;

}

int Focus_Released(void){
   20c94:	defffe04 	addi	sp,sp,-8
  int Released = FALSE;
  alt_u32 TimeOut;

  TimeOut = alt_nticks() + alt_ticks_per_second()*8;
   20c98:	100490fa 	slli	r2,r2,3

  while((IORD(TERASIC_AUTO_FOCUS_0_BASE,REG_STATUS)&0x8000) ==0 && alt_nticks() < TimeOut ); // waiting for VCM release I2C bus
   20c9c:	010000f4 	movhi	r4,3
   }
   return end_focus;

}

int Focus_Released(void){
   20ca0:	dfc00115 	stw	ra,4(sp)
   20ca4:	dc000015 	stw	r16,0(sp)
  int Released = FALSE;
  alt_u32 TimeOut;

  TimeOut = alt_nticks() + alt_ticks_per_second()*8;
   20ca8:	10c5883a 	add	r2,r2,r3

  while((IORD(TERASIC_AUTO_FOCUS_0_BASE,REG_STATUS)&0x8000) ==0 && alt_nticks() < TimeOut ); // waiting for VCM release I2C bus
   20cac:	2108a004 	addi	r4,r4,8832
   20cb0:	20c00037 	ldwio	r3,0(r4)
   20cb4:	18e0000c 	andi	r3,r3,32768
   20cb8:	1800021e 	bne	r3,zero,20cc4 <Focus_Released+0x38>
   20cbc:	d0e07e17 	ldw	r3,-32264(gp)
   20cc0:	18bffb36 	bltu	r3,r2,20cb0 <__alt_data_end+0xffff2250>
   20cc4:	d0e07e17 	ldw	r3,-32264(gp)

  if(alt_nticks() < TimeOut ) Released = TRUE;
   20cc8:	18800636 	bltu	r3,r2,20ce4 <Focus_Released+0x58>
  else if (print) printf("\n =>Released check TimeOut!\n");
   20ccc:	d0a07217 	ldw	r2,-32312(gp)
   20cd0:	10000626 	beq	r2,zero,20cec <Focus_Released+0x60>
   20cd4:	010000b4 	movhi	r4,2
   20cd8:	2112a604 	addi	r4,r4,19096
   20cdc:	00232080 	call	23208 <puts>
   20ce0:	00000206 	br	20cec <Focus_Released+0x60>

  TimeOut = alt_nticks() + alt_ticks_per_second()*8;

  while((IORD(TERASIC_AUTO_FOCUS_0_BASE,REG_STATUS)&0x8000) ==0 && alt_nticks() < TimeOut ); // waiting for VCM release I2C bus

  if(alt_nticks() < TimeOut ) Released = TRUE;
   20ce4:	04000044 	movi	r16,1
   20ce8:	00000106 	br	20cf0 <Focus_Released+0x64>
   return end_focus;

}

int Focus_Released(void){
  int Released = FALSE;
   20cec:	0021883a 	mov	r16,zero
  while((IORD(TERASIC_AUTO_FOCUS_0_BASE,REG_STATUS)&0x8000) ==0 && alt_nticks() < TimeOut ); // waiting for VCM release I2C bus

  if(alt_nticks() < TimeOut ) Released = TRUE;
  else if (print) printf("\n =>Released check TimeOut!\n");

  usleep(10000);
   20cf0:	0109c404 	movi	r4,10000
   20cf4:	00246780 	call	24678 <usleep>

  return Released;
}
   20cf8:	8005883a 	mov	r2,r16
   20cfc:	dfc00117 	ldw	ra,4(sp)
   20d00:	dc000017 	ldw	r16,0(sp)
   20d04:	dec00204 	addi	sp,sp,8
   20d08:	f800283a 	ret

00020d0c <Focus_Window>:
  IOWR(TERASIC_AUTO_FOCUS_0_BASE,REG_GO, 1);
  usleep(2);
  IOWR(TERASIC_AUTO_FOCUS_0_BASE,REG_GO, 0);
}

alt_u16 Focus_Window(int x,int y){
   20d0c:	defffd04 	addi	sp,sp,-12
   20d10:	dc400115 	stw	r17,4(sp)
   20d14:	dc000015 	stw	r16,0(sp)
   20d18:	dfc00215 	stw	ra,8(sp)
   20d1c:	2023883a 	mov	r17,r4
   20d20:	2821883a 	mov	r16,r5
   alt_u16 x_start,y_start;
   alt_u16 end_focus;

   if(Focus_Released()) { // pre focus done
   20d24:	0020c8c0 	call	20c8c <Focus_Released>
   20d28:	10004626 	beq	r2,zero,20e44 <Focus_Window+0x138>
	   IOWR(TERASIC_AUTO_FOCUS_0_BASE,REG_CTRL, 1);// focus mode : 1: window-screen, 0: full-screen
   20d2c:	008000f4 	movhi	r2,3
   20d30:	1088a104 	addi	r2,r2,8836
   20d34:	00c00044 	movi	r3,1
   20d38:	10c00035 	stwio	r3,0(r2)

	   if(( x -  focus_width/2) < 0 ) x_start = 0;
   20d3c:	d120018b 	ldhu	r4,-32762(gp)
   20d40:	20bfffcc 	andi	r2,r4,65535
   20d44:	10c4d83a 	srl	r2,r2,r3
   20d48:	117fffcc 	andi	r5,r2,65535
   20d4c:	8947c83a 	sub	r3,r17,r5
   20d50:	18000916 	blt	r3,zero,20d78 <Focus_Window+0x6c>
	   else if(( x + focus_width/2 ) > video_w )  x_start = video_w -1 -focus_width;
   20d54:	d0e0028b 	ldhu	r3,-32758(gp)
   20d58:	2c4b883a 	add	r5,r5,r17
   20d5c:	19bfffcc 	andi	r6,r3,65535
   20d60:	3140030e 	bge	r6,r5,20d70 <Focus_Window+0x64>
   20d64:	18ffffc4 	addi	r3,r3,-1
   20d68:	1923c83a 	sub	r17,r3,r4
   20d6c:	00000306 	br	20d7c <Focus_Window+0x70>
	   else x_start = x - focus_width/2;
   20d70:	88a3c83a 	sub	r17,r17,r2
   20d74:	00000106 	br	20d7c <Focus_Window+0x70>
   alt_u16 end_focus;

   if(Focus_Released()) { // pre focus done
	   IOWR(TERASIC_AUTO_FOCUS_0_BASE,REG_CTRL, 1);// focus mode : 1: window-screen, 0: full-screen

	   if(( x -  focus_width/2) < 0 ) x_start = 0;
   20d78:	0023883a 	mov	r17,zero
	   else if(( x + focus_width/2 ) > video_w )  x_start = video_w -1 -focus_width;
	   else x_start = x - focus_width/2;

	   if(( y -  focus_height/2) < 0 ) y_start = 0;
   20d7c:	d160010b 	ldhu	r5,-32764(gp)
   20d80:	28bfffcc 	andi	r2,r5,65535
   20d84:	1004d07a 	srli	r2,r2,1
   20d88:	113fffcc 	andi	r4,r2,65535
   20d8c:	8107c83a 	sub	r3,r16,r4
   20d90:	18000916 	blt	r3,zero,20db8 <Focus_Window+0xac>
	   else if(( y + focus_height/2 ) > video_h )  y_start = video_h -1 -focus_height;
   20d94:	d0e0020b 	ldhu	r3,-32760(gp)
   20d98:	2409883a 	add	r4,r4,r16
   20d9c:	19bfffcc 	andi	r6,r3,65535
   20da0:	3100030e 	bge	r6,r4,20db0 <Focus_Window+0xa4>
   20da4:	18ffffc4 	addi	r3,r3,-1
   20da8:	1961c83a 	sub	r16,r3,r5
   20dac:	00000306 	br	20dbc <Focus_Window+0xb0>
	   else y_start = y - focus_height/2;
   20db0:	80a1c83a 	sub	r16,r16,r2
   20db4:	00000106 	br	20dbc <Focus_Window+0xb0>

	   if(( x -  focus_width/2) < 0 ) x_start = 0;
	   else if(( x + focus_width/2 ) > video_w )  x_start = video_w -1 -focus_width;
	   else x_start = x - focus_width/2;

	   if(( y -  focus_height/2) < 0 ) y_start = 0;
   20db8:	0021883a 	mov	r16,zero
	   else if(( y + focus_height/2 ) > video_h )  y_start = video_h -1 -focus_height;
	   else y_start = y - focus_height/2;
	   if (print){
   20dbc:	d0a07217 	ldw	r2,-32312(gp)
   20dc0:	843fffcc 	andi	r16,r16,65535
   20dc4:	8c7fffcc 	andi	r17,r17,65535
   20dc8:	10000526 	beq	r2,zero,20de0 <Focus_Window+0xd4>
		   printf("x_start= %d,y_start= %d\n",x_start,y_start);
   20dcc:	010000b4 	movhi	r4,2
   20dd0:	800d883a 	mov	r6,r16
   20dd4:	880b883a 	mov	r5,r17
   20dd8:	2112ae04 	addi	r4,r4,19128
   20ddc:	00231180 	call	23118 <printf>
	   }

	   IOWR(TERASIC_AUTO_FOCUS_0_BASE,REG_FOCUS_X_START, x_start);//x_start
   20de0:	008000f4 	movhi	r2,3
   20de4:	1088a404 	addi	r2,r2,8848
   20de8:	14400035 	stwio	r17,0(r2)
	   IOWR(TERASIC_AUTO_FOCUS_0_BASE,REG_FOCUS_Y_START, y_start);//y_start
   20dec:	008000f4 	movhi	r2,3
   20df0:	1088a504 	addi	r2,r2,8852
   20df4:	14000035 	stwio	r16,0(r2)

	   usleep(10);
   20df8:	01000284 	movi	r4,10
   20dfc:	00246780 	call	24678 <usleep>

	   IOWR(TERASIC_AUTO_FOCUS_0_BASE,REG_GO, 1);
   20e00:	040000f4 	movhi	r16,3
   20e04:	8408a004 	addi	r16,r16,8832
   20e08:	00800044 	movi	r2,1
   20e0c:	80800035 	stwio	r2,0(r16)
	   usleep(2);
   20e10:	01000084 	movi	r4,2
   20e14:	00246780 	call	24678 <usleep>
	   IOWR(TERASIC_AUTO_FOCUS_0_BASE,REG_GO, 0);
   20e18:	80000035 	stwio	zero,0(r16)
	   Focus_Released();
   20e1c:	0020c8c0 	call	20c8c <Focus_Released>

	   end_focus = IORD(TERASIC_AUTO_FOCUS_0_BASE,REG_STATUS)&0x0FFF;
   20e20:	84000037 	ldwio	r16,0(r16)
	   if(print){
   20e24:	d0a07217 	ldw	r2,-32312(gp)
	   IOWR(TERASIC_AUTO_FOCUS_0_BASE,REG_GO, 1);
	   usleep(2);
	   IOWR(TERASIC_AUTO_FOCUS_0_BASE,REG_GO, 0);
	   Focus_Released();

	   end_focus = IORD(TERASIC_AUTO_FOCUS_0_BASE,REG_STATUS)&0x0FFF;
   20e28:	8403ffcc 	andi	r16,r16,4095
	   if(print){
   20e2c:	10000726 	beq	r2,zero,20e4c <Focus_Window+0x140>
		   printf("end_focus = %d \n",end_focus);
   20e30:	010000b4 	movhi	r4,2
   20e34:	800b883a 	mov	r5,r16
   20e38:	2112b504 	addi	r4,r4,19156
   20e3c:	00231180 	call	23118 <printf>
   20e40:	00000206 	br	20e4c <Focus_Window+0x140>
	   }

	   return end_focus;

   }
   return end_focus;
   20e44:	0005883a 	mov	r2,zero
   20e48:	00000106 	br	20e50 <Focus_Window+0x144>
	   end_focus = IORD(TERASIC_AUTO_FOCUS_0_BASE,REG_STATUS)&0x0FFF;
	   if(print){
		   printf("end_focus = %d \n",end_focus);
	   }

	   return end_focus;
   20e4c:	8005883a 	mov	r2,r16

   }
   return end_focus;

}
   20e50:	dfc00217 	ldw	ra,8(sp)
   20e54:	dc400117 	ldw	r17,4(sp)
   20e58:	dc000017 	ldw	r16,0(sp)
   20e5c:	dec00304 	addi	sp,sp,12
   20e60:	f800283a 	ret

00020e64 <fir_load_unit>:
#include "filters_buffers.h"

void fir_load_unit(int base){
   20e64:	20800704 	addi	r2,r4,28
   20e68:	20c01004 	addi	r3,r4,64
	//Clear filter coefficients
	for (int i = 7; i < 7+9; i++){
		IOWR(base, i, 0);
   20e6c:	10000035 	stwio	zero,0(r2)
   20e70:	10800104 	addi	r2,r2,4
#include "filters_buffers.h"

void fir_load_unit(int base){
	//Clear filter coefficients
	for (int i = 7; i < 7+9; i++){
   20e74:	10fffd1e 	bne	r2,r3,20e6c <__alt_data_end+0xffff240c>
		IOWR(base, i, 0);
	}
	IOWR(base, 11, 128);
   20e78:	00802004 	movi	r2,128
   20e7c:	20800b35 	stwio	r2,44(r4)
	IOWR(base, 6, 1);
   20e80:	00800044 	movi	r2,1
   20e84:	20800635 	stwio	r2,24(r4)
	IOWR(base, 0, 1);
   20e88:	20800035 	stwio	r2,0(r4)
   20e8c:	f800283a 	ret

00020e90 <fir_load_avg>:
}

void fir_load_avg(int base){
   20e90:	20800704 	addi	r2,r4,28
   20e94:	20c01004 	addi	r3,r4,64
	for (int i = 7; i < 7+9; i++){
		IOWR(base, i, 14);
   20e98:	01400384 	movi	r5,14
   20e9c:	11400035 	stwio	r5,0(r2)
   20ea0:	10800104 	addi	r2,r2,4
	IOWR(base, 6, 1);
	IOWR(base, 0, 1);
}

void fir_load_avg(int base){
	for (int i = 7; i < 7+9; i++){
   20ea4:	10fffd1e 	bne	r2,r3,20e9c <__alt_data_end+0xffff243c>
		IOWR(base, i, 14);
	}
	IOWR(base, 6, 1);
   20ea8:	00800044 	movi	r2,1
   20eac:	20800635 	stwio	r2,24(r4)
	IOWR(base, 0, 1);
   20eb0:	20800035 	stwio	r2,0(r4)
   20eb4:	f800283a 	ret

00020eb8 <fir_load_sobel>:
}


void fir_load_sobel(int base){
	IOWR(base, 7, -128);
   20eb8:	017fe004 	movi	r5,-128
   20ebc:	21400735 	stwio	r5,28(r4)
	IOWR(base, 8, 0);
   20ec0:	0007883a 	mov	r3,zero
   20ec4:	20c00835 	stwio	r3,32(r4)
	IOWR(base, 9, 128);
   20ec8:	00802004 	movi	r2,128
   20ecc:	20800935 	stwio	r2,36(r4)
	IOWR(base, 10, -128);
   20ed0:	21400a35 	stwio	r5,40(r4)
	IOWR(base, 11, 0);
   20ed4:	20c00b35 	stwio	r3,44(r4)
	IOWR(base, 12, 128);
   20ed8:	20800c35 	stwio	r2,48(r4)
	IOWR(base, 13, -128);
   20edc:	21400d35 	stwio	r5,52(r4)
	IOWR(base, 14, 0);
   20ee0:	20c00e35 	stwio	r3,56(r4)
	IOWR(base, 15, 128);
   20ee4:	20800f35 	stwio	r2,60(r4)

	IOWR(base, 6, 1);
   20ee8:	00800044 	movi	r2,1
   20eec:	20800635 	stwio	r2,24(r4)
	IOWR(base, 0, 1);
   20ef0:	20800035 	stwio	r2,0(r4)
   20ef4:	f800283a 	ret

00020ef8 <fir_load_inv_sobel>:

}

void fir_load_inv_sobel(int base){
	IOWR(base, 7, 128);
   20ef8:	01402004 	movi	r5,128
   20efc:	21400735 	stwio	r5,28(r4)
	IOWR(base, 8, 0);
   20f00:	0007883a 	mov	r3,zero
   20f04:	20c00835 	stwio	r3,32(r4)
	IOWR(base, 9, -128);
   20f08:	00bfe004 	movi	r2,-128
   20f0c:	20800935 	stwio	r2,36(r4)
	IOWR(base, 10, 128);
   20f10:	21400a35 	stwio	r5,40(r4)
	IOWR(base, 11, 0);
   20f14:	20c00b35 	stwio	r3,44(r4)
	IOWR(base, 12, -128);
   20f18:	20800c35 	stwio	r2,48(r4)
	IOWR(base, 13, 128);
   20f1c:	21400d35 	stwio	r5,52(r4)
	IOWR(base, 14, 0);
   20f20:	20c00e35 	stwio	r3,56(r4)
	IOWR(base, 15, -128);
   20f24:	20800f35 	stwio	r2,60(r4)

	IOWR(base, 6, 1);
   20f28:	00800044 	movi	r2,1
   20f2c:	20800635 	stwio	r2,24(r4)
	IOWR(base, 0, 1);
   20f30:	20800035 	stwio	r2,0(r4)
   20f34:	f800283a 	ret

00020f38 <fir_load_vertical>:

}

void fir_load_vertical(int base){
	IOWR(base, 7, 0);
   20f38:	0005883a 	mov	r2,zero
   20f3c:	20800735 	stwio	r2,28(r4)
	IOWR(base, 8, 1);
   20f40:	00c00044 	movi	r3,1
   20f44:	20c00835 	stwio	r3,32(r4)
	IOWR(base, 9, 0);
   20f48:	20800935 	stwio	r2,36(r4)
	IOWR(base, 10, 0);
   20f4c:	20800a35 	stwio	r2,40(r4)
	IOWR(base, 11, 1);
   20f50:	20c00b35 	stwio	r3,44(r4)
	IOWR(base, 12, 0);
   20f54:	20800c35 	stwio	r2,48(r4)
	IOWR(base, 13, 0);
   20f58:	20800d35 	stwio	r2,52(r4)
	IOWR(base, 14, 1);
   20f5c:	20c00e35 	stwio	r3,56(r4)
	IOWR(base, 15, 0);
   20f60:	20800f35 	stwio	r2,60(r4)

	IOWR(base, 6, 1);
   20f64:	20c00635 	stwio	r3,24(r4)
	IOWR(base, 0, 1);
   20f68:	20c00035 	stwio	r3,0(r4)
   20f6c:	f800283a 	ret

00020f70 <print_image>:

};


void print_image(){
   20f70:	defffa04 	addi	sp,sp,-24
   20f74:	dfc00515 	stw	ra,20(sp)
   20f78:	dd000415 	stw	r20,16(sp)
   20f7c:	dcc00315 	stw	r19,12(sp)
   20f80:	dc800215 	stw	r18,8(sp)
   20f84:	dc400115 	stw	r17,4(sp)
   20f88:	dc000015 	stw	r16,0(sp)
	IOWR(PIXEL_BUFFER_0_BASE, 5000, 1);
   20f8c:	00938804 	movi	r2,20000
   20f90:	00c00044 	movi	r3,1
   20f94:	10c00035 	stwio	r3,0(r2)
	usleep(10);
   20f98:	01000284 	movi	r4,10
   20f9c:	00246780 	call	24678 <usleep>

	int count = 0;

	for(int y = 0; y <60; y++){
   20fa0:	0023883a 	mov	r17,zero

void print_image(){
	IOWR(PIXEL_BUFFER_0_BASE, 5000, 1);
	usleep(10);

	int count = 0;
   20fa4:	0029883a 	mov	r20,zero
	for(int y = 0; y <60; y++){
		for (int x = 0; x < 80; x++){
			alt_u32 pixel =(IORD(PIXEL_BUFFER_0_BASE, 64*x + y));
			alt_u8 chr = (alt_u8) ((pixel)& 0x000000ff);

			if (chr == '\n') chr--;
   20fa8:	04800284 	movi	r18,10
			if(chr == ',') chr--;
   20fac:	04c00b04 	movi	r19,44
	IOWR(base, 0, 1);

};


void print_image(){
   20fb0:	0021883a 	mov	r16,zero

	int count = 0;

	for(int y = 0; y <60; y++){
		for (int x = 0; x < 80; x++){
			alt_u32 pixel =(IORD(PIXEL_BUFFER_0_BASE, 64*x + y));
   20fb4:	800491ba 	slli	r2,r16,6
   20fb8:	1445883a 	add	r2,r2,r17
   20fbc:	1085883a 	add	r2,r2,r2
   20fc0:	1085883a 	add	r2,r2,r2
   20fc4:	10800037 	ldwio	r2,0(r2)
			alt_u8 chr = (alt_u8) ((pixel)& 0x000000ff);
   20fc8:	1009883a 	mov	r4,r2

			if (chr == '\n') chr--;
   20fcc:	10803fcc 	andi	r2,r2,255
   20fd0:	14800326 	beq	r2,r18,20fe0 <print_image+0x70>
			if(chr == ',') chr--;
   20fd4:	14c0031e 	bne	r2,r19,20fe4 <print_image+0x74>
   20fd8:	01000ac4 	movi	r4,43
   20fdc:	00000106 	br	20fe4 <print_image+0x74>
	for(int y = 0; y <60; y++){
		for (int x = 0; x < 80; x++){
			alt_u32 pixel =(IORD(PIXEL_BUFFER_0_BASE, 64*x + y));
			alt_u8 chr = (alt_u8) ((pixel)& 0x000000ff);

			if (chr == '\n') chr--;
   20fe0:	01000244 	movi	r4,9
			if(chr == ',') chr--;

			alt_putchar(chr);
   20fe4:	21003fcc 	andi	r4,r4,255
   20fe8:	00244f80 	call	244f8 <alt_putchar>

			count++;
   20fec:	a5000044 	addi	r20,r20,1
			if (count == 60) {
   20ff0:	00800f04 	movi	r2,60
   20ff4:	a0800f1e 	bne	r20,r2,21034 <print_image+0xc4>
				count = 0;
				if (y >= 59 && x >= 79){
   20ff8:	00800ec4 	movi	r2,59
   20ffc:	8880041e 	bne	r17,r2,21010 <print_image+0xa0>
   21000:	008013c4 	movi	r2,79
   21004:	8080021e 	bne	r16,r2,21010 <print_image+0xa0>
					alt_putchar('\n');
   21008:	01000284 	movi	r4,10
   2100c:	00000106 	br	21014 <print_image+0xa4>
					} else {
						alt_putchar(',');
   21010:	01000b04 	movi	r4,44
   21014:	00244f80 	call	244f8 <alt_putchar>
					}
				while(alt_getchar() != 'A'){
   21018:	05001044 	movi	r20,65
   2101c:	00242380 	call	24238 <alt_getchar>
   21020:	15000326 	beq	r2,r20,21030 <print_image+0xc0>
						usleep(1);
   21024:	01000044 	movi	r4,1
   21028:	00246780 	call	24678 <usleep>
   2102c:	003ffb06 	br	2101c <__alt_data_end+0xffff25bc>

			alt_putchar(chr);

			count++;
			if (count == 60) {
				count = 0;
   21030:	0029883a 	mov	r20,zero
	usleep(10);

	int count = 0;

	for(int y = 0; y <60; y++){
		for (int x = 0; x < 80; x++){
   21034:	84000044 	addi	r16,r16,1
   21038:	00801404 	movi	r2,80
   2103c:	80bfdd1e 	bne	r16,r2,20fb4 <__alt_data_end+0xffff2554>
	IOWR(PIXEL_BUFFER_0_BASE, 5000, 1);
	usleep(10);

	int count = 0;

	for(int y = 0; y <60; y++){
   21040:	8c400044 	addi	r17,r17,1
   21044:	00800f04 	movi	r2,60
   21048:	88bfd91e 	bne	r17,r2,20fb0 <__alt_data_end+0xffff2550>
					}
			}
		}
	}

	IOWR(PIXEL_BUFFER_0_BASE, 5000, 0);
   2104c:	00938804 	movi	r2,20000
   21050:	10000035 	stwio	zero,0(r2)

	return;
}
   21054:	dfc00517 	ldw	ra,20(sp)
   21058:	dd000417 	ldw	r20,16(sp)
   2105c:	dcc00317 	ldw	r19,12(sp)
   21060:	dc800217 	ldw	r18,8(sp)
   21064:	dc400117 	ldw	r17,4(sp)
   21068:	dc000017 	ldw	r16,0(sp)
   2106c:	dec00604 	addi	sp,sp,24
   21070:	f800283a 	ret

00021074 <print_wb_buffer>:

void print_wb_buffer(){
   21074:	defff804 	addi	sp,sp,-32
   21078:	dc000015 	stw	r16,0(sp)
	IOWR(PIXEL_BUFFER_WB_0_BASE, 5000, 1);
   2107c:	040000f4 	movhi	r16,3
	IOWR(PIXEL_BUFFER_0_BASE, 5000, 0);

	return;
}

void print_wb_buffer(){
   21080:	dfc00715 	stw	ra,28(sp)
   21084:	dd800615 	stw	r22,24(sp)
   21088:	dd400515 	stw	r21,20(sp)
   2108c:	dd000415 	stw	r20,16(sp)
   21090:	dcc00315 	stw	r19,12(sp)
   21094:	dc800215 	stw	r18,8(sp)
   21098:	dc400115 	stw	r17,4(sp)
	IOWR(PIXEL_BUFFER_WB_0_BASE, 5000, 1);
   2109c:	84158804 	addi	r16,r16,22048
   210a0:	00800044 	movi	r2,1
   210a4:	80800035 	stwio	r2,0(r16)
		usleep(10);
   210a8:	01000284 	movi	r4,10

		for(int y = 0; y <15; y++){
			for (int x = 0; x < 20; x++){
				alt_u32 pixel =(IORD(PIXEL_BUFFER_WB_0_BASE, 16*x + y));
   210ac:	050000f4 	movhi	r20,3
	return;
}

void print_wb_buffer(){
	IOWR(PIXEL_BUFFER_WB_0_BASE, 5000, 1);
		usleep(10);
   210b0:	00246780 	call	24678 <usleep>
   210b4:	0023883a 	mov	r17,zero

		for(int y = 0; y <15; y++){
			for (int x = 0; x < 20; x++){
				alt_u32 pixel =(IORD(PIXEL_BUFFER_WB_0_BASE, 16*x + y));
   210b8:	a5020004 	addi	r20,r20,2048
void print_wb_buffer(){
	IOWR(PIXEL_BUFFER_WB_0_BASE, 5000, 1);
		usleep(10);

		for(int y = 0; y <15; y++){
			for (int x = 0; x < 20; x++){
   210bc:	05414004 	movi	r21,1280

void print_wb_buffer(){
	IOWR(PIXEL_BUFFER_WB_0_BASE, 5000, 1);
		usleep(10);

		for(int y = 0; y <15; y++){
   210c0:	05800f04 	movi	r22,60
	IOWR(PIXEL_BUFFER_0_BASE, 5000, 0);

	return;
}

void print_wb_buffer(){
   210c4:	0025883a 	mov	r18,zero
	IOWR(PIXEL_BUFFER_WB_0_BASE, 5000, 1);
		usleep(10);

		for(int y = 0; y <15; y++){
			for (int x = 0; x < 20; x++){
				alt_u32 pixel =(IORD(PIXEL_BUFFER_WB_0_BASE, 16*x + y));
   210c8:	8d27883a 	add	r19,r17,r20
   210cc:	9c85883a 	add	r2,r19,r18
				printf("%x,", pixel);
   210d0:	11400037 	ldwio	r5,0(r2)
   210d4:	010000b4 	movhi	r4,2
   210d8:	2112ba04 	addi	r4,r4,19176
   210dc:	94801004 	addi	r18,r18,64
   210e0:	00231180 	call	23118 <printf>
void print_wb_buffer(){
	IOWR(PIXEL_BUFFER_WB_0_BASE, 5000, 1);
		usleep(10);

		for(int y = 0; y <15; y++){
			for (int x = 0; x < 20; x++){
   210e4:	957ff91e 	bne	r18,r21,210cc <__alt_data_end+0xffff266c>
				alt_u32 pixel =(IORD(PIXEL_BUFFER_WB_0_BASE, 16*x + y));
				printf("%x,", pixel);
			}

			alt_putchar('\n');
   210e8:	01000284 	movi	r4,10
   210ec:	8c400104 	addi	r17,r17,4
   210f0:	00244f80 	call	244f8 <alt_putchar>

void print_wb_buffer(){
	IOWR(PIXEL_BUFFER_WB_0_BASE, 5000, 1);
		usleep(10);

		for(int y = 0; y <15; y++){
   210f4:	8dbff31e 	bne	r17,r22,210c4 <__alt_data_end+0xffff2664>
			}

			alt_putchar('\n');
		}

		IOWR(PIXEL_BUFFER_WB_0_BASE, 5000, 0);
   210f8:	80000035 	stwio	zero,0(r16)

}
   210fc:	dfc00717 	ldw	ra,28(sp)
   21100:	dd800617 	ldw	r22,24(sp)
   21104:	dd400517 	ldw	r21,20(sp)
   21108:	dd000417 	ldw	r20,16(sp)
   2110c:	dcc00317 	ldw	r19,12(sp)
   21110:	dc800217 	ldw	r18,8(sp)
   21114:	dc400117 	ldw	r17,4(sp)
   21118:	dc000017 	ldw	r16,0(sp)
   2111c:	dec00804 	addi	sp,sp,32
   21120:	f800283a 	ret

00021124 <green_average>:

int green_average(){
	int sum = 0;
	for(int y = 0; y <15; y++){
		for (int x = 0; x < 20; x++){
			alt_u32 pixel =(IORD(PIXEL_BUFFER_WB_0_BASE, 16*x + y));
   21124:	01c000f4 	movhi	r7,3

		IOWR(PIXEL_BUFFER_WB_0_BASE, 5000, 0);

}

int green_average(){
   21128:	0007883a 	mov	r3,zero
	int sum = 0;
   2112c:	0009883a 	mov	r4,zero
	for(int y = 0; y <15; y++){
		for (int x = 0; x < 20; x++){
			alt_u32 pixel =(IORD(PIXEL_BUFFER_WB_0_BASE, 16*x + y));
   21130:	39c20004 	addi	r7,r7,2048
}

int green_average(){
	int sum = 0;
	for(int y = 0; y <15; y++){
		for (int x = 0; x < 20; x++){
   21134:	02014004 	movi	r8,1280

}

int green_average(){
	int sum = 0;
	for(int y = 0; y <15; y++){
   21138:	02400f04 	movi	r9,60

		IOWR(PIXEL_BUFFER_WB_0_BASE, 5000, 0);

}

int green_average(){
   2113c:	000b883a 	mov	r5,zero
	int sum = 0;
	for(int y = 0; y <15; y++){
		for (int x = 0; x < 20; x++){
			alt_u32 pixel =(IORD(PIXEL_BUFFER_WB_0_BASE, 16*x + y));
   21140:	19cd883a 	add	r6,r3,r7
   21144:	3145883a 	add	r2,r6,r5
   21148:	10800037 	ldwio	r2,0(r2)
			alt_u32 green = (pixel & 0x0000ff00) >> 8;
			sum += green;
   2114c:	10bfc00c 	andi	r2,r2,65280
   21150:	1004d23a 	srli	r2,r2,8
   21154:	29401004 	addi	r5,r5,64
   21158:	1109883a 	add	r4,r2,r4
}

int green_average(){
	int sum = 0;
	for(int y = 0; y <15; y++){
		for (int x = 0; x < 20; x++){
   2115c:	2a3ff91e 	bne	r5,r8,21144 <__alt_data_end+0xffff26e4>
   21160:	18c00104 	addi	r3,r3,4

}

int green_average(){
	int sum = 0;
	for(int y = 0; y <15; y++){
   21164:	1a7ff51e 	bne	r3,r9,2113c <__alt_data_end+0xffff26dc>

		IOWR(PIXEL_BUFFER_WB_0_BASE, 5000, 0);

}

int green_average(){
   21168:	deffff04 	addi	sp,sp,-4
			alt_u32 pixel =(IORD(PIXEL_BUFFER_WB_0_BASE, 16*x + y));
			alt_u32 green = (pixel & 0x0000ff00) >> 8;
			sum += green;
			}
		}
	return sum / (15*20);
   2116c:	01404b04 	movi	r5,300

		IOWR(PIXEL_BUFFER_WB_0_BASE, 5000, 0);

}

int green_average(){
   21170:	dfc00015 	stw	ra,0(sp)
			alt_u32 pixel =(IORD(PIXEL_BUFFER_WB_0_BASE, 16*x + y));
			alt_u32 green = (pixel & 0x0000ff00) >> 8;
			sum += green;
			}
		}
	return sum / (15*20);
   21174:	0022cc40 	call	22cc4 <__divsi3>
}
   21178:	dfc00017 	ldw	ra,0(sp)
   2117c:	dec00104 	addi	sp,sp,4
   21180:	f800283a 	ret

00021184 <red_average>:

int red_average(){
	int sum = 0;
	for(int y = 0; y <15; y++){
		for (int x = 0; x < 20; x++){
			alt_u32 pixel =(IORD(PIXEL_BUFFER_WB_0_BASE, 16*x + y));
   21184:	01c000f4 	movhi	r7,3
			}
		}
	return sum / (15*20);
}

int red_average(){
   21188:	0007883a 	mov	r3,zero
	int sum = 0;
   2118c:	0009883a 	mov	r4,zero
	for(int y = 0; y <15; y++){
		for (int x = 0; x < 20; x++){
			alt_u32 pixel =(IORD(PIXEL_BUFFER_WB_0_BASE, 16*x + y));
   21190:	39c20004 	addi	r7,r7,2048
}

int red_average(){
	int sum = 0;
	for(int y = 0; y <15; y++){
		for (int x = 0; x < 20; x++){
   21194:	02014004 	movi	r8,1280
	return sum / (15*20);
}

int red_average(){
	int sum = 0;
	for(int y = 0; y <15; y++){
   21198:	02400f04 	movi	r9,60
			}
		}
	return sum / (15*20);
}

int red_average(){
   2119c:	000b883a 	mov	r5,zero
	int sum = 0;
	for(int y = 0; y <15; y++){
		for (int x = 0; x < 20; x++){
			alt_u32 pixel =(IORD(PIXEL_BUFFER_WB_0_BASE, 16*x + y));
   211a0:	19cd883a 	add	r6,r3,r7
   211a4:	3145883a 	add	r2,r6,r5
   211a8:	10800037 	ldwio	r2,0(r2)
			alt_u32 red = (pixel & 0x00ff0000)>>16;
			sum += red;
   211ac:	10803fec 	andhi	r2,r2,255
   211b0:	1004d43a 	srli	r2,r2,16
   211b4:	29401004 	addi	r5,r5,64
   211b8:	1109883a 	add	r4,r2,r4
}

int red_average(){
	int sum = 0;
	for(int y = 0; y <15; y++){
		for (int x = 0; x < 20; x++){
   211bc:	2a3ff91e 	bne	r5,r8,211a4 <__alt_data_end+0xffff2744>
   211c0:	18c00104 	addi	r3,r3,4
	return sum / (15*20);
}

int red_average(){
	int sum = 0;
	for(int y = 0; y <15; y++){
   211c4:	1a7ff51e 	bne	r3,r9,2119c <__alt_data_end+0xffff273c>
			}
		}
	return sum / (15*20);
}

int red_average(){
   211c8:	deffff04 	addi	sp,sp,-4
			alt_u32 pixel =(IORD(PIXEL_BUFFER_WB_0_BASE, 16*x + y));
			alt_u32 red = (pixel & 0x00ff0000)>>16;
			sum += red;
			}
		}
	return sum / (15*20);
   211cc:	01404b04 	movi	r5,300
			}
		}
	return sum / (15*20);
}

int red_average(){
   211d0:	dfc00015 	stw	ra,0(sp)
			alt_u32 pixel =(IORD(PIXEL_BUFFER_WB_0_BASE, 16*x + y));
			alt_u32 red = (pixel & 0x00ff0000)>>16;
			sum += red;
			}
		}
	return sum / (15*20);
   211d4:	0022cc40 	call	22cc4 <__divsi3>
}
   211d8:	dfc00017 	ldw	ra,0(sp)
   211dc:	dec00104 	addi	sp,sp,4
   211e0:	f800283a 	ret

000211e4 <blue_average>:

int blue_average(){
	int sum = 0;
	for(int y = 0; y <15; y++){
		for (int x = 0; x < 20; x++){
			alt_u32 pixel =(IORD(PIXEL_BUFFER_WB_0_BASE, 16*x + y));
   211e4:	01c000f4 	movhi	r7,3
			}
		}
	return sum / (15*20);
}

int blue_average(){
   211e8:	0005883a 	mov	r2,zero
	int sum = 0;
   211ec:	0009883a 	mov	r4,zero
	for(int y = 0; y <15; y++){
		for (int x = 0; x < 20; x++){
			alt_u32 pixel =(IORD(PIXEL_BUFFER_WB_0_BASE, 16*x + y));
   211f0:	39c20004 	addi	r7,r7,2048
}

int blue_average(){
	int sum = 0;
	for(int y = 0; y <15; y++){
		for (int x = 0; x < 20; x++){
   211f4:	02014004 	movi	r8,1280
	return sum / (15*20);
}

int blue_average(){
	int sum = 0;
	for(int y = 0; y <15; y++){
   211f8:	02400f04 	movi	r9,60
			}
		}
	return sum / (15*20);
}

int blue_average(){
   211fc:	0007883a 	mov	r3,zero
	int sum = 0;
	for(int y = 0; y <15; y++){
		for (int x = 0; x < 20; x++){
			alt_u32 pixel =(IORD(PIXEL_BUFFER_WB_0_BASE, 16*x + y));
   21200:	11cd883a 	add	r6,r2,r7
   21204:	30cb883a 	add	r5,r6,r3
   21208:	29400037 	ldwio	r5,0(r5)
			alt_u32 blue = pixel & 0x000000ff;
			sum += blue;
   2120c:	29403fcc 	andi	r5,r5,255
   21210:	18c01004 	addi	r3,r3,64
   21214:	2909883a 	add	r4,r5,r4
}

int blue_average(){
	int sum = 0;
	for(int y = 0; y <15; y++){
		for (int x = 0; x < 20; x++){
   21218:	1a3ffa1e 	bne	r3,r8,21204 <__alt_data_end+0xffff27a4>
   2121c:	10800104 	addi	r2,r2,4
	return sum / (15*20);
}

int blue_average(){
	int sum = 0;
	for(int y = 0; y <15; y++){
   21220:	127ff61e 	bne	r2,r9,211fc <__alt_data_end+0xffff279c>
			}
		}
	return sum / (15*20);
}

int blue_average(){
   21224:	deffff04 	addi	sp,sp,-4
			alt_u32 pixel =(IORD(PIXEL_BUFFER_WB_0_BASE, 16*x + y));
			alt_u32 blue = pixel & 0x000000ff;
			sum += blue;
			}
		}
	return sum / (15*20);
   21228:	01404b04 	movi	r5,300
			}
		}
	return sum / (15*20);
}

int blue_average(){
   2122c:	dfc00015 	stw	ra,0(sp)
			alt_u32 pixel =(IORD(PIXEL_BUFFER_WB_0_BASE, 16*x + y));
			alt_u32 blue = pixel & 0x000000ff;
			sum += blue;
			}
		}
	return sum / (15*20);
   21230:	0022cc40 	call	22cc4 <__divsi3>
}
   21234:	dfc00017 	ldw	ra,0(sp)
   21238:	dec00104 	addi	sp,sp,4
   2123c:	f800283a 	ret

00021240 <process_input>:
	static alt_u16  current_focus = 300;
	alt_u32 exposureTime = EXPOSURE_INIT;
	alt_u16 gain = GAIN_INIT;

	// touch KEY0 to trigger Auto focus
		   if((IORD(KEY_BASE,0)&0x03) == 0x02){
   21240:	00c000f4 	movhi	r3,3
#include "input.h"


void process_input(){
   21244:	defffb04 	addi	sp,sp,-20
	static alt_u16  current_focus = 300;
	alt_u32 exposureTime = EXPOSURE_INIT;
	alt_u16 gain = GAIN_INIT;

	// touch KEY0 to trigger Auto focus
		   if((IORD(KEY_BASE,0)&0x03) == 0x02){
   21248:	18c8c804 	addi	r3,r3,8992
#include "input.h"


void process_input(){
   2124c:	dfc00415 	stw	ra,16(sp)
   21250:	dcc00315 	stw	r19,12(sp)
   21254:	dc800215 	stw	r18,8(sp)
   21258:	dc400115 	stw	r17,4(sp)
   2125c:	dc000015 	stw	r16,0(sp)
	static alt_u16  current_focus = 300;
	alt_u32 exposureTime = EXPOSURE_INIT;
	alt_u16 gain = GAIN_INIT;

	// touch KEY0 to trigger Auto focus
		   if((IORD(KEY_BASE,0)&0x03) == 0x02){
   21260:	18800037 	ldwio	r2,0(r3)
   21264:	01400084 	movi	r5,2
   21268:	108000cc 	andi	r2,r2,3
   2126c:	1140051e 	bne	r2,r5,21284 <process_input+0x44>

	    	   current_focus = Focus_Window(320,240);
   21270:	01403c04 	movi	r5,240
   21274:	01005004 	movi	r4,320
   21278:	0020d0c0 	call	20d0c <Focus_Window>
   2127c:	d0a0030d 	sth	r2,-32756(gp)
   21280:	00003606 	br	2135c <process_input+0x11c>
	       }
		   // touch KEY1 with selected routine to run
		   else if ((IORD(KEY_BASE,0)&0x03) == 0x01){
   21284:	18c00037 	ldwio	r3,0(r3)
   21288:	00800044 	movi	r2,1
   2128c:	18c000cc 	andi	r3,r3,3
   21290:	1880321e 	bne	r3,r2,2135c <process_input+0x11c>
	    	   int sw = (IORD(SW_BASE, 0)& 0x03FF);
   21294:	008000f4 	movhi	r2,3
   21298:	1088cc04 	addi	r2,r2,9008
   2129c:	10800037 	ldwio	r2,0(r2)

	    	   debug = 1;

	    	   switch(sw){
   212a0:	01000204 	movi	r4,8
	       }
		   // touch KEY1 with selected routine to run
		   else if ((IORD(KEY_BASE,0)&0x03) == 0x01){
	    	   int sw = (IORD(SW_BASE, 0)& 0x03FF);

	    	   debug = 1;
   212a4:	d0e07315 	stw	r3,-32308(gp)

	    	   switch(sw){
   212a8:	1080ffcc 	andi	r2,r2,1023
   212ac:	11001926 	beq	r2,r4,21314 <process_input+0xd4>
   212b0:	20800716 	blt	r4,r2,212d0 <process_input+0x90>
   212b4:	11401026 	beq	r2,r5,212f8 <process_input+0xb8>
   212b8:	01000104 	movi	r4,4
   212bc:	11001226 	beq	r2,r4,21308 <process_input+0xc8>
   212c0:	10c0261e 	bne	r2,r3,2135c <process_input+0x11c>
				   case 1 : {
					   auto_gain(128 , 2);
   212c4:	01002004 	movi	r4,128
   212c8:	00209440 	call	20944 <auto_gain>
					   break;
   212cc:	00002306 	br	2135c <process_input+0x11c>
		   else if ((IORD(KEY_BASE,0)&0x03) == 0x01){
	    	   int sw = (IORD(SW_BASE, 0)& 0x03FF);

	    	   debug = 1;

	    	   switch(sw){
   212d0:	00c00804 	movi	r3,32
   212d4:	10c01a26 	beq	r2,r3,21340 <process_input+0x100>
   212d8:	00c01004 	movi	r3,64
   212dc:	10c01c26 	beq	r2,r3,21350 <process_input+0x110>
   212e0:	00c00404 	movi	r3,16
   212e4:	10c01d1e 	bne	r2,r3,2135c <process_input+0x11c>
				   }case 8: {
					   IOWR(COLOR_FILTER_0_BASE, APPLY_MASK, ~IORD(COLOR_FILTER_0_BASE, APPLY_MASK));
					   IOWR(COM_COUNTER_0_BASE, THRESH_ENABLED, ~IORD(COM_COUNTER_0_BASE, THRESH_ENABLED));
					   break;
				   }case 16: {
					   fir_load_unit(FIR_0_0_BASE);
   212e8:	010000f4 	movhi	r4,3
   212ec:	21060004 	addi	r4,r4,6144
   212f0:	0020e640 	call	20e64 <fir_load_unit>
					   //fir_load_unit(FIR_0_1_BASE);
					   break;
   212f4:	00001906 	br	2135c <process_input+0x11c>
	    	   switch(sw){
				   case 1 : {
					   auto_gain(128 , 2);
					   break;
				   }case 2: {
					   auto_wb(128 , 3);
   212f8:	014000c4 	movi	r5,3
   212fc:	01002004 	movi	r4,128
   21300:	00209fc0 	call	209fc <auto_wb>
					   break;
   21304:	00001506 	br	2135c <process_input+0x11c>
				   }case 4: {
					   IOWR(RGB_TO_HSV_BASE, HSV_ENABLED, ~IORD(RGB_TO_HSV_BASE, HSV_ENABLED));
   21308:	00c000f4 	movhi	r3,3
   2130c:	18c85004 	addi	r3,r3,8512
   21310:	00000706 	br	21330 <process_input+0xf0>
					   break;
				   }case 8: {
					   IOWR(COLOR_FILTER_0_BASE, APPLY_MASK, ~IORD(COLOR_FILTER_0_BASE, APPLY_MASK));
   21314:	00c000f4 	movhi	r3,3
   21318:	18c87204 	addi	r3,r3,8648
   2131c:	18800037 	ldwio	r2,0(r3)
   21320:	0084303a 	nor	r2,zero,r2
   21324:	18800035 	stwio	r2,0(r3)
					   IOWR(COM_COUNTER_0_BASE, THRESH_ENABLED, ~IORD(COM_COUNTER_0_BASE, THRESH_ENABLED));
   21328:	00c000f4 	movhi	r3,3
   2132c:	18c86804 	addi	r3,r3,8608
   21330:	18800037 	ldwio	r2,0(r3)
   21334:	0084303a 	nor	r2,zero,r2
   21338:	18800035 	stwio	r2,0(r3)
					   break;
   2133c:	00000706 	br	2135c <process_input+0x11c>
				   }case 16: {
					   fir_load_unit(FIR_0_0_BASE);
					   //fir_load_unit(FIR_0_1_BASE);
					   break;
				   }case 32: {
					   fir_load_avg(FIR_0_0_BASE);
   21340:	010000f4 	movhi	r4,3
   21344:	21060004 	addi	r4,r4,6144
   21348:	0020e900 	call	20e90 <fir_load_avg>
					   //fir_load_unit(FIR_0_1_BASE);
					   break;
   2134c:	00000306 	br	2135c <process_input+0x11c>
				   }case 64: {
					   fir_load_sobel(FIR_0_0_BASE);
   21350:	010000f4 	movhi	r4,3
   21354:	21060004 	addi	r4,r4,6144
   21358:	0020eb80 	call	20eb8 <fir_load_sobel>
	    	   }

	       }

		   //Process input commands
		  int in = alt_getchar();
   2135c:	00242380 	call	24238 <alt_getchar>
		  switch (in) {
   21360:	00c01904 	movi	r3,100
   21364:	10c04126 	beq	r2,r3,2146c <process_input+0x22c>
   21368:	18801516 	blt	r3,r2,213c0 <process_input+0x180>
   2136c:	00c01204 	movi	r3,72
   21370:	10c02826 	beq	r2,r3,21414 <process_input+0x1d4>
   21374:	18800616 	blt	r3,r2,21390 <process_input+0x150>
   21378:	00c01104 	movi	r3,68
   2137c:	10c0601e 	bne	r2,r3,21500 <process_input+0x2c0>
							   alt_putchar(' ');
						   }
					   }
				   break;}
			   case 'D': {
				   delay = 1000000;
   21380:	008003f4 	movhi	r2,15
   21384:	10909004 	addi	r2,r2,16960
   21388:	d0a07515 	stw	r2,-32300(gp)
				   break;}
   2138c:	00005c06 	br	21500 <process_input+0x2c0>

	       }

		   //Process input commands
		  int in = alt_getchar();
		  switch (in) {
   21390:	00c01404 	movi	r3,80
   21394:	10c01826 	beq	r2,r3,213f8 <process_input+0x1b8>
   21398:	00c01484 	movi	r3,82
   2139c:	10c0581e 	bne	r2,r3,21500 <process_input+0x2c0>
			   case 'R': {
				   //Process request
				   print_observations(observations);
   213a0:	d1207417 	ldw	r4,-32304(gp)
				   OV8865_FOCUS_Move_to(current_focus);
				   //printf("\nFocus = %x ",current_focus);
				   break;}
		  	  };

}
   213a4:	dfc00417 	ldw	ra,16(sp)
   213a8:	dcc00317 	ldw	r19,12(sp)
   213ac:	dc800217 	ldw	r18,8(sp)
   213b0:	dc400117 	ldw	r17,4(sp)
   213b4:	dc000017 	ldw	r16,0(sp)
   213b8:	dec00504 	addi	sp,sp,20
		   //Process input commands
		  int in = alt_getchar();
		  switch (in) {
			   case 'R': {
				   //Process request
				   print_observations(observations);
   213bc:	0022b201 	jmpi	22b20 <print_observations>

	       }

		   //Process input commands
		  int in = alt_getchar();
		  switch (in) {
   213c0:	00c019c4 	movi	r3,103
   213c4:	10c03126 	beq	r2,r3,2148c <process_input+0x24c>
   213c8:	18800516 	blt	r3,r2,213e0 <process_input+0x1a0>
   213cc:	00c01944 	movi	r3,101
   213d0:	10c02426 	beq	r2,r3,21464 <process_input+0x224>
   213d4:	00c01984 	movi	r3,102
   213d8:	10c03b26 	beq	r2,r3,214c8 <process_input+0x288>
   213dc:	00004806 	br	21500 <process_input+0x2c0>
   213e0:	00c01c84 	movi	r3,114
   213e4:	10c03126 	beq	r2,r3,214ac <process_input+0x26c>
   213e8:	00c01d04 	movi	r3,116
   213ec:	10c0441e 	bne	r2,r3,21500 <process_input+0x2c0>
				   OV8865SetExposure(exposureTime);
				   //printf("\nExposure = %x ", exposureTime);
				   break;}
			   case 't': {
				   gain += GAIN_STEP;
				   OV8865SetGain(gain);
   213f0:	01007004 	movi	r4,448
   213f4:	00002606 	br	21490 <process_input+0x250>
				   OV8865_FOCUS_Move_to(current_focus);
				   //printf("\nFocus = %x ",current_focus);
				   break;}
		  	  };

}
   213f8:	dfc00417 	ldw	ra,16(sp)
   213fc:	dcc00317 	ldw	r19,12(sp)
   21400:	dc800217 	ldw	r18,8(sp)
   21404:	dc400117 	ldw	r17,4(sp)
   21408:	dc000017 	ldw	r16,0(sp)
   2140c:	dec00504 	addi	sp,sp,20
				   //Process request
				   print_observations(observations);
				   break;}
			   case 'P': {
				   //Process request
				   print_image();
   21410:	0020f701 	jmpi	20f70 <print_image>
				   break;}

			   case 'H': {
					   for(int i = 0; i<20; i++){
						   alt_printf("%x ", histogram[i]);
   21414:	048000b4 	movhi	r18,2

	       }

		   //Process input commands
		  int in = alt_getchar();
		  switch (in) {
   21418:	0021883a 	mov	r16,zero
				   print_image();
				   break;}

			   case 'H': {
					   for(int i = 0; i<20; i++){
						   alt_printf("%x ", histogram[i]);
   2141c:	94965304 	addi	r18,r18,22860
						   if( i == 19 ){
   21420:	04c004c4 	movi	r19,19
				   //Process request
				   print_image();
				   break;}

			   case 'H': {
					   for(int i = 0; i<20; i++){
   21424:	04400504 	movi	r17,20
						   alt_printf("%x ", histogram[i]);
   21428:	8405883a 	add	r2,r16,r16
   2142c:	1085883a 	add	r2,r2,r2
   21430:	1485883a 	add	r2,r2,r18
   21434:	11400017 	ldw	r5,0(r2)
   21438:	010000b4 	movhi	r4,2
   2143c:	2112bb04 	addi	r4,r4,19180
   21440:	00243880 	call	24388 <alt_printf>
						   if( i == 19 ){
   21444:	84c0021e 	bne	r16,r19,21450 <process_input+0x210>
							   alt_putchar('\n');
   21448:	01000284 	movi	r4,10
   2144c:	00000106 	br	21454 <process_input+0x214>
						   }else{
							   alt_putchar(' ');
   21450:	01000804 	movi	r4,32
				   //Process request
				   print_image();
				   break;}

			   case 'H': {
					   for(int i = 0; i<20; i++){
   21454:	84000044 	addi	r16,r16,1
						   alt_printf("%x ", histogram[i]);
						   if( i == 19 ){
							   alt_putchar('\n');
						   }else{
							   alt_putchar(' ');
   21458:	00244f80 	call	244f8 <alt_putchar>
				   //Process request
				   print_image();
				   break;}

			   case 'H': {
					   for(int i = 0; i<20; i++){
   2145c:	847ff21e 	bne	r16,r17,21428 <__alt_data_end+0xffff29c8>
   21460:	00002706 	br	21500 <process_input+0x2c0>
				   break;}


			   case 'e': {
				   exposureTime += EXPOSURE_STEP;
				   OV8865SetExposure(exposureTime);
   21464:	0108c004 	movi	r4,8960
   21468:	00000106 	br	21470 <process_input+0x230>
				   //printf("\nExposure = %x ", exposureTime);
				   break;}
			   case 'd': {
				   exposureTime -= EXPOSURE_STEP;
				   OV8865SetExposure(exposureTime);
   2146c:	01084004 	movi	r4,8448
				   OV8865_FOCUS_Move_to(current_focus);
				   //printf("\nFocus = %x ",current_focus);
				   break;}
		  	  };

}
   21470:	dfc00417 	ldw	ra,16(sp)
   21474:	dcc00317 	ldw	r19,12(sp)
   21478:	dc800217 	ldw	r18,8(sp)
   2147c:	dc400117 	ldw	r17,4(sp)
   21480:	dc000017 	ldw	r16,0(sp)
   21484:	dec00504 	addi	sp,sp,20
				   OV8865SetExposure(exposureTime);
				   //printf("\nExposure = %x ", exposureTime);
				   break;}
			   case 'd': {
				   exposureTime -= EXPOSURE_STEP;
				   OV8865SetExposure(exposureTime);
   21488:	0021e081 	jmpi	21e08 <OV8865SetExposure>
				   OV8865SetGain(gain);
				   //printf("\nGain = %x ", gain);
				   break;}
			   case 'g': {
				   gain -= GAIN_STEP;
				   OV8865SetGain(gain);
   2148c:	01005004 	movi	r4,320
				   OV8865_FOCUS_Move_to(current_focus);
				   //printf("\nFocus = %x ",current_focus);
				   break;}
		  	  };

}
   21490:	dfc00417 	ldw	ra,16(sp)
   21494:	dcc00317 	ldw	r19,12(sp)
   21498:	dc800217 	ldw	r18,8(sp)
   2149c:	dc400117 	ldw	r17,4(sp)
   214a0:	dc000017 	ldw	r16,0(sp)
   214a4:	dec00504 	addi	sp,sp,20
				   OV8865SetGain(gain);
				   //printf("\nGain = %x ", gain);
				   break;}
			   case 'g': {
				   gain -= GAIN_STEP;
				   OV8865SetGain(gain);
   214a8:	0021eb41 	jmpi	21eb4 <OV8865SetGain>
				   //printf("\nGain = %x ", gain);
				   break;}
			   case 'r': {
				   current_focus += manual_focus_step;
   214ac:	d0a0030b 	ldhu	r2,-32756(gp)
				   if(current_focus >1023) current_focus = 1023;
   214b0:	00c0ffc4 	movi	r3,1023
				   gain -= GAIN_STEP;
				   OV8865SetGain(gain);
				   //printf("\nGain = %x ", gain);
				   break;}
			   case 'r': {
				   current_focus += manual_focus_step;
   214b4:	10800284 	addi	r2,r2,10
				   if(current_focus >1023) current_focus = 1023;
   214b8:	113fffcc 	andi	r4,r2,65535
   214bc:	1900072e 	bgeu	r3,r4,214dc <process_input+0x29c>
   214c0:	d0e0030d 	sth	r3,-32756(gp)
   214c4:	00000606 	br	214e0 <process_input+0x2a0>
				   OV8865_FOCUS_Move_to(current_focus);
				   //printf("\nFocus = %x ",current_focus);
				   break;}
			   case 'f': {
				   if(current_focus > manual_focus_step) current_focus -= manual_focus_step;
   214c8:	d0a0030b 	ldhu	r2,-32756(gp)
   214cc:	01000284 	movi	r4,10
   214d0:	10ffffcc 	andi	r3,r2,65535
   214d4:	20c0022e 	bgeu	r4,r3,214e0 <process_input+0x2a0>
   214d8:	10bffd84 	addi	r2,r2,-10
   214dc:	d0a0030d 	sth	r2,-32756(gp)
				   OV8865_FOCUS_Move_to(current_focus);
   214e0:	d120030b 	ldhu	r4,-32756(gp)
				   //printf("\nFocus = %x ",current_focus);
				   break;}
		  	  };

}
   214e4:	dfc00417 	ldw	ra,16(sp)
   214e8:	dcc00317 	ldw	r19,12(sp)
   214ec:	dc800217 	ldw	r18,8(sp)
   214f0:	dc400117 	ldw	r17,4(sp)
   214f4:	dc000017 	ldw	r16,0(sp)
   214f8:	dec00504 	addi	sp,sp,20
				   OV8865_FOCUS_Move_to(current_focus);
				   //printf("\nFocus = %x ",current_focus);
				   break;}
			   case 'f': {
				   if(current_focus > manual_focus_step) current_focus -= manual_focus_step;
				   OV8865_FOCUS_Move_to(current_focus);
   214fc:	0021d741 	jmpi	21d74 <OV8865_FOCUS_Move_to>
				   //printf("\nFocus = %x ",current_focus);
				   break;}
		  	  };

}
   21500:	dfc00417 	ldw	ra,16(sp)
   21504:	dcc00317 	ldw	r19,12(sp)
   21508:	dc800217 	ldw	r18,8(sp)
   2150c:	dc400117 	ldw	r17,4(sp)
   21510:	dc000017 	ldw	r16,0(sp)
   21514:	dec00504 	addi	sp,sp,20
   21518:	f800283a 	ret

0002151c <get_building_hist>:
int histogram[20];
int histogram_processed[20];

void get_building_hist(){

	fir_load_sobel(FIR_0_0_BASE);
   2151c:	010000f4 	movhi	r4,3
int number_observations = 8;
int frames_elapsed  = 0;
int histogram[20];
int histogram_processed[20];

void get_building_hist(){
   21520:	defffb04 	addi	sp,sp,-20

	fir_load_sobel(FIR_0_0_BASE);
   21524:	21060004 	addi	r4,r4,6144
int number_observations = 8;
int frames_elapsed  = 0;
int histogram[20];
int histogram_processed[20];

void get_building_hist(){
   21528:	dfc00415 	stw	ra,16(sp)
   2152c:	dcc00315 	stw	r19,12(sp)
   21530:	dc800215 	stw	r18,8(sp)
   21534:	dc400115 	stw	r17,4(sp)
   21538:	dc000015 	stw	r16,0(sp)

	fir_load_sobel(FIR_0_0_BASE);
   2153c:	0020eb80 	call	20eb8 <fir_load_sobel>
	IOWR(COM_COUNTER_0_BASE, THRESH_Y, 64);
   21540:	008000f4 	movhi	r2,3
   21544:	10886904 	addi	r2,r2,8612
   21548:	00c01004 	movi	r3,64
   2154c:	10c00035 	stwio	r3,0(r2)
	IOWR(COLOR_FILTER_0_BASE, APPLY_MASK, 0);
   21550:	008000f4 	movhi	r2,3
   21554:	10887204 	addi	r2,r2,8648
   21558:	10000035 	stwio	zero,0(r2)
	wait_sop();
   2155c:	00228f00 	call	228f0 <wait_sop>
	wait_eop();

	for (int i = 0; i<20; i++){
		histogram[i] = IORD(EDGE_BINS_0_BASE, i);
   21560:	04bfff74 	movhi	r18,65533
   21564:	044000b4 	movhi	r17,2

	fir_load_sobel(FIR_0_0_BASE);
	IOWR(COM_COUNTER_0_BASE, THRESH_Y, 64);
	IOWR(COLOR_FILTER_0_BASE, APPLY_MASK, 0);
	wait_sop();
	wait_eop();
   21568:	00228fc0 	call	228fc <wait_eop>

	for (int i = 0; i<20; i++){
   2156c:	0021883a 	mov	r16,zero
   21570:	04f20014 	movui	r19,51200
		histogram[i] = IORD(EDGE_BINS_0_BASE, i);
   21574:	94b80004 	addi	r18,r18,-8192
   21578:	8c565304 	addi	r17,r17,22860
   2157c:	84c5883a 	add	r2,r16,r19
   21580:	1085883a 	add	r2,r2,r2
   21584:	1085883a 	add	r2,r2,r2
   21588:	11800037 	ldwio	r6,0(r2)
		alt_printf("Bin %x: %x \n", i, histogram[i]);
   2158c:	010000b4 	movhi	r4,2
	IOWR(COLOR_FILTER_0_BASE, APPLY_MASK, 0);
	wait_sop();
	wait_eop();

	for (int i = 0; i<20; i++){
		histogram[i] = IORD(EDGE_BINS_0_BASE, i);
   21590:	1485883a 	add	r2,r2,r18
   21594:	1445883a 	add	r2,r2,r17
   21598:	11800015 	stw	r6,0(r2)
		alt_printf("Bin %x: %x \n", i, histogram[i]);
   2159c:	800b883a 	mov	r5,r16
   215a0:	2112bc04 	addi	r4,r4,19184
   215a4:	00243880 	call	24388 <alt_printf>
	IOWR(COM_COUNTER_0_BASE, THRESH_Y, 64);
	IOWR(COLOR_FILTER_0_BASE, APPLY_MASK, 0);
	wait_sop();
	wait_eop();

	for (int i = 0; i<20; i++){
   215a8:	84000044 	addi	r16,r16,1
   215ac:	00800504 	movi	r2,20
   215b0:	80bff21e 	bne	r16,r2,2157c <__alt_data_end+0xffff2b1c>
		alt_printf("Bin %x: %x \n", i, histogram[i]);
	}

	//fir_load_avg();
	return;
}
   215b4:	dfc00417 	ldw	ra,16(sp)
   215b8:	dcc00317 	ldw	r19,12(sp)
   215bc:	dc800217 	ldw	r18,8(sp)
   215c0:	dc400117 	ldw	r17,4(sp)
   215c4:	dc000017 	ldw	r16,0(sp)
   215c8:	dec00504 	addi	sp,sp,20
   215cc:	f800283a 	ret

000215d0 <main>:



int main(){
   215d0:	defff504 	addi	sp,sp,-44

	print = 0;

	//Sets stdin to nonblocking
	fcntl(STDIN_FILENO, F_SETFL, O_NONBLOCK);
   215d4:	01900004 	movi	r6,16384
   215d8:	01400104 	movi	r5,4
   215dc:	0009883a 	mov	r4,zero
	return;
}



int main(){
   215e0:	dfc00a15 	stw	ra,40(sp)
   215e4:	df000915 	stw	fp,36(sp)
   215e8:	ddc00815 	stw	r23,32(sp)
   215ec:	dd800715 	stw	r22,28(sp)
   215f0:	dd400615 	stw	r21,24(sp)
   215f4:	dd000515 	stw	r20,20(sp)
   215f8:	dcc00415 	stw	r19,16(sp)
   215fc:	dc800315 	stw	r18,12(sp)
   21600:	dc400215 	stw	r17,8(sp)
   21604:	dc000115 	stw	r16,4(sp)

	print = 0;
   21608:	d0207215 	stw	zero,-32312(gp)

	//Sets stdin to nonblocking
	fcntl(STDIN_FILENO, F_SETFL, O_NONBLOCK);
   2160c:	00241800 	call	24180 <fcntl>
	if (print){
   21610:	d0a07217 	ldw	r2,-32312(gp)
   21614:	10000326 	beq	r2,zero,21624 <main+0x54>
		printf("Imperial College EEE2 Project version\n");
   21618:	010000b4 	movhi	r4,2
   2161c:	2112c004 	addi	r4,r4,19200
   21620:	00232080 	call	23208 <puts>
	}
  IOWR(MIPI_PWDN_N_BASE, 0x00, 0x00);
   21624:	048000f4 	movhi	r18,3
   21628:	9488c004 	addi	r18,r18,8960
   2162c:	90000035 	stwio	zero,0(r18)
  IOWR(MIPI_RESET_N_BASE, 0x00, 0x00);
   21630:	040000f4 	movhi	r16,3
   21634:	8408c404 	addi	r16,r16,8976
   21638:	80000035 	stwio	zero,0(r16)

  usleep(2000);
   2163c:	0101f404 	movi	r4,2000
   21640:	00246780 	call	24678 <usleep>
  IOWR(MIPI_PWDN_N_BASE, 0x00, 0xFF);
   21644:	04403fc4 	movi	r17,255
   21648:	94400035 	stwio	r17,0(r18)
  usleep(2000);
   2164c:	0101f404 	movi	r4,2000
   21650:	00246780 	call	24678 <usleep>
  IOWR(MIPI_RESET_N_BASE, 0x00, 0xFF);
   21654:	84400035 	stwio	r17,0(r16)

  usleep(2000);
   21658:	0101f404 	movi	r4,2000
   2165c:	00246780 	call	24678 <usleep>


  // MIPI Init
   if (!MIPI_Init() & print){
   21660:	00228680 	call	22868 <MIPI_Init>
   21664:	d0e07217 	ldw	r3,-32312(gp)
   21668:	1005003a 	cmpeq	r2,r2,zero
   2166c:	10c4703a 	and	r2,r2,r3
   21670:	10000326 	beq	r2,zero,21680 <main+0xb0>
	  printf("MIPI_Init Init failed!\r\n");
   21674:	010000b4 	movhi	r4,2
   21678:	2112ca04 	addi	r4,r4,19240
   2167c:	00232080 	call	23208 <puts>
  }

	mipi_clear_error();
   21680:	00225e40 	call	225e4 <mipi_clear_error>
	usleep(50*1000);
   21684:	0470d414 	movui	r17,50000
   21688:	8809883a 	mov	r4,r17
   2168c:	00246780 	call	24678 <usleep>
	mipi_clear_error();
   21690:	00225e40 	call	225e4 <mipi_clear_error>
	usleep(1000*1000);
   21694:	010003f4 	movhi	r4,15
   21698:	21109004 	addi	r4,r4,16960
   2169c:	00246780 	call	24678 <usleep>
	mipi_show_error_info();
   216a0:	00226900 	call	22690 <mipi_show_error_info>
	printf("\n");
   216a4:	05800284 	movi	r22,10
   216a8:	b009883a 	mov	r4,r22
   216ac:	002316c0 	call	2316c <putchar>

	fir_load_unit(FIR_0_0_BASE);
   216b0:	010000f4 	movhi	r4,3
   216b4:	21060004 	addi	r4,r4,6144
   216b8:	0020e640 	call	20e64 <fir_load_unit>

//Camera parameters initialization
//////////////////////////////////////////////////////////

	OV8865SetExposure(EXPOSURE_INIT);
   216bc:	01088004 	movi	r4,8704
   216c0:	0021e080 	call	21e08 <OV8865SetExposure>

//	//Manual calibration
//	OV8865SetGain(926);
	OV8865SetRedGain(930);
   216c4:	0100e884 	movi	r4,930
   216c8:	0021fc40 	call	21fc4 <OV8865SetRedGain>
	OV8865SetGreenGain(800);
   216cc:	0100c804 	movi	r4,800
   216d0:	002206c0 	call	2206c <OV8865SetGreenGain>
	OV8865SetBlueGain(1222);
   216d4:	01013184 	movi	r4,1222
   216d8:	00221140 	call	22114 <OV8865SetBlueGain>

	//Autocalibration
	Focus_Init();
   216dc:	0020ba80 	call	20ba8 <Focus_Init>
	auto_gain(160,2);
   216e0:	01400084 	movi	r5,2
   216e4:	01002804 	movi	r4,160
   216e8:	00209440 	call	20944 <auto_gain>

////////////////////////////////////////////////////////////////


	//Apply HSV transform
	IOWR(RGB_TO_HSV_BASE, HSV_ENABLED, 0x1);
   216ec:	054000f4 	movhi	r21,3
   216f0:	ad485004 	addi	r21,r21,8512
   216f4:	00800044 	movi	r2,1
   216f8:	a8800035 	stwio	r2,0(r21)

	//Color filter setup
	IOWR(COLOR_FILTER_0_BASE, APPLY_MASK, 0);
   216fc:	050000f4 	movhi	r20,3
   21700:	a5087204 	addi	r20,r20,8648
   21704:	a0000035 	stwio	zero,0(r20)

	//COM counter setup
	IOWR(COM_COUNTER_0_BASE, THRESH_ENABLED, 0);
   21708:	04c000f4 	movhi	r19,3
   2170c:	9cc86804 	addi	r19,r19,8608
   21710:	98000035 	stwio	zero,0(r19)
	IOWR(COM_COUNTER_0_BASE, THRESH_Y, 200);
   21714:	048000f4 	movhi	r18,3
   21718:	94886904 	addi	r18,r18,8612
   2171c:	00803204 	movi	r2,200
   21720:	90800035 	stwio	r2,0(r18)
	IOWR(COM_COUNTER_0_BASE, THRESH_X, 10);
   21724:	040000f4 	movhi	r16,3
   21728:	84086a04 	addi	r16,r16,8616
   2172c:	85800035 	stwio	r22,0(r16)
	IOWR(COM_COUNTER_0_BASE, THRESH_Y_MAX, 470);
   21730:	008000f4 	movhi	r2,3
   21734:	10886b04 	addi	r2,r2,8620
   21738:	00c07584 	movi	r3,470
   2173c:	10c00035 	stwio	r3,0(r2)
	IOWR(COM_COUNTER_0_BASE, THRESH_X_MAX, 620);
   21740:	008000f4 	movhi	r2,3
   21744:	10886c04 	addi	r2,r2,8624
   21748:	00c09b04 	movi	r3,620
   2174c:	10c00035 	stwio	r3,0(r2)

	//Force disable center dots
	IOWR(PIXEL_GRABBER_HSV_BASE, GRAB_INDICATOR, 0);
   21750:	008000f4 	movhi	r2,3
   21754:	10883204 	addi	r2,r2,8392
   21758:	10000035 	stwio	zero,0(r2)
	IOWR(PIXEL_GRABBER_RGB_BASE, GRAB_INDICATOR, 0);
   2175c:	008000f4 	movhi	r2,3
   21760:	10884204 	addi	r2,r2,8456
   21764:	10000035 	stwio	zero,0(r2)

	//fir_load_unit(FIR_0_1_BASE);
	//fir_load_avg();
	//fir_load_sobel();

	usleep(100000);
   21768:	010000b4 	movhi	r4,2
   2176c:	2121a804 	addi	r4,r4,-31072
   21770:	00246780 	call	24678 <usleep>
	//print_image();

	//get_building_hist();

	//Initialize observation data structures
	observations = initialize_observations();
   21774:	00229140 	call	22914 <initialize_observations>
   21778:	d0a07415 	stw	r2,-32304(gp)
	//print_wb_buffer();

	int rgb, hsv;
	debug = 0;
	char code;
	delay = 50000;
   2177c:	d4607515 	stw	r17,-32300(gp)
	//alt_ic_irq_enable (0, 2);
	//alt_ic_isr_register(0,2, frame_isr,0,0);
	//print_wb_buffer();

	int rgb, hsv;
	debug = 0;
   21780:	d0207315 	stw	zero,-32308(gp)

	//get_building_hist();

	//Initialize observation data structures
	observations = initialize_observations();
	int observation_idx = 0;
   21784:	0023883a 	mov	r17,zero
	delay = 50000;

  while(1){

	   //Read Pixel Grab
	   rgb = IORD(PIXEL_GRABBER_RGB_BASE, GRAB_VALUE);
   21788:	008000f4 	movhi	r2,3
   2178c:	10884104 	addi	r2,r2,8452
   21790:	11000037 	ldwio	r4,0(r2)
	   hsv = IORD(PIXEL_GRABBER_HSV_BASE, GRAB_VALUE);
	   print_as_rgb(rgb, hsv);
   21794:	00c000f4 	movhi	r3,3
   21798:	18c83104 	addi	r3,r3,8388
   2179c:	19400037 	ldwio	r5,0(r3)
   217a0:	0022c480 	call	22c48 <print_as_rgb>


	   if(!debug){
   217a4:	d0a07317 	ldw	r2,-32308(gp)
   217a8:	1000d01e 	bne	r2,zero,21aec <main+0x51c>
		   if ((IORD(KEY_BASE,0)&0x03) == 0x01){
   217ac:	00c000f4 	movhi	r3,3
   217b0:	18c8c804 	addi	r3,r3,8992
   217b4:	18800037 	ldwio	r2,0(r3)
   217b8:	00c00044 	movi	r3,1
   217bc:	108000cc 	andi	r2,r2,3
   217c0:	10c0011e 	bne	r2,r3,217c8 <main+0x1f8>
		  	    	   debug = 1;
   217c4:	d0a07315 	stw	r2,-32308(gp)
		   }

		   //Update observation parameters
		   	if(print){
   217c8:	d0a07217 	ldw	r2,-32312(gp)
   217cc:	8c000b24 	muli	r16,r17,44
   217d0:	10000626 	beq	r2,zero,217ec <main+0x21c>
		   		printf("Collecting %c \n", observations[observation_idx].code );
   217d4:	d0a07417 	ldw	r2,-32304(gp)
   217d8:	010000b4 	movhi	r4,2
   217dc:	2112d004 	addi	r4,r4,19264
   217e0:	1405883a 	add	r2,r2,r16
   217e4:	11400007 	ldb	r5,0(r2)
   217e8:	00231180 	call	23118 <printf>
		   	}

			code = observations[observation_idx].code;

			//Apply HSV transform
			IOWR(RGB_TO_HSV_BASE, HSV_ENABLED, 0x1);
   217ec:	008000f4 	movhi	r2,3
   217f0:	00c00044 	movi	r3,1
   217f4:	10885004 	addi	r2,r2,8512
   217f8:	10c00035 	stwio	r3,0(r2)



			//Color filter setup
			if (observations[observation_idx].code == 'W' || observations[observation_idx].code == 'X'){
   217fc:	d0a07417 	ldw	r2,-32304(gp)
   21800:	070000f4 	movhi	fp,3
   21804:	05c000f4 	movhi	r23,3
   21808:	1405883a 	add	r2,r2,r16
   2180c:	10800003 	ldbu	r2,0(r2)
   21810:	058000f4 	movhi	r22,3
   21814:	054000f4 	movhi	r21,3
   21818:	10bfea44 	addi	r2,r2,-87
   2181c:	050000f4 	movhi	r20,3
   21820:	04c000f4 	movhi	r19,3
   21824:	10803fcc 	andi	r2,r2,255
   21828:	e7086304 	addi	fp,fp,8588
   2182c:	bdc86104 	addi	r23,r23,8580
   21830:	b5886204 	addi	r22,r22,8584
   21834:	ad486404 	addi	r21,r21,8592
   21838:	a5086504 	addi	r20,r20,8596
   2183c:	9cc86604 	addi	r19,r19,8600
   21840:	18806936 	bltu	r3,r2,219e8 <main+0x418>
				IOWR(COLOR_FILTER_0_BASE, APPLY_MASK, 0);
   21844:	00c000f4 	movhi	r3,3
   21848:	18c87204 	addi	r3,r3,8648
   2184c:	18000035 	stwio	zero,0(r3)

				if (observations[observation_idx].code == 'W' ){
   21850:	d0a07417 	ldw	r2,-32304(gp)
   21854:	00c015c4 	movi	r3,87
   21858:	1405883a 	add	r2,r2,r16
   2185c:	10800007 	ldb	r2,0(r2)
   21860:	10c0041e 	bne	r2,r3,21874 <main+0x2a4>
					fir_load_sobel(FIR_0_0_BASE);
   21864:	010000f4 	movhi	r4,3
   21868:	21060004 	addi	r4,r4,6144
   2186c:	0020eb80 	call	20eb8 <fir_load_sobel>
   21870:	00000506 	br	21888 <main+0x2b8>
					//fir_load_vertical(FIR_0_1_BASE);
				}else if (observations[observation_idx].code == 'X'){
   21874:	00c01604 	movi	r3,88
   21878:	10c0031e 	bne	r2,r3,21888 <main+0x2b8>
					fir_load_inv_sobel(FIR_0_0_BASE);
   2187c:	010000f4 	movhi	r4,3
   21880:	21060004 	addi	r4,r4,6144
   21884:	0020ef80 	call	20ef8 <fir_load_inv_sobel>
					//fir_load_vertical(FIR_0_1_BASE);
				}

				//COM counter setup
				IOWR(COM_COUNTER_0_BASE, THRESH_ENABLED, 1);
   21888:	00c000f4 	movhi	r3,3
   2188c:	00800044 	movi	r2,1
   21890:	18c86804 	addi	r3,r3,8608
   21894:	18800035 	stwio	r2,0(r3)
				IOWR(COM_COUNTER_0_BASE, THRESH_Y, 200);
   21898:	00c000f4 	movhi	r3,3
   2189c:	00803204 	movi	r2,200
   218a0:	18c86904 	addi	r3,r3,8612
   218a4:	18800035 	stwio	r2,0(r3)
				IOWR(COM_COUNTER_0_BASE, THRESH_X, 10);
   218a8:	00c000f4 	movhi	r3,3
   218ac:	00800284 	movi	r2,10
   218b0:	18c86a04 	addi	r3,r3,8616
   218b4:	18800035 	stwio	r2,0(r3)
				IOWR(COM_COUNTER_0_BASE, THRESHOLD_GATE, observations[observation_idx].threshold);
   218b8:	d0a07417 	ldw	r2,-32304(gp)
   218bc:	00c000f4 	movhi	r3,3
   218c0:	18c86004 	addi	r3,r3,8576
   218c4:	1405883a 	add	r2,r2,r16
   218c8:	10800317 	ldw	r2,12(r2)
   218cc:	18800035 	stwio	r2,0(r3)


				//Wait two frame times
					usleep(delay);
   218d0:	d1207517 	ldw	r4,-32300(gp)
   218d4:	00246780 	call	24678 <usleep>


				//Collect results
				observations[observation_idx].mass = IORD(COM_COUNTER_0_BASE, COM_MASS);
   218d8:	d1a07417 	ldw	r6,-32304(gp)
   218dc:	3425883a 	add	r18,r6,r16
   218e0:	e7000037 	ldwio	fp,0(fp)
   218e4:	97000615 	stw	fp,24(r18)
				observations[observation_idx].com_x = IORD(COM_COUNTER_0_BASE, COM_X)/observations[observation_idx].mass;
   218e8:	b9000037 	ldwio	r4,0(r23)
   218ec:	e00b883a 	mov	r5,fp
   218f0:	d9800015 	stw	r6,0(sp)
   218f4:	0022cc40 	call	22cc4 <__divsi3>
   218f8:	90800415 	stw	r2,16(r18)
				observations[observation_idx].com_y = IORD(COM_COUNTER_0_BASE, COM_Y)/observations[observation_idx].mass;
   218fc:	b1000037 	ldwio	r4,0(r22)
   21900:	e00b883a 	mov	r5,fp
   21904:	0022cc40 	call	22cc4 <__divsi3>
   21908:	90800515 	stw	r2,20(r18)

				observations[observation_idx].bb_left = IORD(COM_COUNTER_0_BASE, BB_LOW_X);
   2190c:	a8800037 	ldwio	r2,0(r21)
   21910:	90800715 	stw	r2,28(r18)
				observations[observation_idx].bb_top = IORD(COM_COUNTER_0_BASE, BB_LOW_Y);
   21914:	a0800037 	ldwio	r2,0(r20)
   21918:	90800815 	stw	r2,32(r18)
				observations[observation_idx].bb_right = IORD(COM_COUNTER_0_BASE, BB_HIGH_X);
   2191c:	98800037 	ldwio	r2,0(r19)
				observations[observation_idx].bb_bottom = IORD(COM_COUNTER_0_BASE, BB_HIGH_Y);
   21920:	00c000f4 	movhi	r3,3
   21924:	18c86704 	addi	r3,r3,8604
				observations[observation_idx].com_x = IORD(COM_COUNTER_0_BASE, COM_X)/observations[observation_idx].mass;
				observations[observation_idx].com_y = IORD(COM_COUNTER_0_BASE, COM_Y)/observations[observation_idx].mass;

				observations[observation_idx].bb_left = IORD(COM_COUNTER_0_BASE, BB_LOW_X);
				observations[observation_idx].bb_top = IORD(COM_COUNTER_0_BASE, BB_LOW_Y);
				observations[observation_idx].bb_right = IORD(COM_COUNTER_0_BASE, BB_HIGH_X);
   21928:	90800915 	stw	r2,36(r18)
				observations[observation_idx].bb_bottom = IORD(COM_COUNTER_0_BASE, BB_HIGH_Y);
   2192c:	18800037 	ldwio	r2,0(r3)

				if (observations[observation_idx].code == 'W' ){
   21930:	00c015c4 	movi	r3,87
				observations[observation_idx].com_y = IORD(COM_COUNTER_0_BASE, COM_Y)/observations[observation_idx].mass;

				observations[observation_idx].bb_left = IORD(COM_COUNTER_0_BASE, BB_LOW_X);
				observations[observation_idx].bb_top = IORD(COM_COUNTER_0_BASE, BB_LOW_Y);
				observations[observation_idx].bb_right = IORD(COM_COUNTER_0_BASE, BB_HIGH_X);
				observations[observation_idx].bb_bottom = IORD(COM_COUNTER_0_BASE, BB_HIGH_Y);
   21934:	90800a15 	stw	r2,40(r18)

				if (observations[observation_idx].code == 'W' ){
   21938:	90800007 	ldb	r2,0(r18)
   2193c:	d9800017 	ldw	r6,0(sp)
   21940:	10c00f1e 	bne	r2,r3,21980 <main+0x3b0>
   21944:	008000f4 	movhi	r2,3
					for (int i = 0; i < 20; i++){
						histogram[i] = IORD(EDGE_BINS_0_BASE, i);
   21948:	01ffff74 	movhi	r7,65533
   2194c:	018000b4 	movhi	r6,2
				observations[observation_idx].bb_top = IORD(COM_COUNTER_0_BASE, BB_LOW_Y);
				observations[observation_idx].bb_right = IORD(COM_COUNTER_0_BASE, BB_HIGH_X);
				observations[observation_idx].bb_bottom = IORD(COM_COUNTER_0_BASE, BB_HIGH_Y);

				if (observations[observation_idx].code == 'W' ){
					for (int i = 0; i < 20; i++){
   21950:	010000f4 	movhi	r4,3
   21954:	10880004 	addi	r2,r2,8192
						histogram[i] = IORD(EDGE_BINS_0_BASE, i);
   21958:	39f80004 	addi	r7,r7,-8192
   2195c:	31965304 	addi	r6,r6,22860
				observations[observation_idx].bb_top = IORD(COM_COUNTER_0_BASE, BB_LOW_Y);
				observations[observation_idx].bb_right = IORD(COM_COUNTER_0_BASE, BB_HIGH_X);
				observations[observation_idx].bb_bottom = IORD(COM_COUNTER_0_BASE, BB_HIGH_Y);

				if (observations[observation_idx].code == 'W' ){
					for (int i = 0; i < 20; i++){
   21960:	21081404 	addi	r4,r4,8272
						histogram[i] = IORD(EDGE_BINS_0_BASE, i);
   21964:	11400037 	ldwio	r5,0(r2)
   21968:	11c7883a 	add	r3,r2,r7
   2196c:	1987883a 	add	r3,r3,r6
   21970:	19400015 	stw	r5,0(r3)
   21974:	10800104 	addi	r2,r2,4
				observations[observation_idx].bb_top = IORD(COM_COUNTER_0_BASE, BB_LOW_Y);
				observations[observation_idx].bb_right = IORD(COM_COUNTER_0_BASE, BB_HIGH_X);
				observations[observation_idx].bb_bottom = IORD(COM_COUNTER_0_BASE, BB_HIGH_Y);

				if (observations[observation_idx].code == 'W' ){
					for (int i = 0; i < 20; i++){
   21978:	113ffa1e 	bne	r2,r4,21964 <__alt_data_end+0xffff2f04>
   2197c:	00005706 	br	21adc <main+0x50c>
						histogram[i] = IORD(EDGE_BINS_0_BASE, i);
					}
				}else if (observations[observation_idx].code == 'X'){
   21980:	00c01604 	movi	r3,88
   21984:	10c0551e 	bne	r2,r3,21adc <main+0x50c>
   21988:	00c000f4 	movhi	r3,3
					for (int i = 0; i < 20; i++){
						histogram_processed[i] = histogram + IORD(EDGE_BINS_0_BASE, i);
   2198c:	027fff74 	movhi	r9,65533
   21990:	020000b4 	movhi	r8,2
   21994:	01c000b4 	movhi	r7,2
				if (observations[observation_idx].code == 'W' ){
					for (int i = 0; i < 20; i++){
						histogram[i] = IORD(EDGE_BINS_0_BASE, i);
					}
				}else if (observations[observation_idx].code == 'X'){
					for (int i = 0; i < 20; i++){
   21998:	014000f4 	movhi	r5,3
   2199c:	18c80004 	addi	r3,r3,8192
						histogram_processed[i] = histogram + IORD(EDGE_BINS_0_BASE, i);
   219a0:	4a780004 	addi	r9,r9,-8192
   219a4:	42163f04 	addi	r8,r8,22780
   219a8:	39d65304 	addi	r7,r7,22860
				if (observations[observation_idx].code == 'W' ){
					for (int i = 0; i < 20; i++){
						histogram[i] = IORD(EDGE_BINS_0_BASE, i);
					}
				}else if (observations[observation_idx].code == 'X'){
					for (int i = 0; i < 20; i++){
   219ac:	29481404 	addi	r5,r5,8272
						histogram_processed[i] = histogram + IORD(EDGE_BINS_0_BASE, i);
   219b0:	18800037 	ldwio	r2,0(r3)
   219b4:	1085883a 	add	r2,r2,r2
   219b8:	1a49883a 	add	r4,r3,r9
   219bc:	1085883a 	add	r2,r2,r2
   219c0:	2209883a 	add	r4,r4,r8
   219c4:	11c5883a 	add	r2,r2,r7
   219c8:	20800015 	stw	r2,0(r4)
   219cc:	18c00104 	addi	r3,r3,4
				if (observations[observation_idx].code == 'W' ){
					for (int i = 0; i < 20; i++){
						histogram[i] = IORD(EDGE_BINS_0_BASE, i);
					}
				}else if (observations[observation_idx].code == 'X'){
					for (int i = 0; i < 20; i++){
   219d0:	197ff71e 	bne	r3,r5,219b0 <__alt_data_end+0xffff2f50>
						histogram_processed[i] = histogram + IORD(EDGE_BINS_0_BASE, i);
					}

					merge_observations(&observations[observation_idx-1], &observations[observation_idx]);
   219d4:	813ff504 	addi	r4,r16,-44
   219d8:	340b883a 	add	r5,r6,r16
   219dc:	3109883a 	add	r4,r6,r4
   219e0:	0022a3c0 	call	22a3c <merge_observations>
   219e4:	00003d06 	br	21adc <main+0x50c>
				}


			}else {
				IOWR(COLOR_FILTER_0_BASE, APPLY_MASK, 1);
   219e8:	008000f4 	movhi	r2,3
   219ec:	10887204 	addi	r2,r2,8648
   219f0:	10c00035 	stwio	r3,0(r2)
				IOWR(COLOR_FILTER_0_BASE, THRESHOLD_LOW, observations[observation_idx].mask_bottom);
   219f4:	d0a07417 	ldw	r2,-32304(gp)
   219f8:	1405883a 	add	r2,r2,r16
   219fc:	11000117 	ldw	r4,4(r2)
   21a00:	008000f4 	movhi	r2,3
   21a04:	10887004 	addi	r2,r2,8640
   21a08:	11000035 	stwio	r4,0(r2)
				IOWR(COLOR_FILTER_0_BASE, THRESHOLD_HIGH, observations[observation_idx].mask_top);
   21a0c:	d0a07417 	ldw	r2,-32304(gp)
   21a10:	1405883a 	add	r2,r2,r16
   21a14:	11000217 	ldw	r4,8(r2)
   21a18:	008000f4 	movhi	r2,3
   21a1c:	10887104 	addi	r2,r2,8644
   21a20:	11000035 	stwio	r4,0(r2)

				fir_load_avg(FIR_0_0_BASE);
   21a24:	010000f4 	movhi	r4,3
   21a28:	21060004 	addi	r4,r4,6144
   21a2c:	d8c00015 	stw	r3,0(sp)
   21a30:	0020e900 	call	20e90 <fir_load_avg>
				//fir_load_unit(FIR_0_1_BASE);


				//COM counter setup
				IOWR(COM_COUNTER_0_BASE, THRESH_ENABLED, 1);
   21a34:	d8c00017 	ldw	r3,0(sp)
   21a38:	008000f4 	movhi	r2,3
   21a3c:	10886804 	addi	r2,r2,8608
   21a40:	10c00035 	stwio	r3,0(r2)
				IOWR(COM_COUNTER_0_BASE, THRESH_Y, 200);
   21a44:	00c000f4 	movhi	r3,3
   21a48:	00803204 	movi	r2,200
   21a4c:	18c86904 	addi	r3,r3,8612
   21a50:	18800035 	stwio	r2,0(r3)
				IOWR(COM_COUNTER_0_BASE, THRESH_X, 10);
   21a54:	00c000f4 	movhi	r3,3
   21a58:	00800284 	movi	r2,10
   21a5c:	18c86a04 	addi	r3,r3,8616
   21a60:	18800035 	stwio	r2,0(r3)
				IOWR(COM_COUNTER_0_BASE, THRESHOLD_GATE, observations[observation_idx].threshold);
   21a64:	d0a07417 	ldw	r2,-32304(gp)
   21a68:	00c000f4 	movhi	r3,3
   21a6c:	18c86004 	addi	r3,r3,8576
   21a70:	1405883a 	add	r2,r2,r16
   21a74:	10800317 	ldw	r2,12(r2)
   21a78:	18800035 	stwio	r2,0(r3)

				//Wait two frame times
				   usleep(delay);
   21a7c:	d1207517 	ldw	r4,-32300(gp)
   21a80:	00246780 	call	24678 <usleep>


				//Collect results
				observations[observation_idx].mass = IORD(COM_COUNTER_0_BASE, COM_MASS);
   21a84:	d0a07417 	ldw	r2,-32304(gp)
   21a88:	1421883a 	add	r16,r2,r16
   21a8c:	e7000037 	ldwio	fp,0(fp)
   21a90:	87000615 	stw	fp,24(r16)
				observations[observation_idx].com_x = IORD(COM_COUNTER_0_BASE, COM_X)/observations[observation_idx].mass;
   21a94:	b9000037 	ldwio	r4,0(r23)
   21a98:	e00b883a 	mov	r5,fp
   21a9c:	0022cc40 	call	22cc4 <__divsi3>
   21aa0:	80800415 	stw	r2,16(r16)
				observations[observation_idx].com_y = IORD(COM_COUNTER_0_BASE, COM_Y)/observations[observation_idx].mass;
   21aa4:	b1000037 	ldwio	r4,0(r22)
   21aa8:	e00b883a 	mov	r5,fp
   21aac:	0022cc40 	call	22cc4 <__divsi3>
   21ab0:	80800515 	stw	r2,20(r16)

				observations[observation_idx].bb_left = IORD(COM_COUNTER_0_BASE, BB_LOW_X);
   21ab4:	a8800037 	ldwio	r2,0(r21)
   21ab8:	80800715 	stw	r2,28(r16)
				observations[observation_idx].bb_top = IORD(COM_COUNTER_0_BASE, BB_LOW_Y);
   21abc:	a0800037 	ldwio	r2,0(r20)
   21ac0:	80800815 	stw	r2,32(r16)
				observations[observation_idx].bb_right = IORD(COM_COUNTER_0_BASE, BB_HIGH_X);
   21ac4:	98800037 	ldwio	r2,0(r19)
				observations[observation_idx].bb_bottom = IORD(COM_COUNTER_0_BASE, BB_HIGH_Y);
   21ac8:	00c000f4 	movhi	r3,3
   21acc:	18c86704 	addi	r3,r3,8604
				observations[observation_idx].com_x = IORD(COM_COUNTER_0_BASE, COM_X)/observations[observation_idx].mass;
				observations[observation_idx].com_y = IORD(COM_COUNTER_0_BASE, COM_Y)/observations[observation_idx].mass;

				observations[observation_idx].bb_left = IORD(COM_COUNTER_0_BASE, BB_LOW_X);
				observations[observation_idx].bb_top = IORD(COM_COUNTER_0_BASE, BB_LOW_Y);
				observations[observation_idx].bb_right = IORD(COM_COUNTER_0_BASE, BB_HIGH_X);
   21ad0:	80800915 	stw	r2,36(r16)
				observations[observation_idx].bb_bottom = IORD(COM_COUNTER_0_BASE, BB_HIGH_Y);
   21ad4:	18800037 	ldwio	r2,0(r3)
   21ad8:	80800a15 	stw	r2,40(r16)

			}

		   observation_idx++;
		   if (observation_idx == number_observations)observation_idx = 0;
   21adc:	d0a00417 	ldw	r2,-32752(gp)
				observations[observation_idx].bb_right = IORD(COM_COUNTER_0_BASE, BB_HIGH_X);
				observations[observation_idx].bb_bottom = IORD(COM_COUNTER_0_BASE, BB_HIGH_Y);

			}

		   observation_idx++;
   21ae0:	8c400044 	addi	r17,r17,1
		   if (observation_idx == number_observations)observation_idx = 0;
   21ae4:	8880011e 	bne	r17,r2,21aec <main+0x51c>
   21ae8:	0023883a 	mov	r17,zero
	   }

	   	   IOWR(LED_BASE, 0, debug * 511);
   21aec:	d0a07317 	ldw	r2,-32308(gp)
   21af0:	00c000f4 	movhi	r3,3
   21af4:	18c8d004 	addi	r3,r3,9024
   21af8:	10807fe4 	muli	r2,r2,511
   21afc:	18800035 	stwio	r2,0(r3)


	   //printf("Red %x, Green %x, Blue %x", red_average(), green_average(), blue_average());
	   process_input();
   21b00:	00212400 	call	21240 <process_input>
  }
   21b04:	003f2006 	br	21788 <__alt_data_end+0xffff2d28>

00021b08 <nSWAP16>:
	//y =  (((x) >> 8) & 0xff) | (((x) & 0xff) << 8);

//	y = x;
	y = (x >> 8) & 0x00ff;
	y |= (x << 8) & 0xff00;
	return y;
   21b08:	2004923a 	slli	r2,r4,8
   21b0c:	213fffcc 	andi	r4,r4,65535
   21b10:	2008d23a 	srli	r4,r4,8
}
   21b14:	1104b03a 	or	r2,r2,r4
   21b18:	f800283a 	ret

00021b1c <MipiBridgeRegWrite>:


void MipiBridgeRegWrite(alt_u16 Addr, alt_u16 Value){
   21b1c:	defffd04 	addi	sp,sp,-12
	const alt_u8 device_address = MIPI_BRIDGE_I2C_ADDR;
	OC_I2CL_Write(I2C_OPENCORES_MIPI_BASE, device_address, Addr, (alt_u8 *)&Value, sizeof(Value));
   21b20:	21bfffcc 	andi	r6,r4,65535
   21b24:	00800084 	movi	r2,2
   21b28:	010000f4 	movhi	r4,3
	y |= (x << 8) & 0xff00;
	return y;
}


void MipiBridgeRegWrite(alt_u16 Addr, alt_u16 Value){
   21b2c:	d940010d 	sth	r5,4(sp)
	const alt_u8 device_address = MIPI_BRIDGE_I2C_ADDR;
	OC_I2CL_Write(I2C_OPENCORES_MIPI_BASE, device_address, Addr, (alt_u8 *)&Value, sizeof(Value));
   21b30:	d8800015 	stw	r2,0(sp)
   21b34:	d9c00104 	addi	r7,sp,4
   21b38:	01400704 	movi	r5,28
   21b3c:	2108b004 	addi	r4,r4,8896
	y |= (x << 8) & 0xff00;
	return y;
}


void MipiBridgeRegWrite(alt_u16 Addr, alt_u16 Value){
   21b40:	dfc00215 	stw	ra,8(sp)
	const alt_u8 device_address = MIPI_BRIDGE_I2C_ADDR;
	OC_I2CL_Write(I2C_OPENCORES_MIPI_BASE, device_address, Addr, (alt_u8 *)&Value, sizeof(Value));
   21b44:	00206240 	call	20624 <OC_I2CL_Write>
}
   21b48:	dfc00217 	ldw	ra,8(sp)
   21b4c:	dec00304 	addi	sp,sp,12
   21b50:	f800283a 	ret

00021b54 <MipiBridgeRegRead>:

alt_u16 MipiBridgeRegRead(alt_u16 Addr){
   21b54:	defffd04 	addi	sp,sp,-12
	alt_u16 Value,tValue;
	const alt_u8 device_address = MIPI_BRIDGE_I2C_ADDR;

	OC_I2CL_Read(I2C_OPENCORES_MIPI_BASE,device_address, Addr,(alt_u8 *)&Value,sizeof(Value));
   21b58:	21bfffcc 	andi	r6,r4,65535
   21b5c:	00800084 	movi	r2,2
   21b60:	010000f4 	movhi	r4,3
   21b64:	d8800015 	stw	r2,0(sp)
   21b68:	d9c00104 	addi	r7,sp,4
   21b6c:	01400704 	movi	r5,28
   21b70:	2108b004 	addi	r4,r4,8896
void MipiBridgeRegWrite(alt_u16 Addr, alt_u16 Value){
	const alt_u8 device_address = MIPI_BRIDGE_I2C_ADDR;
	OC_I2CL_Write(I2C_OPENCORES_MIPI_BASE, device_address, Addr, (alt_u8 *)&Value, sizeof(Value));
}

alt_u16 MipiBridgeRegRead(alt_u16 Addr){
   21b74:	dfc00215 	stw	ra,8(sp)
	alt_u16 Value,tValue;
	const alt_u8 device_address = MIPI_BRIDGE_I2C_ADDR;

	OC_I2CL_Read(I2C_OPENCORES_MIPI_BASE,device_address, Addr,(alt_u8 *)&Value,sizeof(Value));
   21b78:	00207840 	call	20784 <OC_I2CL_Read>

	tValue = nSWAP16(Value);

	return (tValue);
   21b7c:	d8c0010b 	ldhu	r3,4(sp)
   21b80:	1804923a 	slli	r2,r3,8
   21b84:	1806d23a 	srli	r3,r3,8
}
   21b88:	10c4b03a 	or	r2,r2,r3
   21b8c:	dfc00217 	ldw	ra,8(sp)
   21b90:	dec00304 	addi	sp,sp,12
   21b94:	f800283a 	ret

00021b98 <MipiBridgeInit>:
void MipiBridgeInit(void){

	alt_u16 data;
    int i, num;

    if (print){
   21b98:	d0a07217 	ldw	r2,-32312(gp)
}




void MipiBridgeInit(void){
   21b9c:	defffa04 	addi	sp,sp,-24
   21ba0:	dfc00515 	stw	ra,20(sp)
   21ba4:	dd000415 	stw	r20,16(sp)
   21ba8:	dcc00315 	stw	r19,12(sp)
   21bac:	dc800215 	stw	r18,8(sp)
   21bb0:	dc400115 	stw	r17,4(sp)
   21bb4:	dc000015 	stw	r16,0(sp)

	alt_u16 data;
    int i, num;

    if (print){
   21bb8:	10000326 	beq	r2,zero,21bc8 <MipiBridgeInit+0x30>
    	printf("\nStart MipiBridgeInit!\n");
   21bbc:	010000b4 	movhi	r4,2
   21bc0:	2112d404 	addi	r4,r4,19280
   21bc4:	00232080 	call	23208 <puts>
    }
	data = MipiBridgeRegRead(0x0000); // read chip and revision id;
   21bc8:	0009883a 	mov	r4,zero
   21bcc:	0021b540 	call	21b54 <MipiBridgeRegRead>

	if (print){
   21bd0:	d0e07217 	ldw	r3,-32312(gp)
   21bd4:	18000426 	beq	r3,zero,21be8 <MipiBridgeInit+0x50>
		printf("Chip and Revision ID is 0x%04xh(expected: 0x4401);\n",data);
   21bd8:	010000b4 	movhi	r4,2
   21bdc:	117fffcc 	andi	r5,r2,65535
   21be0:	2112da04 	addi	r4,r4,19304
   21be4:	00231180 	call	23118 <printf>
   21be8:	040000b4 	movhi	r16,2
   21bec:	8412ed04 	addi	r16,r16,19380
}




void MipiBridgeInit(void){
   21bf0:	0023883a 	mov	r17,zero
	}

    num = sizeof(MipiBridgeReg)/sizeof(MipiBridgeReg[0]);

    for(i=0;i<num;i++){
   	 if (MipiBridgeReg[i].Addr == 0xFFFF)   usleep(MipiBridgeReg[i].Data*1000);
   21bf4:	84ffff84 	addi	r19,r16,-2
   21bf8:	053fffd4 	movui	r20,65535
		printf("Chip and Revision ID is 0x%04xh(expected: 0x4401);\n",data);
	}

    num = sizeof(MipiBridgeReg)/sizeof(MipiBridgeReg[0]);

    for(i=0;i<num;i++){
   21bfc:	04800d04 	movi	r18,52
   	 if (MipiBridgeReg[i].Addr == 0xFFFF)   usleep(MipiBridgeReg[i].Data*1000);
   21c00:	8cc5883a 	add	r2,r17,r19
   21c04:	1100000b 	ldhu	r4,0(r2)
   21c08:	2500041e 	bne	r4,r20,21c1c <MipiBridgeInit+0x84>
   21c0c:	8100000b 	ldhu	r4,0(r16)
   21c10:	2100fa24 	muli	r4,r4,1000
   21c14:	00246780 	call	24678 <usleep>
   21c18:	00000206 	br	21c24 <MipiBridgeInit+0x8c>
        else MipiBridgeRegWrite(MipiBridgeReg[i].Addr,  MipiBridgeReg[i].Data);
   21c1c:	8140000b 	ldhu	r5,0(r16)
   21c20:	0021b1c0 	call	21b1c <MipiBridgeRegWrite>
   21c24:	8c400104 	addi	r17,r17,4
   21c28:	84000104 	addi	r16,r16,4
		printf("Chip and Revision ID is 0x%04xh(expected: 0x4401);\n",data);
	}

    num = sizeof(MipiBridgeReg)/sizeof(MipiBridgeReg[0]);

    for(i=0;i<num;i++){
   21c2c:	8cbff41e 	bne	r17,r18,21c00 <__alt_data_end+0xffff31a0>
//     MipiBridgeRegWrite(0x0058,((cap<<6) + (HsRxRs<<4) + ClkDly_data));
//     MipiBridgeRegWrite(0x005A,((cap<<6) + (HsRxRs<<4) + ClkDly_data));
//     MipiBridgeRegWrite(0x005C,((cap<<6) + (HsRxRs<<4) + ClkDly_data));
//     MipiBridgeRegWrite(0x005E,((cap<<6) + (HsRxRs<<4) + ClkDly_data));
//
    if (print){
   21c30:	d0a07217 	ldw	r2,-32312(gp)
   21c34:	10000a26 	beq	r2,zero,21c60 <MipiBridgeInit+0xc8>
    	printf("End MipiBridgeInit!\n\n");
   21c38:	010000b4 	movhi	r4,2
   21c3c:	2112e704 	addi	r4,r4,19356
    }
}
   21c40:	dfc00517 	ldw	ra,20(sp)
   21c44:	dd000417 	ldw	r20,16(sp)
   21c48:	dcc00317 	ldw	r19,12(sp)
   21c4c:	dc800217 	ldw	r18,8(sp)
   21c50:	dc400117 	ldw	r17,4(sp)
   21c54:	dc000017 	ldw	r16,0(sp)
   21c58:	dec00604 	addi	sp,sp,24
//     MipiBridgeRegWrite(0x005A,((cap<<6) + (HsRxRs<<4) + ClkDly_data));
//     MipiBridgeRegWrite(0x005C,((cap<<6) + (HsRxRs<<4) + ClkDly_data));
//     MipiBridgeRegWrite(0x005E,((cap<<6) + (HsRxRs<<4) + ClkDly_data));
//
    if (print){
    	printf("End MipiBridgeInit!\n\n");
   21c5c:	00232081 	jmpi	23208 <puts>
    }
}
   21c60:	dfc00517 	ldw	ra,20(sp)
   21c64:	dd000417 	ldw	r20,16(sp)
   21c68:	dcc00317 	ldw	r19,12(sp)
   21c6c:	dc800217 	ldw	r18,8(sp)
   21c70:	dc400117 	ldw	r17,4(sp)
   21c74:	dc000017 	ldw	r16,0(sp)
   21c78:	dec00604 	addi	sp,sp,24
   21c7c:	f800283a 	ret

00021c80 <OV8865_read_cmos_sensor_8>:
   };




alt_u8 OV8865_read_cmos_sensor_8(alt_u16 Addr){
   21c80:	defffd04 	addi	sp,sp,-12
	const alt_u8 device_address = MIPI_I2C_ADDR;
	alt_u8 Value;

	//OC_I2CL_Write(I2C_OPENCORES_CAMERA_BASE, device_address, SWAP16(Addr), (alt_u8 *)&Value, sizeof(Value));
	OC_I2CL_Read(I2C_OPENCORES_CAMERA_BASE, device_address, Addr, (alt_u8 *)&Value, sizeof(Value));
   21c84:	21bfffcc 	andi	r6,r4,65535
   21c88:	00800044 	movi	r2,1
   21c8c:	010000f4 	movhi	r4,3
   21c90:	d8800015 	stw	r2,0(sp)
   21c94:	d9c00104 	addi	r7,sp,4
   21c98:	01401b04 	movi	r5,108
   21c9c:	2108a804 	addi	r4,r4,8864
   };




alt_u8 OV8865_read_cmos_sensor_8(alt_u16 Addr){
   21ca0:	dfc00215 	stw	ra,8(sp)
	const alt_u8 device_address = MIPI_I2C_ADDR;
	alt_u8 Value;

	//OC_I2CL_Write(I2C_OPENCORES_CAMERA_BASE, device_address, SWAP16(Addr), (alt_u8 *)&Value, sizeof(Value));
	OC_I2CL_Read(I2C_OPENCORES_CAMERA_BASE, device_address, Addr, (alt_u8 *)&Value, sizeof(Value));
   21ca4:	00207840 	call	20784 <OC_I2CL_Read>

	return (Value);
}
   21ca8:	d8800103 	ldbu	r2,4(sp)
   21cac:	dfc00217 	ldw	ra,8(sp)
   21cb0:	dec00304 	addi	sp,sp,12
   21cb4:	f800283a 	ret

00021cb8 <OV8865_write_cmos_sensor_8>:


void OV8865_write_cmos_sensor_8(alt_u16 Addr, alt_u8 Value){
   21cb8:	defffd04 	addi	sp,sp,-12
	const alt_u8 device_address = MIPI_I2C_ADDR;
	//OC_I2CL_Write(I2C_OPENCORES_CAMERA_BASE, device_address, SWAP16(Addr), (alt_u8 *)&Value, sizeof(Value));
	OC_I2CL_Write(I2C_OPENCORES_CAMERA_BASE, device_address, Addr, (alt_u8 *)&Value, sizeof(Value));
   21cbc:	21bfffcc 	andi	r6,r4,65535
   21cc0:	00800044 	movi	r2,1
   21cc4:	010000f4 	movhi	r4,3

	return (Value);
}


void OV8865_write_cmos_sensor_8(alt_u16 Addr, alt_u8 Value){
   21cc8:	d9400105 	stb	r5,4(sp)
	const alt_u8 device_address = MIPI_I2C_ADDR;
	//OC_I2CL_Write(I2C_OPENCORES_CAMERA_BASE, device_address, SWAP16(Addr), (alt_u8 *)&Value, sizeof(Value));
	OC_I2CL_Write(I2C_OPENCORES_CAMERA_BASE, device_address, Addr, (alt_u8 *)&Value, sizeof(Value));
   21ccc:	d8800015 	stw	r2,0(sp)
   21cd0:	d9c00104 	addi	r7,sp,4
   21cd4:	01401b04 	movi	r5,108
   21cd8:	2108a804 	addi	r4,r4,8864

	return (Value);
}


void OV8865_write_cmos_sensor_8(alt_u16 Addr, alt_u8 Value){
   21cdc:	dfc00215 	stw	ra,8(sp)
	const alt_u8 device_address = MIPI_I2C_ADDR;
	//OC_I2CL_Write(I2C_OPENCORES_CAMERA_BASE, device_address, SWAP16(Addr), (alt_u8 *)&Value, sizeof(Value));
	OC_I2CL_Write(I2C_OPENCORES_CAMERA_BASE, device_address, Addr, (alt_u8 *)&Value, sizeof(Value));
   21ce0:	00206240 	call	20624 <OC_I2CL_Write>
}
   21ce4:	dfc00217 	ldw	ra,8(sp)
   21ce8:	dec00304 	addi	sp,sp,12
   21cec:	f800283a 	ret

00021cf0 <OV8865_write_AF>:


void OV8865_write_AF(alt_u8 msb, alt_u8 lsb){
   21cf0:	defffd04 	addi	sp,sp,-12
	// VCM149C
	const alt_u8 device_address = MIPI_AF_I2C_ADDR;
	OC_I2C_Write(I2C_OPENCORES_CAMERA_BASE, device_address, msb, (alt_u8 *)&lsb, sizeof(lsb));
   21cf4:	21803fcc 	andi	r6,r4,255
   21cf8:	00800044 	movi	r2,1
   21cfc:	010000f4 	movhi	r4,3
	//OC_I2CL_Write(I2C_OPENCORES_CAMERA_BASE, device_address, SWAP16(Addr), (alt_u8 *)&Value, sizeof(Value));
	OC_I2CL_Write(I2C_OPENCORES_CAMERA_BASE, device_address, Addr, (alt_u8 *)&Value, sizeof(Value));
}


void OV8865_write_AF(alt_u8 msb, alt_u8 lsb){
   21d00:	d9400105 	stb	r5,4(sp)
	// VCM149C
	const alt_u8 device_address = MIPI_AF_I2C_ADDR;
	OC_I2C_Write(I2C_OPENCORES_CAMERA_BASE, device_address, msb, (alt_u8 *)&lsb, sizeof(lsb));
   21d04:	d8800015 	stw	r2,0(sp)
   21d08:	d9c00104 	addi	r7,sp,4
   21d0c:	01400604 	movi	r5,24
   21d10:	2108a804 	addi	r4,r4,8864
	//OC_I2CL_Write(I2C_OPENCORES_CAMERA_BASE, device_address, SWAP16(Addr), (alt_u8 *)&Value, sizeof(Value));
	OC_I2CL_Write(I2C_OPENCORES_CAMERA_BASE, device_address, Addr, (alt_u8 *)&Value, sizeof(Value));
}


void OV8865_write_AF(alt_u8 msb, alt_u8 lsb){
   21d14:	dfc00215 	stw	ra,8(sp)
	// VCM149C
	const alt_u8 device_address = MIPI_AF_I2C_ADDR;
	OC_I2C_Write(I2C_OPENCORES_CAMERA_BASE, device_address, msb, (alt_u8 *)&lsb, sizeof(lsb));
   21d18:	00202340 	call	20234 <OC_I2C_Write>
}
   21d1c:	dfc00217 	ldw	ra,8(sp)
   21d20:	dec00304 	addi	sp,sp,12
   21d24:	f800283a 	ret

00021d28 <OV8865_read_AF>:

void OV8865_read_AF(void){
   21d28:	defffe04 	addi	sp,sp,-8
	// VCM149C
	const alt_u8 device_address = MIPI_AF_I2C_ADDR;
	alt_u8 szData8[2];
	bool bSuccess;

		bSuccess = OC_I2C_Read_Continue(I2C_OPENCORES_CAMERA_BASE, device_address, szData8, sizeof(szData8));
   21d2c:	010000f4 	movhi	r4,3
   21d30:	01c00084 	movi	r7,2
   21d34:	d80d883a 	mov	r6,sp
   21d38:	01400604 	movi	r5,24
   21d3c:	2108a804 	addi	r4,r4,8864
	// VCM149C
	const alt_u8 device_address = MIPI_AF_I2C_ADDR;
	OC_I2C_Write(I2C_OPENCORES_CAMERA_BASE, device_address, msb, (alt_u8 *)&lsb, sizeof(lsb));
}

void OV8865_read_AF(void){
   21d40:	dfc00115 	stw	ra,4(sp)
	// VCM149C
	const alt_u8 device_address = MIPI_AF_I2C_ADDR;
	alt_u8 szData8[2];
	bool bSuccess;

		bSuccess = OC_I2C_Read_Continue(I2C_OPENCORES_CAMERA_BASE, device_address, szData8, sizeof(szData8));
   21d44:	00205200 	call	20520 <OC_I2C_Read_Continue>
		if (bSuccess & print)
   21d48:	d0e07217 	ldw	r3,-32312(gp)
   21d4c:	10c4703a 	and	r2,r2,r3
   21d50:	10000526 	beq	r2,zero,21d68 <OV8865_read_AF+0x40>
			printf("Read MSB=%xh, LSB=%xh\r\n", szData8[0], szData8[1]);
   21d54:	d9800043 	ldbu	r6,1(sp)
   21d58:	d9400003 	ldbu	r5,0(sp)
   21d5c:	010000b4 	movhi	r4,2
   21d60:	2112fa04 	addi	r4,r4,19432
   21d64:	00231180 	call	23118 <printf>
}
   21d68:	dfc00117 	ldw	ra,4(sp)
   21d6c:	dec00204 	addi	sp,sp,8
   21d70:	f800283a 	ret

00021d74 <OV8865_FOCUS_Move_to>:


void OV8865_FOCUS_Move_to(alt_u16 a_u2MovePosition)
{
   21d74:	defffe04 	addi	sp,sp,-8
   21d78:	dc000015 	stw	r16,0(sp)
   21d7c:	dfc00115 	stw	ra,4(sp)
   21d80:	2021883a 	mov	r16,r4
   21d84:	0080ffc4 	movi	r2,1023
   21d88:	213fffcc 	andi	r4,r4,65535
   21d8c:	1100012e 	bgeu	r2,r4,21d94 <OV8865_FOCUS_Move_to+0x20>
   21d90:	1021883a 	mov	r16,r2
  if (a_u2MovePosition > 1023)   {a_u2MovePosition = 1023;}
  if (a_u2MovePosition < 0)     {a_u2MovePosition = 0;}
  int bSuccess;

  Focus_Released(); // waiting for VCM release I2C bus
   21d94:	0020c8c0 	call	20c8c <Focus_Released>

	bSuccess = oc_i2c_init_ex(I2C_OPENCORES_CAMERA_BASE, 50*1000*1000,400*1000); //I2C: 400K
   21d98:	018001b4 	movhi	r6,6
   21d9c:	0140bef4 	movhi	r5,763
   21da0:	010000f4 	movhi	r4,3
   21da4:	3186a004 	addi	r6,r6,6784
   21da8:	297c2004 	addi	r5,r5,-3968
   21dac:	2108a804 	addi	r4,r4,8864
   21db0:	00200a00 	call	200a0 <oc_i2c_init_ex>
	if (!bSuccess & print)
   21db4:	d0e07217 	ldw	r3,-32312(gp)
   21db8:	1005003a 	cmpeq	r2,r2,zero
   21dbc:	10c4703a 	and	r2,r2,r3
   21dc0:	10000326 	beq	r2,zero,21dd0 <OV8865_FOCUS_Move_to+0x5c>
		printf("failed to init MIPI- Camera i2c\r\n");
   21dc4:	010000b4 	movhi	r4,2
   21dc8:	21130004 	addi	r4,r4,19456
   21dcc:	00232080 	call	23208 <puts>
  alt_u8 msb,lsb;
  msb = (a_u2MovePosition >> 4)&0x00FF;
  lsb = (a_u2MovePosition << 4 )&0x00F0;
  lsb += 0x06;
//	printf("Write MSB=%xh, LSB=%xh\r\n", msb, lsb);
	OV8865_write_AF(msb, lsb+0x6);
   21dd0:	813fffcc 	andi	r4,r16,65535
   21dd4:	200a913a 	slli	r5,r4,4
   21dd8:	2008d13a 	srli	r4,r4,4
   21ddc:	29400304 	addi	r5,r5,12
   21de0:	29403fcc 	andi	r5,r5,255
   21de4:	0021cf00 	call	21cf0 <OV8865_write_AF>
	usleep(1000);
   21de8:	0100fa04 	movi	r4,1000
   21dec:	00246780 	call	24678 <usleep>
//	OV8865_read_AF();

	oc_i2c_uninit(I2C_OPENCORES_CAMERA_BASE);  // Release I2C bus , due to two I2C master shared!
   21df0:	010000f4 	movhi	r4,3
   21df4:	2108a804 	addi	r4,r4,8864

}
   21df8:	dfc00117 	ldw	ra,4(sp)
   21dfc:	dc000017 	ldw	r16,0(sp)
   21e00:	dec00204 	addi	sp,sp,8
//	printf("Write MSB=%xh, LSB=%xh\r\n", msb, lsb);
	OV8865_write_AF(msb, lsb+0x6);
	usleep(1000);
//	OV8865_read_AF();

	oc_i2c_uninit(I2C_OPENCORES_CAMERA_BASE);  // Release I2C bus , due to two I2C master shared!
   21e04:	002014c1 	jmpi	2014c <oc_i2c_uninit>

00021e08 <OV8865SetExposure>:

}

void OV8865SetExposure(alt_u32 exposure){
   21e08:	defffe04 	addi	sp,sp,-8
   21e0c:	dfc00115 	stw	ra,4(sp)
   21e10:	dc000015 	stw	r16,0(sp)
   21e14:	2021883a 	mov	r16,r4

	Focus_Released(); // waiting for VCM release I2C bus
   21e18:	0020c8c0 	call	20c8c <Focus_Released>

	int bSuccess = oc_i2c_init_ex(I2C_OPENCORES_CAMERA_BASE, 50*1000*1000,400*1000); //I2C: 400K
   21e1c:	018001b4 	movhi	r6,6
   21e20:	0140bef4 	movhi	r5,763
   21e24:	010000f4 	movhi	r4,3
   21e28:	3186a004 	addi	r6,r6,6784
   21e2c:	297c2004 	addi	r5,r5,-3968
   21e30:	2108a804 	addi	r4,r4,8864
   21e34:	00200a00 	call	200a0 <oc_i2c_init_ex>
	if (!bSuccess & print)
   21e38:	d0e07217 	ldw	r3,-32312(gp)
   21e3c:	1005003a 	cmpeq	r2,r2,zero
   21e40:	10c4703a 	and	r2,r2,r3
   21e44:	10000326 	beq	r2,zero,21e54 <OV8865SetExposure+0x4c>
		printf("failed to init MIPI- Camera i2c\r\n");
   21e48:	010000b4 	movhi	r4,2
   21e4c:	21130004 	addi	r4,r4,19456
   21e50:	00232080 	call	23208 <puts>

	if (exposure > 0xFFFFF) exposure = 0xFFFFF;
   21e54:	00800434 	movhi	r2,16
   21e58:	10bfffc4 	addi	r2,r2,-1
   21e5c:	14000436 	bltu	r2,r16,21e70 <OV8865SetExposure+0x68>
	if (exposure < 0x20) exposure = 0x20;
   21e60:	008007c4 	movi	r2,31
   21e64:	14000336 	bltu	r2,r16,21e74 <OV8865SetExposure+0x6c>
   21e68:	04000804 	movi	r16,32
   21e6c:	00000106 	br	21e74 <OV8865SetExposure+0x6c>

	int bSuccess = oc_i2c_init_ex(I2C_OPENCORES_CAMERA_BASE, 50*1000*1000,400*1000); //I2C: 400K
	if (!bSuccess & print)
		printf("failed to init MIPI- Camera i2c\r\n");

	if (exposure > 0xFFFFF) exposure = 0xFFFFF;
   21e70:	1021883a 	mov	r16,r2
	if (exposure < 0x20) exposure = 0x20;

	OV8865_write_cmos_sensor_8(0x3500, (exposure >> 16) & 0x0F);
   21e74:	800ad43a 	srli	r5,r16,16
   21e78:	010d4004 	movi	r4,13568
   21e7c:	0021cb80 	call	21cb8 <OV8865_write_cmos_sensor_8>
	OV8865_write_cmos_sensor_8(0x3501, (exposure >> 8) & 0xFF);
   21e80:	800ad23a 	srli	r5,r16,8
   21e84:	010d4044 	movi	r4,13569
   21e88:	29403fcc 	andi	r5,r5,255
   21e8c:	0021cb80 	call	21cb8 <OV8865_write_cmos_sensor_8>
	OV8865_write_cmos_sensor_8(0x3502, exposure & 0xFF);
   21e90:	81403fcc 	andi	r5,r16,255
   21e94:	010d4084 	movi	r4,13570
   21e98:	0021cb80 	call	21cb8 <OV8865_write_cmos_sensor_8>


	oc_i2c_uninit(I2C_OPENCORES_CAMERA_BASE);
   21e9c:	010000f4 	movhi	r4,3
   21ea0:	2108a804 	addi	r4,r4,8864
}
   21ea4:	dfc00117 	ldw	ra,4(sp)
   21ea8:	dc000017 	ldw	r16,0(sp)
   21eac:	dec00204 	addi	sp,sp,8
	OV8865_write_cmos_sensor_8(0x3500, (exposure >> 16) & 0x0F);
	OV8865_write_cmos_sensor_8(0x3501, (exposure >> 8) & 0xFF);
	OV8865_write_cmos_sensor_8(0x3502, exposure & 0xFF);


	oc_i2c_uninit(I2C_OPENCORES_CAMERA_BASE);
   21eb0:	002014c1 	jmpi	2014c <oc_i2c_uninit>

00021eb4 <OV8865SetGain>:
}

void OV8865SetGain(alt_u16 gain){
   21eb4:	defffd04 	addi	sp,sp,-12
   21eb8:	dfc00215 	stw	ra,8(sp)
   21ebc:	dc400115 	stw	r17,4(sp)
   21ec0:	dc000015 	stw	r16,0(sp)
   21ec4:	2023883a 	mov	r17,r4
   21ec8:	2021883a 	mov	r16,r4

	Focus_Released(); // waiting for VCM release I2C bus
   21ecc:	0020c8c0 	call	20c8c <Focus_Released>

	int bSuccess = oc_i2c_init_ex(I2C_OPENCORES_CAMERA_BASE, 50*1000*1000,400*1000); //I2C: 400K
   21ed0:	018001b4 	movhi	r6,6
   21ed4:	0140bef4 	movhi	r5,763
   21ed8:	010000f4 	movhi	r4,3
   21edc:	3186a004 	addi	r6,r6,6784
   21ee0:	297c2004 	addi	r5,r5,-3968
   21ee4:	2108a804 	addi	r4,r4,8864
   21ee8:	00200a00 	call	200a0 <oc_i2c_init_ex>
	if (!bSuccess & print)
   21eec:	d0e07217 	ldw	r3,-32312(gp)
   21ef0:	1005003a 	cmpeq	r2,r2,zero
   21ef4:	10c4703a 	and	r2,r2,r3
   21ef8:	10000326 	beq	r2,zero,21f08 <OV8865SetGain+0x54>
		printf("failed to init MIPI- Camera i2c\r\n");
   21efc:	010000b4 	movhi	r4,2
   21f00:	21130004 	addi	r4,r4,19456
   21f04:	00232080 	call	23208 <puts>

	if (gain > 0x7FF) gain = 0x7FF;
   21f08:	843fffcc 	andi	r16,r16,65535
   21f0c:	0081ffc4 	movi	r2,2047
   21f10:	14000436 	bltu	r2,r16,21f24 <OV8865SetGain+0x70>
	if (gain < 0x080) gain = 0x080;
   21f14:	00801fc4 	movi	r2,127
   21f18:	14000336 	bltu	r2,r16,21f28 <OV8865SetGain+0x74>
   21f1c:	04402004 	movi	r17,128
   21f20:	00000106 	br	21f28 <OV8865SetGain+0x74>

	int bSuccess = oc_i2c_init_ex(I2C_OPENCORES_CAMERA_BASE, 50*1000*1000,400*1000); //I2C: 400K
	if (!bSuccess & print)
		printf("failed to init MIPI- Camera i2c\r\n");

	if (gain > 0x7FF) gain = 0x7FF;
   21f24:	1023883a 	mov	r17,r2
	if (gain < 0x080) gain = 0x080;

	OV8865_write_cmos_sensor_8(0x3508, (gain >> 8) & 0x0F);
   21f28:	897fffcc 	andi	r5,r17,65535
   21f2c:	280ad23a 	srli	r5,r5,8
   21f30:	010d4204 	movi	r4,13576
   21f34:	0021cb80 	call	21cb8 <OV8865_write_cmos_sensor_8>
	OV8865_write_cmos_sensor_8(0x3509, gain & 0xFF);
   21f38:	89403fcc 	andi	r5,r17,255
   21f3c:	010d4244 	movi	r4,13577
   21f40:	0021cb80 	call	21cb8 <OV8865_write_cmos_sensor_8>


	oc_i2c_uninit(I2C_OPENCORES_CAMERA_BASE);
   21f44:	010000f4 	movhi	r4,3
   21f48:	2108a804 	addi	r4,r4,8864
}
   21f4c:	dfc00217 	ldw	ra,8(sp)
   21f50:	dc400117 	ldw	r17,4(sp)
   21f54:	dc000017 	ldw	r16,0(sp)
   21f58:	dec00304 	addi	sp,sp,12

	OV8865_write_cmos_sensor_8(0x3508, (gain >> 8) & 0x0F);
	OV8865_write_cmos_sensor_8(0x3509, gain & 0xFF);


	oc_i2c_uninit(I2C_OPENCORES_CAMERA_BASE);
   21f5c:	002014c1 	jmpi	2014c <oc_i2c_uninit>

00021f60 <enableMWB>:
}

void enableMWB(){
   21f60:	deffff04 	addi	sp,sp,-4
   21f64:	dfc00015 	stw	ra,0(sp)

	Focus_Released(); // waiting for VCM release I2C bus
   21f68:	0020c8c0 	call	20c8c <Focus_Released>

	int bSuccess = oc_i2c_init_ex(I2C_OPENCORES_CAMERA_BASE, 50*1000*1000,400*1000); //I2C: 400K
   21f6c:	018001b4 	movhi	r6,6
   21f70:	0140bef4 	movhi	r5,763
   21f74:	010000f4 	movhi	r4,3
   21f78:	3186a004 	addi	r6,r6,6784
   21f7c:	297c2004 	addi	r5,r5,-3968
   21f80:	2108a804 	addi	r4,r4,8864
   21f84:	00200a00 	call	200a0 <oc_i2c_init_ex>
	if (!bSuccess & print )
   21f88:	d0e07217 	ldw	r3,-32312(gp)
   21f8c:	1005003a 	cmpeq	r2,r2,zero
   21f90:	10c4703a 	and	r2,r2,r3
   21f94:	10000326 	beq	r2,zero,21fa4 <enableMWB+0x44>
		printf("failed to init MIPI- Camera i2c\r\n");
   21f98:	010000b4 	movhi	r4,2
   21f9c:	21130004 	addi	r4,r4,19456
   21fa0:	00232080 	call	23208 <puts>

	OV8865_write_cmos_sensor_8(0x501e, 0 & 0x3);
   21fa4:	000b883a 	mov	r5,zero
   21fa8:	01140784 	movi	r4,20510
   21fac:	0021cb80 	call	21cb8 <OV8865_write_cmos_sensor_8>


	oc_i2c_uninit(I2C_OPENCORES_CAMERA_BASE);
   21fb0:	010000f4 	movhi	r4,3
   21fb4:	2108a804 	addi	r4,r4,8864
}
   21fb8:	dfc00017 	ldw	ra,0(sp)
   21fbc:	dec00104 	addi	sp,sp,4
		printf("failed to init MIPI- Camera i2c\r\n");

	OV8865_write_cmos_sensor_8(0x501e, 0 & 0x3);


	oc_i2c_uninit(I2C_OPENCORES_CAMERA_BASE);
   21fc0:	002014c1 	jmpi	2014c <oc_i2c_uninit>

00021fc4 <OV8865SetRedGain>:
}

void OV8865SetRedGain(alt_u16 gain){
   21fc4:	defffd04 	addi	sp,sp,-12
   21fc8:	dc400115 	stw	r17,4(sp)
   21fcc:	dc000015 	stw	r16,0(sp)
   21fd0:	dfc00215 	stw	ra,8(sp)
   21fd4:	2023883a 	mov	r17,r4
   21fd8:	2021883a 	mov	r16,r4

	Focus_Released(); // waiting for VCM release I2C bus
   21fdc:	0020c8c0 	call	20c8c <Focus_Released>

	int bSuccess = oc_i2c_init_ex(I2C_OPENCORES_CAMERA_BASE, 50*1000*1000,400*1000); //I2C: 400K
   21fe0:	018001b4 	movhi	r6,6
   21fe4:	0140bef4 	movhi	r5,763
   21fe8:	010000f4 	movhi	r4,3
   21fec:	3186a004 	addi	r6,r6,6784
   21ff0:	297c2004 	addi	r5,r5,-3968
   21ff4:	2108a804 	addi	r4,r4,8864
   21ff8:	00200a00 	call	200a0 <oc_i2c_init_ex>
	if (!bSuccess && print)
   21ffc:	1000051e 	bne	r2,zero,22014 <OV8865SetRedGain+0x50>
   22000:	d0a07217 	ldw	r2,-32312(gp)
   22004:	10000326 	beq	r2,zero,22014 <OV8865SetRedGain+0x50>
		printf("failed to init MIPI- Camera i2c\r\n");
   22008:	010000b4 	movhi	r4,2
   2200c:	21130004 	addi	r4,r4,19456
   22010:	00232080 	call	23208 <puts>

	if (gain > 0x7FF) gain = 0x7FF;
   22014:	8c7fffcc 	andi	r17,r17,65535
   22018:	0081ffc4 	movi	r2,2047
   2201c:	14400436 	bltu	r2,r17,22030 <OV8865SetRedGain+0x6c>
	if (gain < 0x080) gain = 0x080;
   22020:	00801fc4 	movi	r2,127
   22024:	14400336 	bltu	r2,r17,22034 <OV8865SetRedGain+0x70>
   22028:	04002004 	movi	r16,128
   2202c:	00000106 	br	22034 <OV8865SetRedGain+0x70>

	int bSuccess = oc_i2c_init_ex(I2C_OPENCORES_CAMERA_BASE, 50*1000*1000,400*1000); //I2C: 400K
	if (!bSuccess && print)
		printf("failed to init MIPI- Camera i2c\r\n");

	if (gain > 0x7FF) gain = 0x7FF;
   22030:	1021883a 	mov	r16,r2
	if (gain < 0x080) gain = 0x080;

	OV8865_write_cmos_sensor_8(0x5019, gain & 0x3F);
   22034:	81400fcc 	andi	r5,r16,63
   22038:	01140644 	movi	r4,20505
   2203c:	0021cb80 	call	21cb8 <OV8865_write_cmos_sensor_8>
	OV8865_write_cmos_sensor_8(0x5018, gain>>6 & 0xFF);
   22040:	817fffcc 	andi	r5,r16,65535
   22044:	280ad1ba 	srli	r5,r5,6
   22048:	01140604 	movi	r4,20504
   2204c:	0021cb80 	call	21cb8 <OV8865_write_cmos_sensor_8>


	oc_i2c_uninit(I2C_OPENCORES_CAMERA_BASE);
   22050:	010000f4 	movhi	r4,3
   22054:	2108a804 	addi	r4,r4,8864
}
   22058:	dfc00217 	ldw	ra,8(sp)
   2205c:	dc400117 	ldw	r17,4(sp)
   22060:	dc000017 	ldw	r16,0(sp)
   22064:	dec00304 	addi	sp,sp,12

	OV8865_write_cmos_sensor_8(0x5019, gain & 0x3F);
	OV8865_write_cmos_sensor_8(0x5018, gain>>6 & 0xFF);


	oc_i2c_uninit(I2C_OPENCORES_CAMERA_BASE);
   22068:	002014c1 	jmpi	2014c <oc_i2c_uninit>

0002206c <OV8865SetGreenGain>:
}
void OV8865SetGreenGain(alt_u16 gain){
   2206c:	defffd04 	addi	sp,sp,-12
   22070:	dc400115 	stw	r17,4(sp)
   22074:	dc000015 	stw	r16,0(sp)
   22078:	dfc00215 	stw	ra,8(sp)
   2207c:	2023883a 	mov	r17,r4
   22080:	2021883a 	mov	r16,r4

	Focus_Released(); // waiting for VCM release I2C bus
   22084:	0020c8c0 	call	20c8c <Focus_Released>

	int bSuccess = oc_i2c_init_ex(I2C_OPENCORES_CAMERA_BASE, 50*1000*1000,400*1000); //I2C: 400K
   22088:	018001b4 	movhi	r6,6
   2208c:	0140bef4 	movhi	r5,763
   22090:	010000f4 	movhi	r4,3
   22094:	3186a004 	addi	r6,r6,6784
   22098:	297c2004 	addi	r5,r5,-3968
   2209c:	2108a804 	addi	r4,r4,8864
   220a0:	00200a00 	call	200a0 <oc_i2c_init_ex>
	if (!bSuccess && print)
   220a4:	1000051e 	bne	r2,zero,220bc <OV8865SetGreenGain+0x50>
   220a8:	d0a07217 	ldw	r2,-32312(gp)
   220ac:	10000326 	beq	r2,zero,220bc <OV8865SetGreenGain+0x50>
		printf("failed to init MIPI- Camera i2c\r\n");
   220b0:	010000b4 	movhi	r4,2
   220b4:	21130004 	addi	r4,r4,19456
   220b8:	00232080 	call	23208 <puts>

	if (gain > 0x7FF) gain = 0x7FF;
   220bc:	8c7fffcc 	andi	r17,r17,65535
   220c0:	0081ffc4 	movi	r2,2047
   220c4:	14400436 	bltu	r2,r17,220d8 <OV8865SetGreenGain+0x6c>
	if (gain < 0x080) gain = 0x080;
   220c8:	00801fc4 	movi	r2,127
   220cc:	14400336 	bltu	r2,r17,220dc <OV8865SetGreenGain+0x70>
   220d0:	04002004 	movi	r16,128
   220d4:	00000106 	br	220dc <OV8865SetGreenGain+0x70>

	int bSuccess = oc_i2c_init_ex(I2C_OPENCORES_CAMERA_BASE, 50*1000*1000,400*1000); //I2C: 400K
	if (!bSuccess && print)
		printf("failed to init MIPI- Camera i2c\r\n");

	if (gain > 0x7FF) gain = 0x7FF;
   220d8:	1021883a 	mov	r16,r2
	if (gain < 0x080) gain = 0x080;

	OV8865_write_cmos_sensor_8(0x501B, (gain) & 0x0F);
   220dc:	814003cc 	andi	r5,r16,15
   220e0:	011406c4 	movi	r4,20507
   220e4:	0021cb80 	call	21cb8 <OV8865_write_cmos_sensor_8>
	OV8865_write_cmos_sensor_8(0x501A, gain>>6 & 0xFF);
   220e8:	817fffcc 	andi	r5,r16,65535
   220ec:	280ad1ba 	srli	r5,r5,6
   220f0:	01140684 	movi	r4,20506
   220f4:	0021cb80 	call	21cb8 <OV8865_write_cmos_sensor_8>


	oc_i2c_uninit(I2C_OPENCORES_CAMERA_BASE);
   220f8:	010000f4 	movhi	r4,3
   220fc:	2108a804 	addi	r4,r4,8864
}
   22100:	dfc00217 	ldw	ra,8(sp)
   22104:	dc400117 	ldw	r17,4(sp)
   22108:	dc000017 	ldw	r16,0(sp)
   2210c:	dec00304 	addi	sp,sp,12

	OV8865_write_cmos_sensor_8(0x501B, (gain) & 0x0F);
	OV8865_write_cmos_sensor_8(0x501A, gain>>6 & 0xFF);


	oc_i2c_uninit(I2C_OPENCORES_CAMERA_BASE);
   22110:	002014c1 	jmpi	2014c <oc_i2c_uninit>

00022114 <OV8865SetBlueGain>:
}

void OV8865SetBlueGain(alt_u16 gain){
   22114:	defffd04 	addi	sp,sp,-12
   22118:	dc400115 	stw	r17,4(sp)
   2211c:	dc000015 	stw	r16,0(sp)
   22120:	dfc00215 	stw	ra,8(sp)
   22124:	2023883a 	mov	r17,r4
   22128:	2021883a 	mov	r16,r4

	Focus_Released(); // waiting for VCM release I2C bus
   2212c:	0020c8c0 	call	20c8c <Focus_Released>

	int bSuccess = oc_i2c_init_ex(I2C_OPENCORES_CAMERA_BASE, 50*1000*1000,400*1000); //I2C: 400K
   22130:	018001b4 	movhi	r6,6
   22134:	0140bef4 	movhi	r5,763
   22138:	010000f4 	movhi	r4,3
   2213c:	3186a004 	addi	r6,r6,6784
   22140:	297c2004 	addi	r5,r5,-3968
   22144:	2108a804 	addi	r4,r4,8864
   22148:	00200a00 	call	200a0 <oc_i2c_init_ex>
	if (!bSuccess && print)
   2214c:	1000051e 	bne	r2,zero,22164 <OV8865SetBlueGain+0x50>
   22150:	d0a07217 	ldw	r2,-32312(gp)
   22154:	10000326 	beq	r2,zero,22164 <OV8865SetBlueGain+0x50>
		printf("failed to init MIPI- Camera i2c\r\n");
   22158:	010000b4 	movhi	r4,2
   2215c:	21130004 	addi	r4,r4,19456
   22160:	00232080 	call	23208 <puts>

	if (gain > 0x7FF) gain = 0x7FF;
   22164:	8c7fffcc 	andi	r17,r17,65535
   22168:	0081ffc4 	movi	r2,2047
   2216c:	14400436 	bltu	r2,r17,22180 <OV8865SetBlueGain+0x6c>
	if (gain < 0x080) gain = 0x080;
   22170:	00801fc4 	movi	r2,127
   22174:	14400336 	bltu	r2,r17,22184 <OV8865SetBlueGain+0x70>
   22178:	04002004 	movi	r16,128
   2217c:	00000106 	br	22184 <OV8865SetBlueGain+0x70>

	int bSuccess = oc_i2c_init_ex(I2C_OPENCORES_CAMERA_BASE, 50*1000*1000,400*1000); //I2C: 400K
	if (!bSuccess && print)
		printf("failed to init MIPI- Camera i2c\r\n");

	if (gain > 0x7FF) gain = 0x7FF;
   22180:	1021883a 	mov	r16,r2
	if (gain < 0x080) gain = 0x080;

	OV8865_write_cmos_sensor_8(0x501D, (gain) & 0x3F);
   22184:	81400fcc 	andi	r5,r16,63
   22188:	01140744 	movi	r4,20509
   2218c:	0021cb80 	call	21cb8 <OV8865_write_cmos_sensor_8>
	OV8865_write_cmos_sensor_8(0x501C, gain>>6 & 0xFF);
   22190:	817fffcc 	andi	r5,r16,65535
   22194:	280ad1ba 	srli	r5,r5,6
   22198:	01140704 	movi	r4,20508
   2219c:	0021cb80 	call	21cb8 <OV8865_write_cmos_sensor_8>


	oc_i2c_uninit(I2C_OPENCORES_CAMERA_BASE);
   221a0:	010000f4 	movhi	r4,3
   221a4:	2108a804 	addi	r4,r4,8864
}
   221a8:	dfc00217 	ldw	ra,8(sp)
   221ac:	dc400117 	ldw	r17,4(sp)
   221b0:	dc000017 	ldw	r16,0(sp)
   221b4:	dec00304 	addi	sp,sp,12

	OV8865_write_cmos_sensor_8(0x501D, (gain) & 0x3F);
	OV8865_write_cmos_sensor_8(0x501C, gain>>6 & 0xFF);


	oc_i2c_uninit(I2C_OPENCORES_CAMERA_BASE);
   221b8:	002014c1 	jmpi	2014c <oc_i2c_uninit>

000221bc <OV8865ReadAvg>:
}

alt_u32 OV8865ReadAvg(){
   221bc:	defffe04 	addi	sp,sp,-8
   221c0:	dfc00115 	stw	ra,4(sp)
   221c4:	dc000015 	stw	r16,0(sp)

	alt_u32 avg;

	Focus_Released(); // waiting for VCM release I2C bus
   221c8:	0020c8c0 	call	20c8c <Focus_Released>

	int bSuccess = oc_i2c_init_ex(I2C_OPENCORES_CAMERA_BASE, 50*1000*1000,400*1000); //I2C: 400K
   221cc:	018001b4 	movhi	r6,6
   221d0:	0140bef4 	movhi	r5,763
   221d4:	010000f4 	movhi	r4,3
   221d8:	3186a004 	addi	r6,r6,6784
   221dc:	297c2004 	addi	r5,r5,-3968
   221e0:	2108a804 	addi	r4,r4,8864
   221e4:	00200a00 	call	200a0 <oc_i2c_init_ex>
	if (!bSuccess && print)
   221e8:	1000051e 	bne	r2,zero,22200 <OV8865ReadAvg+0x44>
   221ec:	d0a07217 	ldw	r2,-32312(gp)
   221f0:	10000326 	beq	r2,zero,22200 <OV8865ReadAvg+0x44>
		printf("failed to init MIPI- Camera i2c\r\n");
   221f4:	010000b4 	movhi	r4,2
   221f8:	21130004 	addi	r4,r4,19456
   221fc:	00232080 	call	23208 <puts>

	avg = OV8865_read_cmos_sensor_8(0x568A);
   22200:	0115a284 	movi	r4,22154
   22204:	0021c800 	call	21c80 <OV8865_read_cmos_sensor_8>
	oc_i2c_uninit(I2C_OPENCORES_CAMERA_BASE);
   22208:	010000f4 	movhi	r4,3
   2220c:	2108a804 	addi	r4,r4,8864

	int bSuccess = oc_i2c_init_ex(I2C_OPENCORES_CAMERA_BASE, 50*1000*1000,400*1000); //I2C: 400K
	if (!bSuccess && print)
		printf("failed to init MIPI- Camera i2c\r\n");

	avg = OV8865_read_cmos_sensor_8(0x568A);
   22210:	1021883a 	mov	r16,r2
	oc_i2c_uninit(I2C_OPENCORES_CAMERA_BASE);
   22214:	002014c0 	call	2014c <oc_i2c_uninit>

	return avg;
}
   22218:	80803fcc 	andi	r2,r16,255
   2221c:	dfc00117 	ldw	ra,4(sp)
   22220:	dc000017 	ldw	r16,0(sp)
   22224:	dec00204 	addi	sp,sp,8
   22228:	f800283a 	ret

0002222c <OV8865ReadExposure>:

alt_u32 OV8865ReadExposure(){
   2222c:	defffe04 	addi	sp,sp,-8
   22230:	dfc00115 	stw	ra,4(sp)
   22234:	dc000015 	stw	r16,0(sp)

	alt_u32 exposure;

	Focus_Released(); // waiting for VCM release I2C bus
   22238:	0020c8c0 	call	20c8c <Focus_Released>

	int bSuccess = oc_i2c_init_ex(I2C_OPENCORES_CAMERA_BASE, 50*1000*1000,400*1000); //I2C: 400K
   2223c:	018001b4 	movhi	r6,6
   22240:	0140bef4 	movhi	r5,763
   22244:	010000f4 	movhi	r4,3
   22248:	3186a004 	addi	r6,r6,6784
   2224c:	297c2004 	addi	r5,r5,-3968
   22250:	2108a804 	addi	r4,r4,8864
   22254:	00200a00 	call	200a0 <oc_i2c_init_ex>
	if (!bSuccess && print)
   22258:	1000051e 	bne	r2,zero,22270 <OV8865ReadExposure+0x44>
   2225c:	d0a07217 	ldw	r2,-32312(gp)
   22260:	10000326 	beq	r2,zero,22270 <OV8865ReadExposure+0x44>
		printf("failed to init MIPI- Camera i2c\r\n");
   22264:	010000b4 	movhi	r4,2
   22268:	21130004 	addi	r4,r4,19456
   2226c:	00232080 	call	23208 <puts>

	exposure = OV8865_read_cmos_sensor_8(0x3500);
   22270:	010d4004 	movi	r4,13568
   22274:	0021c800 	call	21c80 <OV8865_read_cmos_sensor_8>
	exposure = (exposure <<8) | OV8865_read_cmos_sensor_8(0x3501);
   22278:	10803fcc 	andi	r2,r2,255
   2227c:	1020923a 	slli	r16,r2,8
   22280:	010d4044 	movi	r4,13569
   22284:	0021c800 	call	21c80 <OV8865_read_cmos_sensor_8>
	exposure = (exposure <<8) | OV8865_read_cmos_sensor_8(0x3502);
   22288:	10803fcc 	andi	r2,r2,255
   2228c:	1420b03a 	or	r16,r2,r16
   22290:	010d4084 	movi	r4,13570
   22294:	0021c800 	call	21c80 <OV8865_read_cmos_sensor_8>
   22298:	8020923a 	slli	r16,r16,8

	oc_i2c_uninit(I2C_OPENCORES_CAMERA_BASE);
   2229c:	010000f4 	movhi	r4,3
	if (!bSuccess && print)
		printf("failed to init MIPI- Camera i2c\r\n");

	exposure = OV8865_read_cmos_sensor_8(0x3500);
	exposure = (exposure <<8) | OV8865_read_cmos_sensor_8(0x3501);
	exposure = (exposure <<8) | OV8865_read_cmos_sensor_8(0x3502);
   222a0:	10803fcc 	andi	r2,r2,255

	oc_i2c_uninit(I2C_OPENCORES_CAMERA_BASE);
   222a4:	2108a804 	addi	r4,r4,8864
	if (!bSuccess && print)
		printf("failed to init MIPI- Camera i2c\r\n");

	exposure = OV8865_read_cmos_sensor_8(0x3500);
	exposure = (exposure <<8) | OV8865_read_cmos_sensor_8(0x3501);
	exposure = (exposure <<8) | OV8865_read_cmos_sensor_8(0x3502);
   222a8:	1420b03a 	or	r16,r2,r16

	oc_i2c_uninit(I2C_OPENCORES_CAMERA_BASE);
   222ac:	002014c0 	call	2014c <oc_i2c_uninit>

	return exposure;
}
   222b0:	8005883a 	mov	r2,r16
   222b4:	dfc00117 	ldw	ra,4(sp)
   222b8:	dc000017 	ldw	r16,0(sp)
   222bc:	dec00204 	addi	sp,sp,8
   222c0:	f800283a 	ret

000222c4 <MIPI_BIN_LEVEL>:




//ZOOM
void MIPI_BIN_LEVEL(alt_u8 level){
   222c4:	defffc04 	addi	sp,sp,-16
   222c8:	dc000015 	stw	r16,0(sp)
   222cc:	dfc00315 	stw	ra,12(sp)
   222d0:	2021883a 	mov	r16,r4
   222d4:	dc800215 	stw	r18,8(sp)
   222d8:	dc400115 	stw	r17,4(sp)
	if(level <= 1) level = 1;
   222dc:	21003fcc 	andi	r4,r4,255
   222e0:	00800044 	movi	r2,1
   222e4:	1100042e 	bgeu	r2,r4,222f8 <MIPI_BIN_LEVEL+0x34>
	if(level >= 3) level = 3;
   222e8:	00800084 	movi	r2,2
   222ec:	20800326 	beq	r4,r2,222fc <MIPI_BIN_LEVEL+0x38>
   222f0:	040000c4 	movi	r16,3
   222f4:	00000106 	br	222fc <MIPI_BIN_LEVEL+0x38>



//ZOOM
void MIPI_BIN_LEVEL(alt_u8 level){
	if(level <= 1) level = 1;
   222f8:	1021883a 	mov	r16,r2
	if(level >= 3) level = 3;

	  Focus_Released(); // waiting for VCM release I2C bus
   222fc:	0020c8c0 	call	20c8c <Focus_Released>

	  int bSuccess;
		bSuccess = oc_i2c_init_ex(I2C_OPENCORES_CAMERA_BASE, 50*1000*1000,400*1000); //I2C: 400K
   22300:	018001b4 	movhi	r6,6
   22304:	0140bef4 	movhi	r5,763
   22308:	010000f4 	movhi	r4,3
   2230c:	3186a004 	addi	r6,r6,6784
   22310:	297c2004 	addi	r5,r5,-3968
   22314:	2108a804 	addi	r4,r4,8864
   22318:	00200a00 	call	200a0 <oc_i2c_init_ex>
		if (!bSuccess && print)
   2231c:	1000051e 	bne	r2,zero,22334 <MIPI_BIN_LEVEL+0x70>
   22320:	d0a07217 	ldw	r2,-32312(gp)
   22324:	10000326 	beq	r2,zero,22334 <MIPI_BIN_LEVEL+0x70>
			printf("failed to init MIPI- Camera i2c\r\n");
   22328:	010000b4 	movhi	r4,2
   2232c:	21130004 	addi	r4,r4,19456
   22330:	00232080 	call	23208 <puts>


	OV8865_write_cmos_sensor_8(0x0100, 0x00);
   22334:	000b883a 	mov	r5,zero
   22338:	01004004 	movi	r4,256

	if(level == 1){
   2233c:	84003fcc 	andi	r16,r16,255
   22340:	04400044 	movi	r17,1
		bSuccess = oc_i2c_init_ex(I2C_OPENCORES_CAMERA_BASE, 50*1000*1000,400*1000); //I2C: 400K
		if (!bSuccess && print)
			printf("failed to init MIPI- Camera i2c\r\n");


	OV8865_write_cmos_sensor_8(0x0100, 0x00);
   22344:	0021cb80 	call	21cb8 <OV8865_write_cmos_sensor_8>

	if(level == 1){
   22348:	8440111e 	bne	r16,r17,22390 <MIPI_BIN_LEVEL+0xcc>

		OV8865_write_cmos_sensor_8(0x3814, 0x01);
   2234c:	800b883a 	mov	r5,r16
   22350:	010e0504 	movi	r4,14356
   22354:	0021cb80 	call	21cb8 <OV8865_write_cmos_sensor_8>
		OV8865_write_cmos_sensor_8(0x3815, 0x01);
   22358:	800b883a 	mov	r5,r16
   2235c:	010e0544 	movi	r4,14357
   22360:	0021cb80 	call	21cb8 <OV8865_write_cmos_sensor_8>
		OV8865_write_cmos_sensor_8(0x382a, 0x01);
   22364:	800b883a 	mov	r5,r16
   22368:	010e0a84 	movi	r4,14378
   2236c:	0021cb80 	call	21cb8 <OV8865_write_cmos_sensor_8>
		OV8865_write_cmos_sensor_8(0x382b, 0x01);
   22370:	800b883a 	mov	r5,r16
   22374:	010e0ac4 	movi	r4,14379
   22378:	0021cb80 	call	21cb8 <OV8865_write_cmos_sensor_8>

		OV8865_write_cmos_sensor_8(0x3830, 8);
   2237c:	01400204 	movi	r5,8
   22380:	010e0c04 	movi	r4,14384
   22384:	0021cb80 	call	21cb8 <OV8865_write_cmos_sensor_8>
		OV8865_write_cmos_sensor_8(0x3836, 2);
   22388:	01400084 	movi	r5,2
   2238c:	00002306 	br	2241c <MIPI_BIN_LEVEL+0x158>
	}
	else if(level == 2){
   22390:	04800084 	movi	r18,2
   22394:	8480111e 	bne	r16,r18,223dc <MIPI_BIN_LEVEL+0x118>

		OV8865_write_cmos_sensor_8(0x3814, 0x03);
   22398:	014000c4 	movi	r5,3
   2239c:	010e0504 	movi	r4,14356
   223a0:	0021cb80 	call	21cb8 <OV8865_write_cmos_sensor_8>
		OV8865_write_cmos_sensor_8(0x3815, 0x01);
   223a4:	880b883a 	mov	r5,r17
   223a8:	010e0544 	movi	r4,14357
   223ac:	0021cb80 	call	21cb8 <OV8865_write_cmos_sensor_8>
		OV8865_write_cmos_sensor_8(0x382a, 0x03);
   223b0:	014000c4 	movi	r5,3
   223b4:	010e0a84 	movi	r4,14378
   223b8:	0021cb80 	call	21cb8 <OV8865_write_cmos_sensor_8>
		OV8865_write_cmos_sensor_8(0x382b, 0x01);
   223bc:	880b883a 	mov	r5,r17
   223c0:	010e0ac4 	movi	r4,14379
   223c4:	0021cb80 	call	21cb8 <OV8865_write_cmos_sensor_8>

		OV8865_write_cmos_sensor_8(0x3830, 4);
   223c8:	01400104 	movi	r5,4
   223cc:	010e0c04 	movi	r4,14384
   223d0:	0021cb80 	call	21cb8 <OV8865_write_cmos_sensor_8>
		OV8865_write_cmos_sensor_8(0x3836, 1);
   223d4:	880b883a 	mov	r5,r17
   223d8:	00001006 	br	2241c <MIPI_BIN_LEVEL+0x158>

	}
	else if(level == 3){

		OV8865_write_cmos_sensor_8(0x3814, 0x07);
   223dc:	014001c4 	movi	r5,7
   223e0:	010e0504 	movi	r4,14356
   223e4:	0021cb80 	call	21cb8 <OV8865_write_cmos_sensor_8>
		OV8865_write_cmos_sensor_8(0x3815, 0x01);
   223e8:	880b883a 	mov	r5,r17
   223ec:	010e0544 	movi	r4,14357
   223f0:	0021cb80 	call	21cb8 <OV8865_write_cmos_sensor_8>
		OV8865_write_cmos_sensor_8(0x382a, 0x07);
   223f4:	014001c4 	movi	r5,7
   223f8:	010e0a84 	movi	r4,14378
   223fc:	0021cb80 	call	21cb8 <OV8865_write_cmos_sensor_8>
		OV8865_write_cmos_sensor_8(0x382b, 0x01);
   22400:	880b883a 	mov	r5,r17
   22404:	010e0ac4 	movi	r4,14379
   22408:	0021cb80 	call	21cb8 <OV8865_write_cmos_sensor_8>

		OV8865_write_cmos_sensor_8(0x3830, 8);
   2240c:	01400204 	movi	r5,8
   22410:	010e0c04 	movi	r4,14384
   22414:	0021cb80 	call	21cb8 <OV8865_write_cmos_sensor_8>
		OV8865_write_cmos_sensor_8(0x3836, 2);
   22418:	900b883a 	mov	r5,r18
   2241c:	010e0d84 	movi	r4,14390
   22420:	0021cb80 	call	21cb8 <OV8865_write_cmos_sensor_8>
	}
    usleep(10000);
   22424:	0109c404 	movi	r4,10000
   22428:	00246780 	call	24678 <usleep>
	OV8865_write_cmos_sensor_8(0x0100, 0x01);
   2242c:	01400044 	movi	r5,1
   22430:	01004004 	movi	r4,256
   22434:	0021cb80 	call	21cb8 <OV8865_write_cmos_sensor_8>

	oc_i2c_uninit(I2C_OPENCORES_CAMERA_BASE);  // Release I2C bus , due to two I2C master shared!
   22438:	010000f4 	movhi	r4,3
   2243c:	2108a804 	addi	r4,r4,8864

}
   22440:	dfc00317 	ldw	ra,12(sp)
   22444:	dc800217 	ldw	r18,8(sp)
   22448:	dc400117 	ldw	r17,4(sp)
   2244c:	dc000017 	ldw	r16,0(sp)
   22450:	dec00404 	addi	sp,sp,16
		OV8865_write_cmos_sensor_8(0x3836, 2);
	}
    usleep(10000);
	OV8865_write_cmos_sensor_8(0x0100, 0x01);

	oc_i2c_uninit(I2C_OPENCORES_CAMERA_BASE);  // Release I2C bus , due to two I2C master shared!
   22454:	002014c1 	jmpi	2014c <oc_i2c_uninit>

00022458 <MipiCameraInit>:
//		OV8865_write_cmos_sensor_8(0x0100, 0x01);
//}


void MipiCameraInit(void)
{
   22458:	defff904 	addi	sp,sp,-28
   2245c:	dfc00615 	stw	ra,24(sp)
   22460:	dd400515 	stw	r21,20(sp)
   22464:	dd000415 	stw	r20,16(sp)
   22468:	dcc00315 	stw	r19,12(sp)
   2246c:	dc800215 	stw	r18,8(sp)
   22470:	dc400115 	stw	r17,4(sp)
   22474:	dc000015 	stw	r16,0(sp)

    int i, num;
    int bSuccess;

    Focus_Released(); // waiting for VCM release I2C bus
   22478:	0020c8c0 	call	20c8c <Focus_Released>


		bSuccess = oc_i2c_init_ex(I2C_OPENCORES_CAMERA_BASE, 50*1000*1000,400*1000); //I2C: 400K
   2247c:	018001b4 	movhi	r6,6
   22480:	0140bef4 	movhi	r5,763
   22484:	010000f4 	movhi	r4,3
   22488:	3186a004 	addi	r6,r6,6784
   2248c:	297c2004 	addi	r5,r5,-3968
   22490:	2108a804 	addi	r4,r4,8864
   22494:	00200a00 	call	200a0 <oc_i2c_init_ex>
		if (!bSuccess && print)
   22498:	1000051e 	bne	r2,zero,224b0 <MipiCameraInit+0x58>
   2249c:	d0a07217 	ldw	r2,-32312(gp)
   224a0:	10000326 	beq	r2,zero,224b0 <MipiCameraInit+0x58>
			printf("failed to init MIPI- Camera i2c\r\n");
   224a4:	010000b4 	movhi	r4,2
   224a8:	21130004 	addi	r4,r4,19456
   224ac:	00232080 	call	23208 <puts>
//        OC_I2C_Write(I2C_OPENCORES_CAMERA_BASE, ii, 0x30,  (alt_u8 *)&data, 1);
//        usleep(10000);
//    }
//

		if(print){
   224b0:	d0a07217 	ldw	r2,-32312(gp)
   224b4:	10000626 	beq	r2,zero,224d0 <MipiCameraInit+0x78>
			 OV8865DB("\nStart MipiCameraInit -OV8865!\r\n");
   224b8:	010000b4 	movhi	r4,2
   224bc:	21130904 	addi	r4,r4,19492
   224c0:	00232080 	call	23208 <puts>
			 OV8865DB("Write Read Test!\n");
   224c4:	010000b4 	movhi	r4,2
   224c8:	21131104 	addi	r4,r4,19524
   224cc:	00232080 	call	23208 <puts>
//		OV8865_write_cmos_sensor_8(0x0100, 0x01);
//}


void MipiCameraInit(void)
{
   224d0:	0021883a 	mov	r16,zero

		if(print){
			 OV8865DB("\nStart MipiCameraInit -OV8865!\r\n");
			 OV8865DB("Write Read Test!\n");
		}
	    for(i=0;i<10;i++){
   224d4:	04400284 	movi	r17,10
	       OV8865_write_cmos_sensor_8(0x3809,i);
   224d8:	800b883a 	mov	r5,r16
   224dc:	010e0244 	movi	r4,14345
   224e0:	0021cb80 	call	21cb8 <OV8865_write_cmos_sensor_8>
	      usleep(100);
   224e4:	01001904 	movi	r4,100
   224e8:	00246780 	call	24678 <usleep>
	      	  if (print){
   224ec:	d0a07217 	ldw	r2,-32312(gp)
   224f0:	10000726 	beq	r2,zero,22510 <MipiCameraInit+0xb8>
	      		  printf("%d (%d)\n",OV8865_read_cmos_sensor_8(0x3809),i);
   224f4:	010e0244 	movi	r4,14345
   224f8:	0021c800 	call	21c80 <OV8865_read_cmos_sensor_8>
   224fc:	010000b4 	movhi	r4,2
   22500:	800d883a 	mov	r6,r16
   22504:	11403fcc 	andi	r5,r2,255
   22508:	21131604 	addi	r4,r4,19544
   2250c:	00231180 	call	23118 <printf>
	      	  }
	      usleep(100);
   22510:	01001904 	movi	r4,100

		if(print){
			 OV8865DB("\nStart MipiCameraInit -OV8865!\r\n");
			 OV8865DB("Write Read Test!\n");
		}
	    for(i=0;i<10;i++){
   22514:	84000044 	addi	r16,r16,1
	       OV8865_write_cmos_sensor_8(0x3809,i);
	      usleep(100);
	      	  if (print){
	      		  printf("%d (%d)\n",OV8865_read_cmos_sensor_8(0x3809),i);
	      	  }
	      usleep(100);
   22518:	00246780 	call	24678 <usleep>

		if(print){
			 OV8865DB("\nStart MipiCameraInit -OV8865!\r\n");
			 OV8865DB("Write Read Test!\n");
		}
	    for(i=0;i<10;i++){
   2251c:	847fee1e 	bne	r16,r17,224d8 <__alt_data_end+0xffff3a78>
   22520:	040000b4 	movhi	r16,2
   22524:	84132204 	addi	r16,r16,19592
   22528:	0023883a 	mov	r17,zero
	      usleep(100);
	    }
	 num = sizeof(MipiCameraReg)/sizeof(MipiCameraReg[0]);
     for(i=0;i<num;i++){

    	 if (MipiCameraReg[i].Type == TIME_DELAY)   usleep(MipiCameraReg[i].Data*100);
   2252c:	84bfff04 	addi	r18,r16,-4
   22530:	04c000c4 	movi	r19,3
    	 else if(MipiCameraReg[i].Type == END_OF_SCRIPT)   break;
   22534:	05000104 	movi	r20,4
    	 else if(MipiCameraReg[i].Type == 0x6c)   OV8865_write_cmos_sensor_8(MipiCameraReg[i].Addr, MipiCameraReg[i].Data);
   22538:	05401b04 	movi	r21,108
	      usleep(100);
	    }
	 num = sizeof(MipiCameraReg)/sizeof(MipiCameraReg[0]);
     for(i=0;i<num;i++){

    	 if (MipiCameraReg[i].Type == TIME_DELAY)   usleep(MipiCameraReg[i].Data*100);
   2253c:	8c85883a 	add	r2,r17,r18
   22540:	10800003 	ldbu	r2,0(r2)
   22544:	14c0041e 	bne	r2,r19,22558 <MipiCameraInit+0x100>
   22548:	81000003 	ldbu	r4,0(r16)
   2254c:	21001924 	muli	r4,r4,100
   22550:	00246780 	call	24678 <usleep>
   22554:	00001506 	br	225ac <MipiCameraInit+0x154>
    	 else if(MipiCameraReg[i].Type == END_OF_SCRIPT)   break;
   22558:	1500101e 	bne	r2,r20,2259c <MipiCameraInit+0x144>
    	 else if(MipiCameraReg[i].Type == 0x6c)   OV8865_write_cmos_sensor_8(MipiCameraReg[i].Addr, MipiCameraReg[i].Data);
     }


 	oc_i2c_uninit(I2C_OPENCORES_CAMERA_BASE);  // Release I2C bus , due to two I2C master shared!
   2255c:	010000f4 	movhi	r4,3
   22560:	2108a804 	addi	r4,r4,8864
   22564:	002014c0 	call	2014c <oc_i2c_uninit>


 	if (print){
   22568:	d0a07217 	ldw	r2,-32312(gp)
   2256c:	10001426 	beq	r2,zero,225c0 <MipiCameraInit+0x168>
 		OV8865DB("\nEnd MipiCameraInit! -OV8865!\r\n\n");
   22570:	010000b4 	movhi	r4,2
   22574:	21131904 	addi	r4,r4,19556
 	}
}
   22578:	dfc00617 	ldw	ra,24(sp)
   2257c:	dd400517 	ldw	r21,20(sp)
   22580:	dd000417 	ldw	r20,16(sp)
   22584:	dcc00317 	ldw	r19,12(sp)
   22588:	dc800217 	ldw	r18,8(sp)
   2258c:	dc400117 	ldw	r17,4(sp)
   22590:	dc000017 	ldw	r16,0(sp)
   22594:	dec00704 	addi	sp,sp,28

 	oc_i2c_uninit(I2C_OPENCORES_CAMERA_BASE);  // Release I2C bus , due to two I2C master shared!


 	if (print){
 		OV8865DB("\nEnd MipiCameraInit! -OV8865!\r\n\n");
   22598:	00232081 	jmpi	23208 <puts>
	 num = sizeof(MipiCameraReg)/sizeof(MipiCameraReg[0]);
     for(i=0;i<num;i++){

    	 if (MipiCameraReg[i].Type == TIME_DELAY)   usleep(MipiCameraReg[i].Data*100);
    	 else if(MipiCameraReg[i].Type == END_OF_SCRIPT)   break;
    	 else if(MipiCameraReg[i].Type == 0x6c)   OV8865_write_cmos_sensor_8(MipiCameraReg[i].Addr, MipiCameraReg[i].Data);
   2259c:	1540031e 	bne	r2,r21,225ac <MipiCameraInit+0x154>
   225a0:	81400003 	ldbu	r5,0(r16)
   225a4:	813fff8b 	ldhu	r4,-2(r16)
   225a8:	0021cb80 	call	21cb8 <OV8865_write_cmos_sensor_8>
   225ac:	8c400184 	addi	r17,r17,6
	      		  printf("%d (%d)\n",OV8865_read_cmos_sensor_8(0x3809),i);
	      	  }
	      usleep(100);
	    }
	 num = sizeof(MipiCameraReg)/sizeof(MipiCameraReg[0]);
     for(i=0;i<num;i++){
   225b0:	0081dd04 	movi	r2,1908
   225b4:	84000184 	addi	r16,r16,6
   225b8:	88bfe01e 	bne	r17,r2,2253c <__alt_data_end+0xffff3adc>
   225bc:	003fe706 	br	2255c <__alt_data_end+0xffff3afc>


 	if (print){
 		OV8865DB("\nEnd MipiCameraInit! -OV8865!\r\n\n");
 	}
}
   225c0:	dfc00617 	ldw	ra,24(sp)
   225c4:	dd400517 	ldw	r21,20(sp)
   225c8:	dd000417 	ldw	r20,16(sp)
   225cc:	dcc00317 	ldw	r19,12(sp)
   225d0:	dc800217 	ldw	r18,8(sp)
   225d4:	dc400117 	ldw	r17,4(sp)
   225d8:	dc000017 	ldw	r16,0(sp)
   225dc:	dec00704 	addi	sp,sp,28
   225e0:	f800283a 	ret

000225e4 <mipi_clear_error>:

#include "mipi_setup.h"


void mipi_clear_error(void){
   225e4:	defffe04 	addi	sp,sp,-8
	MipiBridgeRegWrite(MIPI_REG_CSIStatus,0x01FF); // clear error
   225e8:	01407fc4 	movi	r5,511
   225ec:	01001904 	movi	r4,100

#include "mipi_setup.h"


void mipi_clear_error(void){
   225f0:	dfc00115 	stw	ra,4(sp)
   225f4:	dc000015 	stw	r16,0(sp)
	MipiBridgeRegWrite(MIPI_REG_CSIStatus,0x01FF); // clear error
   225f8:	0021b1c0 	call	21b1c <MipiBridgeRegWrite>
	MipiBridgeRegWrite(MIPI_REG_MDLSynErr,0x0000); // clear error
   225fc:	000b883a 	mov	r5,zero
   22600:	01001a04 	movi	r4,104
   22604:	0021b1c0 	call	21b1c <MipiBridgeRegWrite>
	MipiBridgeRegWrite(MIPI_REG_FrmErrCnt,0x0000); // clear error
   22608:	000b883a 	mov	r5,zero
   2260c:	01002004 	movi	r4,128
   22610:	0021b1c0 	call	21b1c <MipiBridgeRegWrite>
	MipiBridgeRegWrite(MIPI_REG_MDLErrCnt, 0x0000); // clear error
   22614:	04002404 	movi	r16,144
   22618:	8009883a 	mov	r4,r16
   2261c:	000b883a 	mov	r5,zero
   22620:	0021b1c0 	call	21b1c <MipiBridgeRegWrite>

  	MipiBridgeRegWrite(0x0082,0x00);
   22624:	000b883a 	mov	r5,zero
   22628:	01002084 	movi	r4,130
   2262c:	0021b1c0 	call	21b1c <MipiBridgeRegWrite>
  	MipiBridgeRegWrite(0x0084,0x00);
   22630:	000b883a 	mov	r5,zero
   22634:	01002104 	movi	r4,132
   22638:	0021b1c0 	call	21b1c <MipiBridgeRegWrite>
  	MipiBridgeRegWrite(0x0086,0x00);
   2263c:	000b883a 	mov	r5,zero
   22640:	01002184 	movi	r4,134
   22644:	0021b1c0 	call	21b1c <MipiBridgeRegWrite>
  	MipiBridgeRegWrite(0x0088,0x00);
   22648:	000b883a 	mov	r5,zero
   2264c:	01002204 	movi	r4,136
   22650:	0021b1c0 	call	21b1c <MipiBridgeRegWrite>
  	MipiBridgeRegWrite(0x008A,0x00);
   22654:	000b883a 	mov	r5,zero
   22658:	01002284 	movi	r4,138
   2265c:	0021b1c0 	call	21b1c <MipiBridgeRegWrite>
  	MipiBridgeRegWrite(0x008C,0x00);
   22660:	000b883a 	mov	r5,zero
   22664:	01002304 	movi	r4,140
   22668:	0021b1c0 	call	21b1c <MipiBridgeRegWrite>
  	MipiBridgeRegWrite(0x008E,0x00);
   2266c:	000b883a 	mov	r5,zero
   22670:	01002384 	movi	r4,142
   22674:	0021b1c0 	call	21b1c <MipiBridgeRegWrite>
  	MipiBridgeRegWrite(0x0090,0x00);
   22678:	000b883a 	mov	r5,zero
   2267c:	8009883a 	mov	r4,r16
}
   22680:	dfc00117 	ldw	ra,4(sp)
   22684:	dc000017 	ldw	r16,0(sp)
   22688:	dec00204 	addi	sp,sp,8
  	MipiBridgeRegWrite(0x0086,0x00);
  	MipiBridgeRegWrite(0x0088,0x00);
  	MipiBridgeRegWrite(0x008A,0x00);
  	MipiBridgeRegWrite(0x008C,0x00);
  	MipiBridgeRegWrite(0x008E,0x00);
  	MipiBridgeRegWrite(0x0090,0x00);
   2268c:	0021b1c1 	jmpi	21b1c <MipiBridgeRegWrite>

00022690 <mipi_show_error_info>:
}

void mipi_show_error_info(void){
   22690:	defff904 	addi	sp,sp,-28

	alt_u16 PHY_status, SCI_status, MDLSynErr, FrmErrCnt, MDLErrCnt;

	PHY_status = MipiBridgeRegRead(MIPI_REG_PHYSta);
   22694:	01001884 	movi	r4,98
  	MipiBridgeRegWrite(0x008C,0x00);
  	MipiBridgeRegWrite(0x008E,0x00);
  	MipiBridgeRegWrite(0x0090,0x00);
}

void mipi_show_error_info(void){
   22698:	dfc00615 	stw	ra,24(sp)
   2269c:	dcc00515 	stw	r19,20(sp)
   226a0:	dc800415 	stw	r18,16(sp)
   226a4:	dc400315 	stw	r17,12(sp)
   226a8:	dc000215 	stw	r16,8(sp)

	alt_u16 PHY_status, SCI_status, MDLSynErr, FrmErrCnt, MDLErrCnt;

	PHY_status = MipiBridgeRegRead(MIPI_REG_PHYSta);
   226ac:	0021b540 	call	21b54 <MipiBridgeRegRead>
	SCI_status = MipiBridgeRegRead(MIPI_REG_CSIStatus);
   226b0:	01001904 	movi	r4,100

void mipi_show_error_info(void){

	alt_u16 PHY_status, SCI_status, MDLSynErr, FrmErrCnt, MDLErrCnt;

	PHY_status = MipiBridgeRegRead(MIPI_REG_PHYSta);
   226b4:	1023883a 	mov	r17,r2
	SCI_status = MipiBridgeRegRead(MIPI_REG_CSIStatus);
   226b8:	0021b540 	call	21b54 <MipiBridgeRegRead>
	MDLSynErr = MipiBridgeRegRead(MIPI_REG_MDLSynErr);
   226bc:	01001a04 	movi	r4,104
void mipi_show_error_info(void){

	alt_u16 PHY_status, SCI_status, MDLSynErr, FrmErrCnt, MDLErrCnt;

	PHY_status = MipiBridgeRegRead(MIPI_REG_PHYSta);
	SCI_status = MipiBridgeRegRead(MIPI_REG_CSIStatus);
   226c0:	1025883a 	mov	r18,r2
	MDLSynErr = MipiBridgeRegRead(MIPI_REG_MDLSynErr);
   226c4:	0021b540 	call	21b54 <MipiBridgeRegRead>
	FrmErrCnt = MipiBridgeRegRead(MIPI_REG_FrmErrCnt);
   226c8:	01002004 	movi	r4,128

	alt_u16 PHY_status, SCI_status, MDLSynErr, FrmErrCnt, MDLErrCnt;

	PHY_status = MipiBridgeRegRead(MIPI_REG_PHYSta);
	SCI_status = MipiBridgeRegRead(MIPI_REG_CSIStatus);
	MDLSynErr = MipiBridgeRegRead(MIPI_REG_MDLSynErr);
   226cc:	1027883a 	mov	r19,r2
	FrmErrCnt = MipiBridgeRegRead(MIPI_REG_FrmErrCnt);
   226d0:	0021b540 	call	21b54 <MipiBridgeRegRead>
	MDLErrCnt = MipiBridgeRegRead(MIPI_REG_MDLErrCnt);
   226d4:	01002404 	movi	r4,144
	alt_u16 PHY_status, SCI_status, MDLSynErr, FrmErrCnt, MDLErrCnt;

	PHY_status = MipiBridgeRegRead(MIPI_REG_PHYSta);
	SCI_status = MipiBridgeRegRead(MIPI_REG_CSIStatus);
	MDLSynErr = MipiBridgeRegRead(MIPI_REG_MDLSynErr);
	FrmErrCnt = MipiBridgeRegRead(MIPI_REG_FrmErrCnt);
   226d8:	1021883a 	mov	r16,r2
	MDLErrCnt = MipiBridgeRegRead(MIPI_REG_MDLErrCnt);
   226dc:	0021b540 	call	21b54 <MipiBridgeRegRead>
	if (print){
   226e0:	d0e07217 	ldw	r3,-32312(gp)
   226e4:	18000a26 	beq	r3,zero,22710 <mipi_show_error_info+0x80>
	printf("PHY_status=%xh, CSI_status=%xh, MDLSynErr=%xh, FrmErrCnt=%xh, MDLErrCnt=%xh\r\n", PHY_status, SCI_status, MDLSynErr,FrmErrCnt, MDLErrCnt);
   226e8:	10bfffcc 	andi	r2,r2,65535
   226ec:	843fffcc 	andi	r16,r16,65535
   226f0:	010000b4 	movhi	r4,2
   226f4:	d8800115 	stw	r2,4(sp)
   226f8:	dc000015 	stw	r16,0(sp)
   226fc:	99ffffcc 	andi	r7,r19,65535
   22700:	91bfffcc 	andi	r6,r18,65535
   22704:	897fffcc 	andi	r5,r17,65535
   22708:	2114fe04 	addi	r4,r4,21496
   2270c:	00231180 	call	23118 <printf>
	}
}
   22710:	dfc00617 	ldw	ra,24(sp)
   22714:	dcc00517 	ldw	r19,20(sp)
   22718:	dc800417 	ldw	r18,16(sp)
   2271c:	dc400317 	ldw	r17,12(sp)
   22720:	dc000217 	ldw	r16,8(sp)
   22724:	dec00704 	addi	sp,sp,28
   22728:	f800283a 	ret

0002272c <mipi_show_error_info_more>:

void mipi_show_error_info_more(void){
	if (print){
   2272c:	d0a07217 	ldw	r2,-32312(gp)
   22730:	10004c26 	beq	r2,zero,22864 <mipi_show_error_info_more+0x138>
	if (print){
	printf("PHY_status=%xh, CSI_status=%xh, MDLSynErr=%xh, FrmErrCnt=%xh, MDLErrCnt=%xh\r\n", PHY_status, SCI_status, MDLSynErr,FrmErrCnt, MDLErrCnt);
	}
}

void mipi_show_error_info_more(void){
   22734:	deffff04 	addi	sp,sp,-4
	if (print){
		printf("FrmErrCnt = %d\n",MipiBridgeRegRead(0x0080));
   22738:	01002004 	movi	r4,128
	if (print){
	printf("PHY_status=%xh, CSI_status=%xh, MDLSynErr=%xh, FrmErrCnt=%xh, MDLErrCnt=%xh\r\n", PHY_status, SCI_status, MDLSynErr,FrmErrCnt, MDLErrCnt);
	}
}

void mipi_show_error_info_more(void){
   2273c:	dfc00015 	stw	ra,0(sp)
	if (print){
		printf("FrmErrCnt = %d\n",MipiBridgeRegRead(0x0080));
   22740:	0021b540 	call	21b54 <MipiBridgeRegRead>
   22744:	010000b4 	movhi	r4,2
   22748:	100b883a 	mov	r5,r2
   2274c:	21151204 	addi	r4,r4,21576
   22750:	00231180 	call	23118 <printf>
		printf("CRCErrCnt = %d\n",MipiBridgeRegRead(0x0082));
   22754:	01002084 	movi	r4,130
   22758:	0021b540 	call	21b54 <MipiBridgeRegRead>
   2275c:	010000b4 	movhi	r4,2
   22760:	100b883a 	mov	r5,r2
   22764:	21151604 	addi	r4,r4,21592
   22768:	00231180 	call	23118 <printf>
		printf("CorErrCnt = %d\n",MipiBridgeRegRead(0x0084));
   2276c:	01002104 	movi	r4,132
   22770:	0021b540 	call	21b54 <MipiBridgeRegRead>
   22774:	010000b4 	movhi	r4,2
   22778:	100b883a 	mov	r5,r2
   2277c:	21151a04 	addi	r4,r4,21608
   22780:	00231180 	call	23118 <printf>
		printf("HdrErrCnt = %d\n",MipiBridgeRegRead(0x0086));
   22784:	01002184 	movi	r4,134
   22788:	0021b540 	call	21b54 <MipiBridgeRegRead>
   2278c:	010000b4 	movhi	r4,2
   22790:	100b883a 	mov	r5,r2
   22794:	21151e04 	addi	r4,r4,21624
   22798:	00231180 	call	23118 <printf>
		printf("EIDErrCnt = %d\n",MipiBridgeRegRead(0x0088));
   2279c:	01002204 	movi	r4,136
   227a0:	0021b540 	call	21b54 <MipiBridgeRegRead>
   227a4:	010000b4 	movhi	r4,2
   227a8:	100b883a 	mov	r5,r2
   227ac:	21152204 	addi	r4,r4,21640
   227b0:	00231180 	call	23118 <printf>
		printf("CtlErrCnt = %d\n",MipiBridgeRegRead(0x008A));
   227b4:	01002284 	movi	r4,138
   227b8:	0021b540 	call	21b54 <MipiBridgeRegRead>
   227bc:	010000b4 	movhi	r4,2
   227c0:	100b883a 	mov	r5,r2
   227c4:	21152604 	addi	r4,r4,21656
   227c8:	00231180 	call	23118 <printf>
		printf("SoTErrCnt = %d\n",MipiBridgeRegRead(0x008C));
   227cc:	01002304 	movi	r4,140
   227d0:	0021b540 	call	21b54 <MipiBridgeRegRead>
   227d4:	010000b4 	movhi	r4,2
   227d8:	100b883a 	mov	r5,r2
   227dc:	21152a04 	addi	r4,r4,21672
   227e0:	00231180 	call	23118 <printf>
		printf("SynErrCnt = %d\n",MipiBridgeRegRead(0x008E));
   227e4:	01002384 	movi	r4,142
   227e8:	0021b540 	call	21b54 <MipiBridgeRegRead>
   227ec:	010000b4 	movhi	r4,2
   227f0:	100b883a 	mov	r5,r2
   227f4:	21152e04 	addi	r4,r4,21688
   227f8:	00231180 	call	23118 <printf>
		printf("MDLErrCnt = %d\n",MipiBridgeRegRead(0x0090));
   227fc:	01002404 	movi	r4,144
   22800:	0021b540 	call	21b54 <MipiBridgeRegRead>
   22804:	010000b4 	movhi	r4,2
   22808:	100b883a 	mov	r5,r2
   2280c:	21153204 	addi	r4,r4,21704
   22810:	00231180 	call	23118 <printf>
		printf("FIFOSTATUS = %d\n",MipiBridgeRegRead(0x00F8));
   22814:	01003e04 	movi	r4,248
   22818:	0021b540 	call	21b54 <MipiBridgeRegRead>
   2281c:	010000b4 	movhi	r4,2
   22820:	100b883a 	mov	r5,r2
   22824:	21153604 	addi	r4,r4,21720
   22828:	00231180 	call	23118 <printf>
		printf("DataType = 0x%04x\n",MipiBridgeRegRead(0x006A));
   2282c:	01001a84 	movi	r4,106
   22830:	0021b540 	call	21b54 <MipiBridgeRegRead>
   22834:	010000b4 	movhi	r4,2
   22838:	100b883a 	mov	r5,r2
   2283c:	21153b04 	addi	r4,r4,21740
   22840:	00231180 	call	23118 <printf>
		printf("CSIPktLen = %d\n",MipiBridgeRegRead(0x006E));
   22844:	01001b84 	movi	r4,110
   22848:	0021b540 	call	21b54 <MipiBridgeRegRead>
   2284c:	010000b4 	movhi	r4,2
   22850:	100b883a 	mov	r5,r2
   22854:	21154004 	addi	r4,r4,21760
	}
}
   22858:	dfc00017 	ldw	ra,0(sp)
   2285c:	dec00104 	addi	sp,sp,4
		printf("SoTErrCnt = %d\n",MipiBridgeRegRead(0x008C));
		printf("SynErrCnt = %d\n",MipiBridgeRegRead(0x008E));
		printf("MDLErrCnt = %d\n",MipiBridgeRegRead(0x0090));
		printf("FIFOSTATUS = %d\n",MipiBridgeRegRead(0x00F8));
		printf("DataType = 0x%04x\n",MipiBridgeRegRead(0x006A));
		printf("CSIPktLen = %d\n",MipiBridgeRegRead(0x006E));
   22860:	00231181 	jmpi	23118 <printf>
   22864:	f800283a 	ret

00022868 <MIPI_Init>:

bool MIPI_Init(void){
	bool bSuccess;


	bSuccess = oc_i2c_init_ex(I2C_OPENCORES_MIPI_BASE, 50*1000*1000,400*1000); //I2C: 400K
   22868:	018001b4 	movhi	r6,6
   2286c:	0140bef4 	movhi	r5,763
   22870:	010000f4 	movhi	r4,3
	}
}



bool MIPI_Init(void){
   22874:	defffe04 	addi	sp,sp,-8
	bool bSuccess;


	bSuccess = oc_i2c_init_ex(I2C_OPENCORES_MIPI_BASE, 50*1000*1000,400*1000); //I2C: 400K
   22878:	3186a004 	addi	r6,r6,6784
   2287c:	297c2004 	addi	r5,r5,-3968
   22880:	2108b004 	addi	r4,r4,8896
	}
}



bool MIPI_Init(void){
   22884:	dc000015 	stw	r16,0(sp)
   22888:	dfc00115 	stw	ra,4(sp)
	bool bSuccess;


	bSuccess = oc_i2c_init_ex(I2C_OPENCORES_MIPI_BASE, 50*1000*1000,400*1000); //I2C: 400K
   2288c:	00200a00 	call	200a0 <oc_i2c_init_ex>
	if (!bSuccess & print)
   22890:	1007003a 	cmpeq	r3,r2,zero

bool MIPI_Init(void){
	bool bSuccess;


	bSuccess = oc_i2c_init_ex(I2C_OPENCORES_MIPI_BASE, 50*1000*1000,400*1000); //I2C: 400K
   22894:	1021883a 	mov	r16,r2
	if (!bSuccess & print)
   22898:	d0a07217 	ldw	r2,-32312(gp)
   2289c:	1884703a 	and	r2,r3,r2
   228a0:	10000326 	beq	r2,zero,228b0 <MIPI_Init+0x48>
		printf("failed to init MIPI- Bridge i2c\r\n");
   228a4:	010000b4 	movhi	r4,2
   228a8:	21154404 	addi	r4,r4,21776
   228ac:	00232080 	call	23208 <puts>

    usleep(50*1000);
   228b0:	0130d414 	movui	r4,50000
   228b4:	00246780 	call	24678 <usleep>
    MipiBridgeInit();
   228b8:	0021b980 	call	21b98 <MipiBridgeInit>

    usleep(500*1000);
   228bc:	01000234 	movhi	r4,8
   228c0:	21284804 	addi	r4,r4,-24288
   228c4:	00246780 	call	24678 <usleep>

    MipiCameraInit();
   228c8:	00224580 	call	22458 <MipiCameraInit>
    MIPI_BIN_LEVEL(DEFAULT_LEVEL);
   228cc:	010000c4 	movi	r4,3
   228d0:	00222c40 	call	222c4 <MIPI_BIN_LEVEL>

 	usleep(1000);
   228d4:	0100fa04 	movi	r4,1000
   228d8:	00246780 	call	24678 <usleep>
	return bSuccess;
}
   228dc:	8005883a 	mov	r2,r16
   228e0:	dfc00117 	ldw	ra,4(sp)
   228e4:	dc000017 	ldw	r16,0(sp)
   228e8:	dec00204 	addi	sp,sp,8
   228ec:	f800283a 	ret

000228f0 <wait_sop>:

void wait_eop(){
	usleep(100000);
}
void wait_sop(){
	usleep(100000);
   228f0:	010000b4 	movhi	r4,2
   228f4:	2121a804 	addi	r4,r4,-31072
   228f8:	00246781 	jmpi	24678 <usleep>

000228fc <wait_eop>:
   228fc:	00228f01 	jmpi	228f0 <wait_sop>

00022900 <to_hex_code>:
}



int to_hex_code (int r, int g, int b){
	return (r<<16) + (g<<8) +  b;
   22900:	2008943a 	slli	r4,r4,16
   22904:	280a923a 	slli	r5,r5,8
   22908:	2145883a 	add	r2,r4,r5
}
   2290c:	1185883a 	add	r2,r2,r6
   22910:	f800283a 	ret

00022914 <initialize_observations>:


struct observation* initialize_observations(){

	struct observation* arr = malloc(number_observations * sizeof(struct observation));
   22914:	d1200417 	ldw	r4,-32752(gp)
int to_hex_code (int r, int g, int b){
	return (r<<16) + (g<<8) +  b;
}


struct observation* initialize_observations(){
   22918:	deffff04 	addi	sp,sp,-4
   2291c:	dfc00015 	stw	ra,0(sp)

	struct observation* arr = malloc(number_observations * sizeof(struct observation));
   22920:	21000b24 	muli	r4,r4,44
   22924:	0022e780 	call	22e78 <malloc>
	arr[0].mask_bottom = to_hex_code(0,140,150);
	arr[0].mask_top = to_hex_code(8,255,250);
	arr[0].threshold = 192;

	//Initialize lime ball parameters +
	arr[1].code = 'L';
   22928:	01401304 	movi	r5,76
   2292c:	11400b05 	stb	r5,44(r2)
	arr[1].mask_bottom = to_hex_code(55,60,100);
   22930:	01400df4 	movhi	r5,55
   22934:	294f1904 	addi	r5,r5,15460
   22938:	11400c15 	stw	r5,48(r2)
	arr[1].mask_top = to_hex_code(75,160,250);
   2293c:	01401334 	movhi	r5,76
   22940:	29683e84 	addi	r5,r5,-24326
   22944:	11400d15 	stw	r5,52(r2)
	arr[1].threshold = 192;

	//Initialize blue ball parameters --
	arr[2].code = 'B';
   22948:	01401084 	movi	r5,66
   2294c:	11401605 	stb	r5,88(r2)
	arr[2].mask_bottom = to_hex_code(105,80,50);
   22950:	01401a74 	movhi	r5,105
   22954:	29540c84 	addi	r5,r5,20530
   22958:	11401715 	stw	r5,92(r2)
	arr[2].mask_top = to_hex_code(125,255,128);
   2295c:	01401fb4 	movhi	r5,126
   22960:	297fe004 	addi	r5,r5,-128
   22964:	11401815 	stw	r5,96(r2)
	arr[2].threshold = 192;

	//Initialize yellow ball parameters
	arr[3].code = 'Y';
   22968:	01401644 	movi	r5,89
   2296c:	11402105 	stb	r5,132(r2)
	arr[3].mask_bottom = to_hex_code(8,100,180);
   22970:	01400234 	movhi	r5,8
   22974:	29592d04 	addi	r5,r5,25780
   22978:	11402215 	stw	r5,136(r2)
	arr[3].mask_top = to_hex_code(25,140,240);
   2297c:	014006b4 	movhi	r5,26
   22980:	29633c04 	addi	r5,r5,-29456
   22984:	11402315 	stw	r5,140(r2)
	arr[3].threshold = 192;

	//Initialize green ball parameters
	arr[4].code = 'G';
   22988:	014011c4 	movi	r5,71
   2298c:	11402c05 	stb	r5,176(r2)
	arr[4].mask_bottom = to_hex_code(80,60,50);
   22990:	01401434 	movhi	r5,80
   22994:	294f0c84 	addi	r5,r5,15410
   22998:	11402d15 	stw	r5,180(r2)
	arr[4].mask_top = to_hex_code(90,128, 128);
   2299c:	014016f4 	movhi	r5,91
struct observation* initialize_observations(){

	struct observation* arr = malloc(number_observations * sizeof(struct observation));

//Initialize Red low ball parameters --
	arr[0].code = 'R';
   229a0:	01001484 	movi	r4,82
	arr[3].threshold = 192;

	//Initialize green ball parameters
	arr[4].code = 'G';
	arr[4].mask_bottom = to_hex_code(80,60,50);
	arr[4].mask_top = to_hex_code(90,128, 128);
   229a4:	29602004 	addi	r5,r5,-32640
struct observation* initialize_observations(){

	struct observation* arr = malloc(number_observations * sizeof(struct observation));

//Initialize Red low ball parameters --
	arr[0].code = 'R';
   229a8:	11000005 	stb	r4,0(r2)
	arr[3].threshold = 192;

	//Initialize green ball parameters
	arr[4].code = 'G';
	arr[4].mask_bottom = to_hex_code(80,60,50);
	arr[4].mask_top = to_hex_code(90,128, 128);
   229ac:	11402e15 	stw	r5,184(r2)

	struct observation* arr = malloc(number_observations * sizeof(struct observation));

//Initialize Red low ball parameters --
	arr[0].code = 'R';
	arr[0].mask_bottom = to_hex_code(0,140,150);
   229b0:	01232594 	movui	r4,35990
	arr[4].mask_top = to_hex_code(90,128, 128);
	arr[4].threshold = 192;


	//Initialize pink ball parameters +
	arr[5].code = 'P';
   229b4:	01401404 	movi	r5,80

	struct observation* arr = malloc(number_observations * sizeof(struct observation));

//Initialize Red low ball parameters --
	arr[0].code = 'R';
	arr[0].mask_bottom = to_hex_code(0,140,150);
   229b8:	11000115 	stw	r4,4(r2)
	arr[4].mask_top = to_hex_code(90,128, 128);
	arr[4].threshold = 192;


	//Initialize pink ball parameters +
	arr[5].code = 'P';
   229bc:	11403705 	stb	r5,220(r2)
	struct observation* arr = malloc(number_observations * sizeof(struct observation));

//Initialize Red low ball parameters --
	arr[0].code = 'R';
	arr[0].mask_bottom = to_hex_code(0,140,150);
	arr[0].mask_top = to_hex_code(8,255,250);
   229c0:	01000274 	movhi	r4,9
	arr[4].threshold = 192;


	//Initialize pink ball parameters +
	arr[5].code = 'P';
	arr[5].mask_bottom = to_hex_code(0,80,150);
   229c4:	01542584 	movi	r5,20630
	struct observation* arr = malloc(number_observations * sizeof(struct observation));

//Initialize Red low ball parameters --
	arr[0].code = 'R';
	arr[0].mask_bottom = to_hex_code(0,140,150);
	arr[0].mask_top = to_hex_code(8,255,250);
   229c8:	213ffe84 	addi	r4,r4,-6
	arr[4].threshold = 192;


	//Initialize pink ball parameters +
	arr[5].code = 'P';
	arr[5].mask_bottom = to_hex_code(0,80,150);
   229cc:	11403815 	stw	r5,224(r2)
	arr[5].mask_top = to_hex_code(10,128,250);
   229d0:	014002f4 	movhi	r5,11
	struct observation* arr = malloc(number_observations * sizeof(struct observation));

//Initialize Red low ball parameters --
	arr[0].code = 'R';
	arr[0].mask_bottom = to_hex_code(0,140,150);
	arr[0].mask_top = to_hex_code(8,255,250);
   229d4:	11000215 	stw	r4,8(r2)


	//Initialize pink ball parameters +
	arr[5].code = 'P';
	arr[5].mask_bottom = to_hex_code(0,80,150);
	arr[5].mask_top = to_hex_code(10,128,250);
   229d8:	29603e84 	addi	r5,r5,-32518

//Initialize Red low ball parameters --
	arr[0].code = 'R';
	arr[0].mask_bottom = to_hex_code(0,140,150);
	arr[0].mask_top = to_hex_code(8,255,250);
	arr[0].threshold = 192;
   229dc:	01003004 	movi	r4,192
   229e0:	11000315 	stw	r4,12(r2)

	//Initialize lime ball parameters +
	arr[1].code = 'L';
	arr[1].mask_bottom = to_hex_code(55,60,100);
	arr[1].mask_top = to_hex_code(75,160,250);
	arr[1].threshold = 192;
   229e4:	11000e15 	stw	r4,56(r2)

	//Initialize blue ball parameters --
	arr[2].code = 'B';
	arr[2].mask_bottom = to_hex_code(105,80,50);
	arr[2].mask_top = to_hex_code(125,255,128);
	arr[2].threshold = 192;
   229e8:	11001915 	stw	r4,100(r2)

	//Initialize yellow ball parameters
	arr[3].code = 'Y';
	arr[3].mask_bottom = to_hex_code(8,100,180);
	arr[3].mask_top = to_hex_code(25,140,240);
	arr[3].threshold = 192;
   229ec:	11002415 	stw	r4,144(r2)

	//Initialize green ball parameters
	arr[4].code = 'G';
	arr[4].mask_bottom = to_hex_code(80,60,50);
	arr[4].mask_top = to_hex_code(90,128, 128);
	arr[4].threshold = 192;
   229f0:	11002f15 	stw	r4,188(r2)


	//Initialize pink ball parameters +
	arr[5].code = 'P';
	arr[5].mask_bottom = to_hex_code(0,80,150);
	arr[5].mask_top = to_hex_code(10,128,250);
   229f4:	11403915 	stw	r5,228(r2)
	arr[5].threshold = 192;
   229f8:	11003a15 	stw	r4,232(r2)

	//Initialize Building 1 parameters
	arr[6].code = 'W';
	arr[6].mask_bottom = to_hex_code(0,00,0);
	arr[6].mask_top = to_hex_code(255, 255, 255);
   229fc:	01404034 	movhi	r5,256
	arr[5].mask_bottom = to_hex_code(0,80,150);
	arr[5].mask_top = to_hex_code(10,128,250);
	arr[5].threshold = 192;

	//Initialize Building 1 parameters
	arr[6].code = 'W';
   22a00:	010015c4 	movi	r4,87
	arr[6].mask_bottom = to_hex_code(0,00,0);
	arr[6].mask_top = to_hex_code(255, 255, 255);
   22a04:	297fffc4 	addi	r5,r5,-1
	arr[5].mask_bottom = to_hex_code(0,80,150);
	arr[5].mask_top = to_hex_code(10,128,250);
	arr[5].threshold = 192;

	//Initialize Building 1 parameters
	arr[6].code = 'W';
   22a08:	11004205 	stb	r4,264(r2)
	arr[6].mask_top = to_hex_code(255, 255, 255);
	arr[6].threshold = 64;


	//Initialize Building 2 parameters --
	arr[7].code = 'X';
   22a0c:	01801604 	movi	r6,88

	//Initialize Building 1 parameters
	arr[6].code = 'W';
	arr[6].mask_bottom = to_hex_code(0,00,0);
	arr[6].mask_top = to_hex_code(255, 255, 255);
	arr[6].threshold = 64;
   22a10:	01001004 	movi	r4,64
	arr[5].mask_top = to_hex_code(10,128,250);
	arr[5].threshold = 192;

	//Initialize Building 1 parameters
	arr[6].code = 'W';
	arr[6].mask_bottom = to_hex_code(0,00,0);
   22a14:	10004315 	stw	zero,268(r2)
	arr[6].mask_top = to_hex_code(255, 255, 255);
   22a18:	11404415 	stw	r5,272(r2)
	arr[6].threshold = 64;
   22a1c:	11004515 	stw	r4,276(r2)


	//Initialize Building 2 parameters --
	arr[7].code = 'X';
   22a20:	11804d05 	stb	r6,308(r2)
	arr[7].mask_bottom = to_hex_code(0,0,0);
   22a24:	10004e15 	stw	zero,312(r2)
	arr[7].mask_top = to_hex_code(255, 255, 255);
   22a28:	11404f15 	stw	r5,316(r2)
	arr[7].threshold = 64;
   22a2c:	11005015 	stw	r4,320(r2)

	return arr;
}
   22a30:	dfc00017 	ldw	ra,0(sp)
   22a34:	dec00104 	addi	sp,sp,4
   22a38:	f800283a 	ret

00022a3c <merge_observations>:

void merge_observations (struct observation* base, struct observation* merge){
   22a3c:	defffa04 	addi	sp,sp,-24
	base->com_x = (base->com_x * base-> mass +  merge->com_x * merge->mass )/ (base->mass + merge->mass) ;
   22a40:	28800417 	ldw	r2,16(r5)
	arr[7].threshold = 64;

	return arr;
}

void merge_observations (struct observation* base, struct observation* merge){
   22a44:	dd000415 	stw	r20,16(sp)
   22a48:	dcc00315 	stw	r19,12(sp)
	base->com_x = (base->com_x * base-> mass +  merge->com_x * merge->mass )/ (base->mass + merge->mass) ;
   22a4c:	25000617 	ldw	r20,24(r4)
   22a50:	2cc00617 	ldw	r19,24(r5)
	arr[7].threshold = 64;

	return arr;
}

void merge_observations (struct observation* base, struct observation* merge){
   22a54:	dc000015 	stw	r16,0(sp)
   22a58:	2021883a 	mov	r16,r4
	base->com_x = (base->com_x * base-> mass +  merge->com_x * merge->mass )/ (base->mass + merge->mass) ;
   22a5c:	21000417 	ldw	r4,16(r4)
   22a60:	9885383a 	mul	r2,r19,r2
	arr[7].threshold = 64;

	return arr;
}

void merge_observations (struct observation* base, struct observation* merge){
   22a64:	dc800215 	stw	r18,8(sp)
	base->com_x = (base->com_x * base-> mass +  merge->com_x * merge->mass )/ (base->mass + merge->mass) ;
   22a68:	a109383a 	mul	r4,r20,r4
   22a6c:	a4e5883a 	add	r18,r20,r19
	arr[7].threshold = 64;

	return arr;
}

void merge_observations (struct observation* base, struct observation* merge){
   22a70:	dc400115 	stw	r17,4(sp)
	base->com_x = (base->com_x * base-> mass +  merge->com_x * merge->mass )/ (base->mass + merge->mass) ;
   22a74:	2089883a 	add	r4,r4,r2
	arr[7].threshold = 64;

	return arr;
}

void merge_observations (struct observation* base, struct observation* merge){
   22a78:	2823883a 	mov	r17,r5
	base->com_x = (base->com_x * base-> mass +  merge->com_x * merge->mass )/ (base->mass + merge->mass) ;
   22a7c:	900b883a 	mov	r5,r18
	arr[7].threshold = 64;

	return arr;
}

void merge_observations (struct observation* base, struct observation* merge){
   22a80:	dfc00515 	stw	ra,20(sp)
	base->com_x = (base->com_x * base-> mass +  merge->com_x * merge->mass )/ (base->mass + merge->mass) ;
   22a84:	0022cc40 	call	22cc4 <__divsi3>
   22a88:	80800415 	stw	r2,16(r16)
	base->com_y = (base->com_y * base-> mass +  merge->com_y * merge->mass )/ (base->mass + merge->mass) ;
   22a8c:	81000517 	ldw	r4,20(r16)
   22a90:	88800517 	ldw	r2,20(r17)
   22a94:	900b883a 	mov	r5,r18
   22a98:	a109383a 	mul	r4,r20,r4
   22a9c:	9885383a 	mul	r2,r19,r2
   22aa0:	2089883a 	add	r4,r4,r2
   22aa4:	0022cc40 	call	22cc4 <__divsi3>
   22aa8:	80800515 	stw	r2,20(r16)
	base->mass = base->mass + merge->mass;

	base->bb_left = (base->bb_left < merge ->bb_left )? base->bb_left : merge ->bb_left;
   22aac:	80c00717 	ldw	r3,28(r16)
   22ab0:	88800717 	ldw	r2,28(r17)
}

void merge_observations (struct observation* base, struct observation* merge){
	base->com_x = (base->com_x * base-> mass +  merge->com_x * merge->mass )/ (base->mass + merge->mass) ;
	base->com_y = (base->com_y * base-> mass +  merge->com_y * merge->mass )/ (base->mass + merge->mass) ;
	base->mass = base->mass + merge->mass;
   22ab4:	84800615 	stw	r18,24(r16)

	base->bb_left = (base->bb_left < merge ->bb_left )? base->bb_left : merge ->bb_left;
   22ab8:	1880010e 	bge	r3,r2,22ac0 <merge_observations+0x84>
   22abc:	1805883a 	mov	r2,r3
   22ac0:	80800715 	stw	r2,28(r16)
	base->bb_top = (base->bb_top < merge ->bb_top )? base->bb_top : merge ->bb_top;
   22ac4:	80c00817 	ldw	r3,32(r16)
   22ac8:	88800817 	ldw	r2,32(r17)
   22acc:	1880010e 	bge	r3,r2,22ad4 <merge_observations+0x98>
   22ad0:	1805883a 	mov	r2,r3
   22ad4:	80800815 	stw	r2,32(r16)
	base->bb_right = (base->bb_right > merge ->bb_right )? base->bb_right : merge ->bb_right;
   22ad8:	80c00917 	ldw	r3,36(r16)
   22adc:	88800917 	ldw	r2,36(r17)
   22ae0:	10c0010e 	bge	r2,r3,22ae8 <merge_observations+0xac>
   22ae4:	1805883a 	mov	r2,r3
   22ae8:	80800915 	stw	r2,36(r16)
	base->bb_bottom = (base->bb_bottom > merge ->bb_bottom )? base->bb_bottom : merge ->bb_bottom;
   22aec:	80c00a17 	ldw	r3,40(r16)
   22af0:	88800a17 	ldw	r2,40(r17)
   22af4:	10c0010e 	bge	r2,r3,22afc <merge_observations+0xc0>
   22af8:	1805883a 	mov	r2,r3
   22afc:	80800a15 	stw	r2,40(r16)
}
   22b00:	dfc00517 	ldw	ra,20(sp)
   22b04:	dd000417 	ldw	r20,16(sp)
   22b08:	dcc00317 	ldw	r19,12(sp)
   22b0c:	dc800217 	ldw	r18,8(sp)
   22b10:	dc400117 	ldw	r17,4(sp)
   22b14:	dc000017 	ldw	r16,0(sp)
   22b18:	dec00604 	addi	sp,sp,24
   22b1c:	f800283a 	ret

00022b20 <print_observations>:


void print_observations (struct observation* obs) {
   22b20:	defff204 	addi	sp,sp,-56
   22b24:	dd400b15 	stw	r21,44(sp)
   22b28:	dd000a15 	stw	r20,40(sp)
   22b2c:	dcc00915 	stw	r19,36(sp)
   22b30:	dc800815 	stw	r18,32(sp)
   22b34:	dc400715 	stw	r17,28(sp)
   22b38:	dc000615 	stw	r16,24(sp)
   22b3c:	dfc00d15 	stw	ra,52(sp)
   22b40:	dd800c15 	stw	r22,48(sp)
   22b44:	2021883a 	mov	r16,r4
   22b48:	24800404 	addi	r18,r4,16
   22b4c:	24c00504 	addi	r19,r4,20
   22b50:	25000604 	addi	r20,r4,24
   22b54:	25400704 	addi	r21,r4,28
	static char observation_buf[64];

	for (int i = 0; i < number_observations-1 ; i++){
   22b58:	0023883a 	mov	r17,zero
   22b5c:	d0a00417 	ldw	r2,-32752(gp)
   22b60:	10bfffc4 	addi	r2,r2,-1
   22b64:	88802e0e 	bge	r17,r2,22c20 <print_observations+0x100>


		sprintf(observation_buf, "%c %01x %x %x %x %x %x %x", obs[i].code, obs[i].com_x,
   22b68:	80800a17 	ldw	r2,40(r16)
   22b6c:	81800007 	ldb	r6,0(r16)
   22b70:	014000b4 	movhi	r5,2
   22b74:	d8800515 	stw	r2,20(sp)
   22b78:	80800917 	ldw	r2,36(r16)
   22b7c:	010000b4 	movhi	r4,2
   22b80:	29554d04 	addi	r5,r5,21812
   22b84:	d8800415 	stw	r2,16(sp)
   22b88:	80800817 	ldw	r2,32(r16)
   22b8c:	21162f04 	addi	r4,r4,22716
   22b90:	d8800315 	stw	r2,12(sp)
   22b94:	a8800017 	ldw	r2,0(r21)
   22b98:	d8800215 	stw	r2,8(sp)
   22b9c:	a0800017 	ldw	r2,0(r20)
   22ba0:	d8800115 	stw	r2,4(sp)
   22ba4:	98800017 	ldw	r2,0(r19)
   22ba8:	d8800015 	stw	r2,0(sp)
   22bac:	91c00017 	ldw	r7,0(r18)
   22bb0:	00232d00 	call	232d0 <sprintf>
				obs[i].com_y, obs[i].mass, obs[i].bb_left, obs[i].bb_top,
				obs[i].bb_right, obs[i].bb_bottom);


		printf ("%s", observation_buf);
   22bb4:	014000b4 	movhi	r5,2
   22bb8:	010000b4 	movhi	r4,2
   22bbc:	29562f04 	addi	r5,r5,22716
   22bc0:	21155404 	addi	r4,r4,21840
   22bc4:	00231180 	call	23118 <printf>

		//Last iteration
		if(i == number_observations -2 ){
   22bc8:	d0a00417 	ldw	r2,-32752(gp)
   22bcc:	10bfff84 	addi	r2,r2,-2
   22bd0:	8880031e 	bne	r17,r2,22be0 <print_observations+0xc0>
			printf ("\n");
   22bd4:	01000284 	movi	r4,10
   22bd8:	002316c0 	call	2316c <putchar>
   22bdc:	00000306 	br	22bec <print_observations+0xcc>
		} else{
			printf (" ,");
   22be0:	010000b4 	movhi	r4,2
   22be4:	21155504 	addi	r4,r4,21844
   22be8:	00231180 	call	23118 <printf>

		}
		while (alt_getchar() != 'A'){
   22bec:	05801044 	movi	r22,65
   22bf0:	00242380 	call	24238 <alt_getchar>
   22bf4:	15800326 	beq	r2,r22,22c04 <print_observations+0xe4>
			usleep(1);
   22bf8:	01000044 	movi	r4,1
   22bfc:	00246780 	call	24678 <usleep>
   22c00:	003ffb06 	br	22bf0 <__alt_data_end+0xffff4190>


void print_observations (struct observation* obs) {
	static char observation_buf[64];

	for (int i = 0; i < number_observations-1 ; i++){
   22c04:	8c400044 	addi	r17,r17,1
   22c08:	84000b04 	addi	r16,r16,44
   22c0c:	94800b04 	addi	r18,r18,44
   22c10:	9cc00b04 	addi	r19,r19,44
   22c14:	a5000b04 	addi	r20,r20,44
   22c18:	ad400b04 	addi	r21,r21,44
   22c1c:	003fcf06 	br	22b5c <__alt_data_end+0xffff40fc>
		}
		while (alt_getchar() != 'A'){
			usleep(1);
		}
	}
}
   22c20:	dfc00d17 	ldw	ra,52(sp)
   22c24:	dd800c17 	ldw	r22,48(sp)
   22c28:	dd400b17 	ldw	r21,44(sp)
   22c2c:	dd000a17 	ldw	r20,40(sp)
   22c30:	dcc00917 	ldw	r19,36(sp)
   22c34:	dc800817 	ldw	r18,32(sp)
   22c38:	dc400717 	ldw	r17,28(sp)
   22c3c:	dc000617 	ldw	r16,24(sp)
   22c40:	dec00e04 	addi	sp,sp,56
   22c44:	f800283a 	ret

00022c48 <print_as_rgb>:



void print_as_rgb(alt_u32 val, alt_u32 hsv){
	if(print){
   22c48:	d0a07217 	ldw	r2,-32312(gp)
   22c4c:	10000526 	beq	r2,zero,22c64 <print_as_rgb+0x1c>
		printf("RGB: %x, HSV: %x\n", val, hsv);
   22c50:	280d883a 	mov	r6,r5
   22c54:	200b883a 	mov	r5,r4
   22c58:	010000b4 	movhi	r4,2
   22c5c:	21155604 	addi	r4,r4,21848
   22c60:	00231181 	jmpi	23118 <printf>
   22c64:	f800283a 	ret

00022c68 <frame_isr>:



void frame_isr(){
	static int count = 0;
	if (count == 59){
   22c68:	d0e07717 	ldw	r3,-32292(gp)
   22c6c:	00800ec4 	movi	r2,59
   22c70:	18800c1e 	bne	r3,r2,22ca4 <frame_isr+0x3c>
		count = 0;
		printf("One second");
   22c74:	010000b4 	movhi	r4,2
	}
}



void frame_isr(){
   22c78:	deffff04 	addi	sp,sp,-4
	static int count = 0;
	if (count == 59){
		count = 0;
		printf("One second");
   22c7c:	21155b04 	addi	r4,r4,21868
	}
}



void frame_isr(){
   22c80:	dfc00015 	stw	ra,0(sp)
	static int count = 0;
	if (count == 59){
		count = 0;
   22c84:	d0207715 	stw	zero,-32292(gp)
		printf("One second");
   22c88:	00231180 	call	23118 <printf>
	}
	frames_elapsed++;
   22c8c:	d0a07617 	ldw	r2,-32296(gp)
   22c90:	10800044 	addi	r2,r2,1
   22c94:	d0a07615 	stw	r2,-32296(gp)
}
   22c98:	dfc00017 	ldw	ra,0(sp)
   22c9c:	dec00104 	addi	sp,sp,4
   22ca0:	f800283a 	ret
	static int count = 0;
	if (count == 59){
		count = 0;
		printf("One second");
	}
	frames_elapsed++;
   22ca4:	d0a07617 	ldw	r2,-32296(gp)
   22ca8:	10800044 	addi	r2,r2,1
   22cac:	d0a07615 	stw	r2,-32296(gp)
   22cb0:	f800283a 	ret

00022cb4 <wait_frame>:
}

void wait_frame(int number){
	int current_frame = frames_elapsed;
   22cb4:	d0a07617 	ldw	r2,-32296(gp)
	while(current_frame > frames_elapsed - number){}
   22cb8:	1109c83a 	sub	r4,r2,r4
   22cbc:	20bfff16 	blt	r4,r2,22cbc <__alt_data_end+0xffff425c>
	return;
}
   22cc0:	f800283a 	ret

00022cc4 <__divsi3>:
   22cc4:	20001b16 	blt	r4,zero,22d34 <__divsi3+0x70>
   22cc8:	000f883a 	mov	r7,zero
   22ccc:	28001616 	blt	r5,zero,22d28 <__divsi3+0x64>
   22cd0:	200d883a 	mov	r6,r4
   22cd4:	29001a2e 	bgeu	r5,r4,22d40 <__divsi3+0x7c>
   22cd8:	00800804 	movi	r2,32
   22cdc:	00c00044 	movi	r3,1
   22ce0:	00000106 	br	22ce8 <__divsi3+0x24>
   22ce4:	10000d26 	beq	r2,zero,22d1c <__divsi3+0x58>
   22ce8:	294b883a 	add	r5,r5,r5
   22cec:	10bfffc4 	addi	r2,r2,-1
   22cf0:	18c7883a 	add	r3,r3,r3
   22cf4:	293ffb36 	bltu	r5,r4,22ce4 <__alt_data_end+0xffff4284>
   22cf8:	0005883a 	mov	r2,zero
   22cfc:	18000726 	beq	r3,zero,22d1c <__divsi3+0x58>
   22d00:	0005883a 	mov	r2,zero
   22d04:	31400236 	bltu	r6,r5,22d10 <__divsi3+0x4c>
   22d08:	314dc83a 	sub	r6,r6,r5
   22d0c:	10c4b03a 	or	r2,r2,r3
   22d10:	1806d07a 	srli	r3,r3,1
   22d14:	280ad07a 	srli	r5,r5,1
   22d18:	183ffa1e 	bne	r3,zero,22d04 <__alt_data_end+0xffff42a4>
   22d1c:	38000126 	beq	r7,zero,22d24 <__divsi3+0x60>
   22d20:	0085c83a 	sub	r2,zero,r2
   22d24:	f800283a 	ret
   22d28:	014bc83a 	sub	r5,zero,r5
   22d2c:	39c0005c 	xori	r7,r7,1
   22d30:	003fe706 	br	22cd0 <__alt_data_end+0xffff4270>
   22d34:	0109c83a 	sub	r4,zero,r4
   22d38:	01c00044 	movi	r7,1
   22d3c:	003fe306 	br	22ccc <__alt_data_end+0xffff426c>
   22d40:	00c00044 	movi	r3,1
   22d44:	003fee06 	br	22d00 <__alt_data_end+0xffff42a0>

00022d48 <__modsi3>:
   22d48:	20001716 	blt	r4,zero,22da8 <__modsi3+0x60>
   22d4c:	000f883a 	mov	r7,zero
   22d50:	2005883a 	mov	r2,r4
   22d54:	28001216 	blt	r5,zero,22da0 <__modsi3+0x58>
   22d58:	2900162e 	bgeu	r5,r4,22db4 <__modsi3+0x6c>
   22d5c:	01800804 	movi	r6,32
   22d60:	00c00044 	movi	r3,1
   22d64:	00000106 	br	22d6c <__modsi3+0x24>
   22d68:	30000a26 	beq	r6,zero,22d94 <__modsi3+0x4c>
   22d6c:	294b883a 	add	r5,r5,r5
   22d70:	31bfffc4 	addi	r6,r6,-1
   22d74:	18c7883a 	add	r3,r3,r3
   22d78:	293ffb36 	bltu	r5,r4,22d68 <__alt_data_end+0xffff4308>
   22d7c:	18000526 	beq	r3,zero,22d94 <__modsi3+0x4c>
   22d80:	1806d07a 	srli	r3,r3,1
   22d84:	11400136 	bltu	r2,r5,22d8c <__modsi3+0x44>
   22d88:	1145c83a 	sub	r2,r2,r5
   22d8c:	280ad07a 	srli	r5,r5,1
   22d90:	183ffb1e 	bne	r3,zero,22d80 <__alt_data_end+0xffff4320>
   22d94:	38000126 	beq	r7,zero,22d9c <__modsi3+0x54>
   22d98:	0085c83a 	sub	r2,zero,r2
   22d9c:	f800283a 	ret
   22da0:	014bc83a 	sub	r5,zero,r5
   22da4:	003fec06 	br	22d58 <__alt_data_end+0xffff42f8>
   22da8:	0109c83a 	sub	r4,zero,r4
   22dac:	01c00044 	movi	r7,1
   22db0:	003fe706 	br	22d50 <__alt_data_end+0xffff42f0>
   22db4:	00c00044 	movi	r3,1
   22db8:	003ff106 	br	22d80 <__alt_data_end+0xffff4320>

00022dbc <__udivsi3>:
   22dbc:	200d883a 	mov	r6,r4
   22dc0:	2900152e 	bgeu	r5,r4,22e18 <__udivsi3+0x5c>
   22dc4:	28001416 	blt	r5,zero,22e18 <__udivsi3+0x5c>
   22dc8:	00800804 	movi	r2,32
   22dcc:	00c00044 	movi	r3,1
   22dd0:	00000206 	br	22ddc <__udivsi3+0x20>
   22dd4:	10000e26 	beq	r2,zero,22e10 <__udivsi3+0x54>
   22dd8:	28000516 	blt	r5,zero,22df0 <__udivsi3+0x34>
   22ddc:	294b883a 	add	r5,r5,r5
   22de0:	10bfffc4 	addi	r2,r2,-1
   22de4:	18c7883a 	add	r3,r3,r3
   22de8:	293ffa36 	bltu	r5,r4,22dd4 <__alt_data_end+0xffff4374>
   22dec:	18000826 	beq	r3,zero,22e10 <__udivsi3+0x54>
   22df0:	0005883a 	mov	r2,zero
   22df4:	31400236 	bltu	r6,r5,22e00 <__udivsi3+0x44>
   22df8:	314dc83a 	sub	r6,r6,r5
   22dfc:	10c4b03a 	or	r2,r2,r3
   22e00:	1806d07a 	srli	r3,r3,1
   22e04:	280ad07a 	srli	r5,r5,1
   22e08:	183ffa1e 	bne	r3,zero,22df4 <__alt_data_end+0xffff4394>
   22e0c:	f800283a 	ret
   22e10:	0005883a 	mov	r2,zero
   22e14:	f800283a 	ret
   22e18:	00c00044 	movi	r3,1
   22e1c:	003ff406 	br	22df0 <__alt_data_end+0xffff4390>

00022e20 <__umodsi3>:
   22e20:	2005883a 	mov	r2,r4
   22e24:	2900122e 	bgeu	r5,r4,22e70 <__umodsi3+0x50>
   22e28:	28001116 	blt	r5,zero,22e70 <__umodsi3+0x50>
   22e2c:	01800804 	movi	r6,32
   22e30:	00c00044 	movi	r3,1
   22e34:	00000206 	br	22e40 <__umodsi3+0x20>
   22e38:	30000c26 	beq	r6,zero,22e6c <__umodsi3+0x4c>
   22e3c:	28000516 	blt	r5,zero,22e54 <__umodsi3+0x34>
   22e40:	294b883a 	add	r5,r5,r5
   22e44:	31bfffc4 	addi	r6,r6,-1
   22e48:	18c7883a 	add	r3,r3,r3
   22e4c:	293ffa36 	bltu	r5,r4,22e38 <__alt_data_end+0xffff43d8>
   22e50:	18000626 	beq	r3,zero,22e6c <__umodsi3+0x4c>
   22e54:	1806d07a 	srli	r3,r3,1
   22e58:	11400136 	bltu	r2,r5,22e60 <__umodsi3+0x40>
   22e5c:	1145c83a 	sub	r2,r2,r5
   22e60:	280ad07a 	srli	r5,r5,1
   22e64:	183ffb1e 	bne	r3,zero,22e54 <__alt_data_end+0xffff43f4>
   22e68:	f800283a 	ret
   22e6c:	f800283a 	ret
   22e70:	00c00044 	movi	r3,1
   22e74:	003ff706 	br	22e54 <__alt_data_end+0xffff43f4>

00022e78 <malloc>:
   22e78:	008000b4 	movhi	r2,2
   22e7c:	1095b504 	addi	r2,r2,22228
   22e80:	200b883a 	mov	r5,r4
   22e84:	11000017 	ldw	r4,0(r2)
   22e88:	0022f841 	jmpi	22f84 <_malloc_r>

00022e8c <free>:
   22e8c:	008000b4 	movhi	r2,2
   22e90:	1095b504 	addi	r2,r2,22228
   22e94:	200b883a 	mov	r5,r4
   22e98:	11000017 	ldw	r4,0(r2)
   22e9c:	0022ea01 	jmpi	22ea0 <_free_r>

00022ea0 <_free_r>:
   22ea0:	28003726 	beq	r5,zero,22f80 <_free_r+0xe0>
   22ea4:	28ffff17 	ldw	r3,-4(r5)
   22ea8:	28bfff04 	addi	r2,r5,-4
   22eac:	1800010e 	bge	r3,zero,22eb4 <_free_r+0x14>
   22eb0:	10c5883a 	add	r2,r2,r3
   22eb4:	014000b4 	movhi	r5,2
   22eb8:	29562804 	addi	r5,r5,22688
   22ebc:	28c00017 	ldw	r3,0(r5)
   22ec0:	280d883a 	mov	r6,r5
   22ec4:	1800031e 	bne	r3,zero,22ed4 <_free_r+0x34>
   22ec8:	10000115 	stw	zero,4(r2)
   22ecc:	28800015 	stw	r2,0(r5)
   22ed0:	f800283a 	ret
   22ed4:	10c00c2e 	bgeu	r2,r3,22f08 <_free_r+0x68>
   22ed8:	11000017 	ldw	r4,0(r2)
   22edc:	110b883a 	add	r5,r2,r4
   22ee0:	1940041e 	bne	r3,r5,22ef4 <_free_r+0x54>
   22ee4:	19400017 	ldw	r5,0(r3)
   22ee8:	18c00117 	ldw	r3,4(r3)
   22eec:	2909883a 	add	r4,r5,r4
   22ef0:	11000015 	stw	r4,0(r2)
   22ef4:	10c00115 	stw	r3,4(r2)
   22ef8:	30800015 	stw	r2,0(r6)
   22efc:	f800283a 	ret
   22f00:	11400336 	bltu	r2,r5,22f10 <_free_r+0x70>
   22f04:	2807883a 	mov	r3,r5
   22f08:	19400117 	ldw	r5,4(r3)
   22f0c:	283ffc1e 	bne	r5,zero,22f00 <__alt_data_end+0xffff44a0>
   22f10:	19c00017 	ldw	r7,0(r3)
   22f14:	19cd883a 	add	r6,r3,r7
   22f18:	30800a1e 	bne	r6,r2,22f44 <_free_r+0xa4>
   22f1c:	10800017 	ldw	r2,0(r2)
   22f20:	3885883a 	add	r2,r7,r2
   22f24:	18800015 	stw	r2,0(r3)
   22f28:	1889883a 	add	r4,r3,r2
   22f2c:	2900141e 	bne	r5,r4,22f80 <_free_r+0xe0>
   22f30:	29000017 	ldw	r4,0(r5)
   22f34:	2085883a 	add	r2,r4,r2
   22f38:	18800015 	stw	r2,0(r3)
   22f3c:	28800117 	ldw	r2,4(r5)
   22f40:	00000e06 	br	22f7c <_free_r+0xdc>
   22f44:	1180032e 	bgeu	r2,r6,22f54 <_free_r+0xb4>
   22f48:	00800304 	movi	r2,12
   22f4c:	20800015 	stw	r2,0(r4)
   22f50:	f800283a 	ret
   22f54:	11000017 	ldw	r4,0(r2)
   22f58:	110d883a 	add	r6,r2,r4
   22f5c:	2980061e 	bne	r5,r6,22f78 <_free_r+0xd8>
   22f60:	29800017 	ldw	r6,0(r5)
   22f64:	3109883a 	add	r4,r6,r4
   22f68:	11000015 	stw	r4,0(r2)
   22f6c:	29000117 	ldw	r4,4(r5)
   22f70:	11000115 	stw	r4,4(r2)
   22f74:	00000106 	br	22f7c <_free_r+0xdc>
   22f78:	11400115 	stw	r5,4(r2)
   22f7c:	18800115 	stw	r2,4(r3)
   22f80:	f800283a 	ret

00022f84 <_malloc_r>:
   22f84:	defffb04 	addi	sp,sp,-20
   22f88:	00bfff04 	movi	r2,-4
   22f8c:	dc400115 	stw	r17,4(sp)
   22f90:	2c4000c4 	addi	r17,r5,3
   22f94:	88a2703a 	and	r17,r17,r2
   22f98:	dc800215 	stw	r18,8(sp)
   22f9c:	dfc00415 	stw	ra,16(sp)
   22fa0:	dcc00315 	stw	r19,12(sp)
   22fa4:	dc000015 	stw	r16,0(sp)
   22fa8:	8c400204 	addi	r17,r17,8
   22fac:	00800304 	movi	r2,12
   22fb0:	2025883a 	mov	r18,r4
   22fb4:	8880022e 	bgeu	r17,r2,22fc0 <_malloc_r+0x3c>
   22fb8:	1023883a 	mov	r17,r2
   22fbc:	00000506 	br	22fd4 <_malloc_r+0x50>
   22fc0:	8800040e 	bge	r17,zero,22fd4 <_malloc_r+0x50>
   22fc4:	00800304 	movi	r2,12
   22fc8:	90800015 	stw	r2,0(r18)
   22fcc:	0005883a 	mov	r2,zero
   22fd0:	00003b06 	br	230c0 <_malloc_r+0x13c>
   22fd4:	897ffb36 	bltu	r17,r5,22fc4 <__alt_data_end+0xffff4564>
   22fd8:	008000b4 	movhi	r2,2
   22fdc:	10962804 	addi	r2,r2,22688
   22fe0:	10c00017 	ldw	r3,0(r2)
   22fe4:	1009883a 	mov	r4,r2
   22fe8:	1821883a 	mov	r16,r3
   22fec:	80000926 	beq	r16,zero,23014 <_malloc_r+0x90>
   22ff0:	80800017 	ldw	r2,0(r16)
   22ff4:	1445c83a 	sub	r2,r2,r17
   22ff8:	10001516 	blt	r2,zero,23050 <_malloc_r+0xcc>
   22ffc:	014002c4 	movi	r5,11
   23000:	28800d2e 	bgeu	r5,r2,23038 <_malloc_r+0xb4>
   23004:	80800015 	stw	r2,0(r16)
   23008:	80a1883a 	add	r16,r16,r2
   2300c:	84400015 	stw	r17,0(r16)
   23010:	8000221e 	bne	r16,zero,2309c <_malloc_r+0x118>
   23014:	040000b4 	movhi	r16,2
   23018:	84162704 	addi	r16,r16,22684
   2301c:	80800017 	ldw	r2,0(r16)
   23020:	10000e1e 	bne	r2,zero,2305c <_malloc_r+0xd8>
   23024:	000b883a 	mov	r5,zero
   23028:	9009883a 	mov	r4,r18
   2302c:	002321c0 	call	2321c <_sbrk_r>
   23030:	80800015 	stw	r2,0(r16)
   23034:	00000906 	br	2305c <_malloc_r+0xd8>
   23038:	80800117 	ldw	r2,4(r16)
   2303c:	1c00021e 	bne	r3,r16,23048 <_malloc_r+0xc4>
   23040:	20800015 	stw	r2,0(r4)
   23044:	00001506 	br	2309c <_malloc_r+0x118>
   23048:	18800115 	stw	r2,4(r3)
   2304c:	00001306 	br	2309c <_malloc_r+0x118>
   23050:	8007883a 	mov	r3,r16
   23054:	84000117 	ldw	r16,4(r16)
   23058:	003fe406 	br	22fec <__alt_data_end+0xffff458c>
   2305c:	880b883a 	mov	r5,r17
   23060:	9009883a 	mov	r4,r18
   23064:	002321c0 	call	2321c <_sbrk_r>
   23068:	04ffffc4 	movi	r19,-1
   2306c:	14ffd526 	beq	r2,r19,22fc4 <__alt_data_end+0xffff4564>
   23070:	140000c4 	addi	r16,r2,3
   23074:	00ffff04 	movi	r3,-4
   23078:	80e0703a 	and	r16,r16,r3
   2307c:	1400021e 	bne	r2,r16,23088 <_malloc_r+0x104>
   23080:	84400015 	stw	r17,0(r16)
   23084:	00000506 	br	2309c <_malloc_r+0x118>
   23088:	808bc83a 	sub	r5,r16,r2
   2308c:	9009883a 	mov	r4,r18
   23090:	002321c0 	call	2321c <_sbrk_r>
   23094:	14fffa1e 	bne	r2,r19,23080 <__alt_data_end+0xffff4620>
   23098:	003fca06 	br	22fc4 <__alt_data_end+0xffff4564>
   2309c:	810002c4 	addi	r4,r16,11
   230a0:	00bffe04 	movi	r2,-8
   230a4:	80c00104 	addi	r3,r16,4
   230a8:	2084703a 	and	r2,r4,r2
   230ac:	10c7c83a 	sub	r3,r2,r3
   230b0:	18000326 	beq	r3,zero,230c0 <_malloc_r+0x13c>
   230b4:	80e1883a 	add	r16,r16,r3
   230b8:	00c7c83a 	sub	r3,zero,r3
   230bc:	80c00015 	stw	r3,0(r16)
   230c0:	dfc00417 	ldw	ra,16(sp)
   230c4:	dcc00317 	ldw	r19,12(sp)
   230c8:	dc800217 	ldw	r18,8(sp)
   230cc:	dc400117 	ldw	r17,4(sp)
   230d0:	dc000017 	ldw	r16,0(sp)
   230d4:	dec00504 	addi	sp,sp,20
   230d8:	f800283a 	ret

000230dc <_printf_r>:
   230dc:	defffd04 	addi	sp,sp,-12
   230e0:	dfc00015 	stw	ra,0(sp)
   230e4:	d9800115 	stw	r6,4(sp)
   230e8:	d9c00215 	stw	r7,8(sp)
   230ec:	20c00217 	ldw	r3,8(r4)
   230f0:	018000b4 	movhi	r6,2
   230f4:	318faf04 	addi	r6,r6,16060
   230f8:	19800115 	stw	r6,4(r3)
   230fc:	280d883a 	mov	r6,r5
   23100:	21400217 	ldw	r5,8(r4)
   23104:	d9c00104 	addi	r7,sp,4
   23108:	002397c0 	call	2397c <___vfprintf_internal_r>
   2310c:	dfc00017 	ldw	ra,0(sp)
   23110:	dec00304 	addi	sp,sp,12
   23114:	f800283a 	ret

00023118 <printf>:
   23118:	defffc04 	addi	sp,sp,-16
   2311c:	dfc00015 	stw	ra,0(sp)
   23120:	d9400115 	stw	r5,4(sp)
   23124:	d9800215 	stw	r6,8(sp)
   23128:	d9c00315 	stw	r7,12(sp)
   2312c:	008000b4 	movhi	r2,2
   23130:	1095b504 	addi	r2,r2,22228
   23134:	10800017 	ldw	r2,0(r2)
   23138:	014000b4 	movhi	r5,2
   2313c:	294faf04 	addi	r5,r5,16060
   23140:	10c00217 	ldw	r3,8(r2)
   23144:	d9800104 	addi	r6,sp,4
   23148:	19400115 	stw	r5,4(r3)
   2314c:	200b883a 	mov	r5,r4
   23150:	11000217 	ldw	r4,8(r2)
   23154:	0023ea00 	call	23ea0 <__vfprintf_internal>
   23158:	dfc00017 	ldw	ra,0(sp)
   2315c:	dec00404 	addi	sp,sp,16
   23160:	f800283a 	ret

00023164 <_putchar_r>:
   23164:	21800217 	ldw	r6,8(r4)
   23168:	00240d01 	jmpi	240d0 <_putc_r>

0002316c <putchar>:
   2316c:	008000b4 	movhi	r2,2
   23170:	1095b504 	addi	r2,r2,22228
   23174:	10800017 	ldw	r2,0(r2)
   23178:	200b883a 	mov	r5,r4
   2317c:	11800217 	ldw	r6,8(r2)
   23180:	1009883a 	mov	r4,r2
   23184:	00240d01 	jmpi	240d0 <_putc_r>

00023188 <_puts_r>:
   23188:	defffd04 	addi	sp,sp,-12
   2318c:	dc000015 	stw	r16,0(sp)
   23190:	2021883a 	mov	r16,r4
   23194:	2809883a 	mov	r4,r5
   23198:	dfc00215 	stw	ra,8(sp)
   2319c:	dc400115 	stw	r17,4(sp)
   231a0:	2823883a 	mov	r17,r5
   231a4:	00233480 	call	23348 <strlen>
   231a8:	81400217 	ldw	r5,8(r16)
   231ac:	010000b4 	movhi	r4,2
   231b0:	210faf04 	addi	r4,r4,16060
   231b4:	29000115 	stw	r4,4(r5)
   231b8:	100f883a 	mov	r7,r2
   231bc:	880d883a 	mov	r6,r17
   231c0:	8009883a 	mov	r4,r16
   231c4:	0023ebc0 	call	23ebc <__sfvwrite_small_dev>
   231c8:	00ffffc4 	movi	r3,-1
   231cc:	10c00926 	beq	r2,r3,231f4 <_puts_r+0x6c>
   231d0:	81400217 	ldw	r5,8(r16)
   231d4:	018000b4 	movhi	r6,2
   231d8:	01c00044 	movi	r7,1
   231dc:	28800117 	ldw	r2,4(r5)
   231e0:	31951104 	addi	r6,r6,21572
   231e4:	8009883a 	mov	r4,r16
   231e8:	103ee83a 	callr	r2
   231ec:	10bfffe0 	cmpeqi	r2,r2,-1
   231f0:	0085c83a 	sub	r2,zero,r2
   231f4:	dfc00217 	ldw	ra,8(sp)
   231f8:	dc400117 	ldw	r17,4(sp)
   231fc:	dc000017 	ldw	r16,0(sp)
   23200:	dec00304 	addi	sp,sp,12
   23204:	f800283a 	ret

00023208 <puts>:
   23208:	008000b4 	movhi	r2,2
   2320c:	1095b504 	addi	r2,r2,22228
   23210:	200b883a 	mov	r5,r4
   23214:	11000017 	ldw	r4,0(r2)
   23218:	00231881 	jmpi	23188 <_puts_r>

0002321c <_sbrk_r>:
   2321c:	defffd04 	addi	sp,sp,-12
   23220:	dc000015 	stw	r16,0(sp)
   23224:	040000b4 	movhi	r16,2
   23228:	dc400115 	stw	r17,4(sp)
   2322c:	84162904 	addi	r16,r16,22692
   23230:	2023883a 	mov	r17,r4
   23234:	2809883a 	mov	r4,r5
   23238:	dfc00215 	stw	ra,8(sp)
   2323c:	80000015 	stw	zero,0(r16)
   23240:	00245400 	call	24540 <sbrk>
   23244:	00ffffc4 	movi	r3,-1
   23248:	10c0031e 	bne	r2,r3,23258 <_sbrk_r+0x3c>
   2324c:	80c00017 	ldw	r3,0(r16)
   23250:	18000126 	beq	r3,zero,23258 <_sbrk_r+0x3c>
   23254:	88c00015 	stw	r3,0(r17)
   23258:	dfc00217 	ldw	ra,8(sp)
   2325c:	dc400117 	ldw	r17,4(sp)
   23260:	dc000017 	ldw	r16,0(sp)
   23264:	dec00304 	addi	sp,sp,12
   23268:	f800283a 	ret

0002326c <_sprintf_r>:
   2326c:	defff704 	addi	sp,sp,-36
   23270:	dfc00715 	stw	ra,28(sp)
   23274:	d9c00815 	stw	r7,32(sp)
   23278:	00808204 	movi	r2,520
   2327c:	d880000d 	sth	r2,0(sp)
   23280:	00a00034 	movhi	r2,32768
   23284:	10bfffc4 	addi	r2,r2,-1
   23288:	d8800515 	stw	r2,20(sp)
   2328c:	d8800315 	stw	r2,12(sp)
   23290:	00bfffc4 	movi	r2,-1
   23294:	d880008d 	sth	r2,2(sp)
   23298:	008000b4 	movhi	r2,2
   2329c:	d9400415 	stw	r5,16(sp)
   232a0:	d9400215 	stw	r5,8(sp)
   232a4:	108fdd04 	addi	r2,r2,16244
   232a8:	d9c00804 	addi	r7,sp,32
   232ac:	d80b883a 	mov	r5,sp
   232b0:	d8800115 	stw	r2,4(sp)
   232b4:	d8000615 	stw	zero,24(sp)
   232b8:	00233d00 	call	233d0 <___svfprintf_internal_r>
   232bc:	d8c00417 	ldw	r3,16(sp)
   232c0:	18000005 	stb	zero,0(r3)
   232c4:	dfc00717 	ldw	ra,28(sp)
   232c8:	dec00904 	addi	sp,sp,36
   232cc:	f800283a 	ret

000232d0 <sprintf>:
   232d0:	defff604 	addi	sp,sp,-40
   232d4:	dfc00715 	stw	ra,28(sp)
   232d8:	d9800815 	stw	r6,32(sp)
   232dc:	d9c00915 	stw	r7,36(sp)
   232e0:	00808204 	movi	r2,520
   232e4:	d880000d 	sth	r2,0(sp)
   232e8:	00a00034 	movhi	r2,32768
   232ec:	10bfffc4 	addi	r2,r2,-1
   232f0:	d8800515 	stw	r2,20(sp)
   232f4:	d8800315 	stw	r2,12(sp)
   232f8:	00bfffc4 	movi	r2,-1
   232fc:	d880008d 	sth	r2,2(sp)
   23300:	008000b4 	movhi	r2,2
   23304:	108fdd04 	addi	r2,r2,16244
   23308:	d8800115 	stw	r2,4(sp)
   2330c:	008000b4 	movhi	r2,2
   23310:	1095b504 	addi	r2,r2,22228
   23314:	d9000415 	stw	r4,16(sp)
   23318:	d9000215 	stw	r4,8(sp)
   2331c:	11000017 	ldw	r4,0(r2)
   23320:	280d883a 	mov	r6,r5
   23324:	d9c00804 	addi	r7,sp,32
   23328:	d80b883a 	mov	r5,sp
   2332c:	d8000615 	stw	zero,24(sp)
   23330:	00233d00 	call	233d0 <___svfprintf_internal_r>
   23334:	d8c00417 	ldw	r3,16(sp)
   23338:	18000005 	stb	zero,0(r3)
   2333c:	dfc00717 	ldw	ra,28(sp)
   23340:	dec00a04 	addi	sp,sp,40
   23344:	f800283a 	ret

00023348 <strlen>:
   23348:	2005883a 	mov	r2,r4
   2334c:	10c00007 	ldb	r3,0(r2)
   23350:	18000226 	beq	r3,zero,2335c <strlen+0x14>
   23354:	10800044 	addi	r2,r2,1
   23358:	003ffc06 	br	2334c <__alt_data_end+0xffff48ec>
   2335c:	1105c83a 	sub	r2,r2,r4
   23360:	f800283a 	ret

00023364 <print_repeat>:
   23364:	defffb04 	addi	sp,sp,-20
   23368:	dc800315 	stw	r18,12(sp)
   2336c:	dc400215 	stw	r17,8(sp)
   23370:	dc000115 	stw	r16,4(sp)
   23374:	dfc00415 	stw	ra,16(sp)
   23378:	2025883a 	mov	r18,r4
   2337c:	2823883a 	mov	r17,r5
   23380:	d9800005 	stb	r6,0(sp)
   23384:	3821883a 	mov	r16,r7
   23388:	04000a0e 	bge	zero,r16,233b4 <print_repeat+0x50>
   2338c:	88800117 	ldw	r2,4(r17)
   23390:	01c00044 	movi	r7,1
   23394:	d80d883a 	mov	r6,sp
   23398:	880b883a 	mov	r5,r17
   2339c:	9009883a 	mov	r4,r18
   233a0:	103ee83a 	callr	r2
   233a4:	843fffc4 	addi	r16,r16,-1
   233a8:	103ff726 	beq	r2,zero,23388 <__alt_data_end+0xffff4928>
   233ac:	00bfffc4 	movi	r2,-1
   233b0:	00000106 	br	233b8 <print_repeat+0x54>
   233b4:	0005883a 	mov	r2,zero
   233b8:	dfc00417 	ldw	ra,16(sp)
   233bc:	dc800317 	ldw	r18,12(sp)
   233c0:	dc400217 	ldw	r17,8(sp)
   233c4:	dc000117 	ldw	r16,4(sp)
   233c8:	dec00504 	addi	sp,sp,20
   233cc:	f800283a 	ret

000233d0 <___svfprintf_internal_r>:
   233d0:	deffe504 	addi	sp,sp,-108
   233d4:	d8c00804 	addi	r3,sp,32
   233d8:	df001915 	stw	fp,100(sp)
   233dc:	ddc01815 	stw	r23,96(sp)
   233e0:	dd801715 	stw	r22,92(sp)
   233e4:	dd401615 	stw	r21,88(sp)
   233e8:	dd001515 	stw	r20,84(sp)
   233ec:	dcc01415 	stw	r19,80(sp)
   233f0:	dc801315 	stw	r18,76(sp)
   233f4:	dc401215 	stw	r17,72(sp)
   233f8:	dc001115 	stw	r16,68(sp)
   233fc:	dfc01a15 	stw	ra,104(sp)
   23400:	2027883a 	mov	r19,r4
   23404:	2839883a 	mov	fp,r5
   23408:	382d883a 	mov	r22,r7
   2340c:	d9800f15 	stw	r6,60(sp)
   23410:	0021883a 	mov	r16,zero
   23414:	d8000e15 	stw	zero,56(sp)
   23418:	002f883a 	mov	r23,zero
   2341c:	002b883a 	mov	r21,zero
   23420:	0025883a 	mov	r18,zero
   23424:	0023883a 	mov	r17,zero
   23428:	d8000c15 	stw	zero,48(sp)
   2342c:	d8000b15 	stw	zero,44(sp)
   23430:	0029883a 	mov	r20,zero
   23434:	d8c00915 	stw	r3,36(sp)
   23438:	d8c00f17 	ldw	r3,60(sp)
   2343c:	19000003 	ldbu	r4,0(r3)
   23440:	20803fcc 	andi	r2,r4,255
   23444:	1080201c 	xori	r2,r2,128
   23448:	10bfe004 	addi	r2,r2,-128
   2344c:	10011c26 	beq	r2,zero,238c0 <___svfprintf_internal_r+0x4f0>
   23450:	00c00044 	movi	r3,1
   23454:	a0c01426 	beq	r20,r3,234a8 <___svfprintf_internal_r+0xd8>
   23458:	1d000216 	blt	r3,r20,23464 <___svfprintf_internal_r+0x94>
   2345c:	a0000626 	beq	r20,zero,23478 <___svfprintf_internal_r+0xa8>
   23460:	00011306 	br	238b0 <___svfprintf_internal_r+0x4e0>
   23464:	01400084 	movi	r5,2
   23468:	a1401d26 	beq	r20,r5,234e0 <___svfprintf_internal_r+0x110>
   2346c:	014000c4 	movi	r5,3
   23470:	a1402926 	beq	r20,r5,23518 <___svfprintf_internal_r+0x148>
   23474:	00010e06 	br	238b0 <___svfprintf_internal_r+0x4e0>
   23478:	01400944 	movi	r5,37
   2347c:	1140fb26 	beq	r2,r5,2386c <___svfprintf_internal_r+0x49c>
   23480:	e0800117 	ldw	r2,4(fp)
   23484:	d9000005 	stb	r4,0(sp)
   23488:	01c00044 	movi	r7,1
   2348c:	d80d883a 	mov	r6,sp
   23490:	e00b883a 	mov	r5,fp
   23494:	9809883a 	mov	r4,r19
   23498:	103ee83a 	callr	r2
   2349c:	1000d61e 	bne	r2,zero,237f8 <___svfprintf_internal_r+0x428>
   234a0:	84000044 	addi	r16,r16,1
   234a4:	00010206 	br	238b0 <___svfprintf_internal_r+0x4e0>
   234a8:	01400c04 	movi	r5,48
   234ac:	1140f826 	beq	r2,r5,23890 <___svfprintf_internal_r+0x4c0>
   234b0:	01400944 	movi	r5,37
   234b4:	11400a1e 	bne	r2,r5,234e0 <___svfprintf_internal_r+0x110>
   234b8:	d8800005 	stb	r2,0(sp)
   234bc:	e0800117 	ldw	r2,4(fp)
   234c0:	a00f883a 	mov	r7,r20
   234c4:	d80d883a 	mov	r6,sp
   234c8:	e00b883a 	mov	r5,fp
   234cc:	9809883a 	mov	r4,r19
   234d0:	103ee83a 	callr	r2
   234d4:	1000c81e 	bne	r2,zero,237f8 <___svfprintf_internal_r+0x428>
   234d8:	84000044 	addi	r16,r16,1
   234dc:	0000f306 	br	238ac <___svfprintf_internal_r+0x4dc>
   234e0:	217ff404 	addi	r5,r4,-48
   234e4:	29403fcc 	andi	r5,r5,255
   234e8:	00c00244 	movi	r3,9
   234ec:	19400736 	bltu	r3,r5,2350c <___svfprintf_internal_r+0x13c>
   234f0:	00bfffc4 	movi	r2,-1
   234f4:	88800226 	beq	r17,r2,23500 <___svfprintf_internal_r+0x130>
   234f8:	8c4002a4 	muli	r17,r17,10
   234fc:	00000106 	br	23504 <___svfprintf_internal_r+0x134>
   23500:	0023883a 	mov	r17,zero
   23504:	2c63883a 	add	r17,r5,r17
   23508:	0000e206 	br	23894 <___svfprintf_internal_r+0x4c4>
   2350c:	01400b84 	movi	r5,46
   23510:	1140e426 	beq	r2,r5,238a4 <___svfprintf_internal_r+0x4d4>
   23514:	05000084 	movi	r20,2
   23518:	213ff404 	addi	r4,r4,-48
   2351c:	21003fcc 	andi	r4,r4,255
   23520:	00c00244 	movi	r3,9
   23524:	19000736 	bltu	r3,r4,23544 <___svfprintf_internal_r+0x174>
   23528:	00bfffc4 	movi	r2,-1
   2352c:	90800226 	beq	r18,r2,23538 <___svfprintf_internal_r+0x168>
   23530:	948002a4 	muli	r18,r18,10
   23534:	00000106 	br	2353c <___svfprintf_internal_r+0x16c>
   23538:	0025883a 	mov	r18,zero
   2353c:	24a5883a 	add	r18,r4,r18
   23540:	0000db06 	br	238b0 <___svfprintf_internal_r+0x4e0>
   23544:	00c01b04 	movi	r3,108
   23548:	10c0d426 	beq	r2,r3,2389c <___svfprintf_internal_r+0x4cc>
   2354c:	013fffc4 	movi	r4,-1
   23550:	91000226 	beq	r18,r4,2355c <___svfprintf_internal_r+0x18c>
   23554:	d8000b15 	stw	zero,44(sp)
   23558:	00000106 	br	23560 <___svfprintf_internal_r+0x190>
   2355c:	04800044 	movi	r18,1
   23560:	01001a44 	movi	r4,105
   23564:	11001626 	beq	r2,r4,235c0 <___svfprintf_internal_r+0x1f0>
   23568:	20800916 	blt	r4,r2,23590 <___svfprintf_internal_r+0x1c0>
   2356c:	010018c4 	movi	r4,99
   23570:	11008a26 	beq	r2,r4,2379c <___svfprintf_internal_r+0x3cc>
   23574:	01001904 	movi	r4,100
   23578:	11001126 	beq	r2,r4,235c0 <___svfprintf_internal_r+0x1f0>
   2357c:	01001604 	movi	r4,88
   23580:	1100ca1e 	bne	r2,r4,238ac <___svfprintf_internal_r+0x4dc>
   23584:	00c00044 	movi	r3,1
   23588:	d8c00e15 	stw	r3,56(sp)
   2358c:	00001406 	br	235e0 <___svfprintf_internal_r+0x210>
   23590:	01001cc4 	movi	r4,115
   23594:	11009a26 	beq	r2,r4,23800 <___svfprintf_internal_r+0x430>
   23598:	20800416 	blt	r4,r2,235ac <___svfprintf_internal_r+0x1dc>
   2359c:	01001bc4 	movi	r4,111
   235a0:	1100c21e 	bne	r2,r4,238ac <___svfprintf_internal_r+0x4dc>
   235a4:	05400204 	movi	r21,8
   235a8:	00000e06 	br	235e4 <___svfprintf_internal_r+0x214>
   235ac:	01001d44 	movi	r4,117
   235b0:	11000c26 	beq	r2,r4,235e4 <___svfprintf_internal_r+0x214>
   235b4:	01001e04 	movi	r4,120
   235b8:	11000926 	beq	r2,r4,235e0 <___svfprintf_internal_r+0x210>
   235bc:	0000bb06 	br	238ac <___svfprintf_internal_r+0x4dc>
   235c0:	b5000104 	addi	r20,r22,4
   235c4:	b8000726 	beq	r23,zero,235e4 <___svfprintf_internal_r+0x214>
   235c8:	dd000d15 	stw	r20,52(sp)
   235cc:	b5800017 	ldw	r22,0(r22)
   235d0:	b000080e 	bge	r22,zero,235f4 <___svfprintf_internal_r+0x224>
   235d4:	05adc83a 	sub	r22,zero,r22
   235d8:	02800044 	movi	r10,1
   235dc:	00000606 	br	235f8 <___svfprintf_internal_r+0x228>
   235e0:	05400404 	movi	r21,16
   235e4:	b0c00104 	addi	r3,r22,4
   235e8:	d8c00d15 	stw	r3,52(sp)
   235ec:	b5800017 	ldw	r22,0(r22)
   235f0:	002f883a 	mov	r23,zero
   235f4:	0015883a 	mov	r10,zero
   235f8:	d829883a 	mov	r20,sp
   235fc:	b0001426 	beq	r22,zero,23650 <___svfprintf_internal_r+0x280>
   23600:	b009883a 	mov	r4,r22
   23604:	a80b883a 	mov	r5,r21
   23608:	da801015 	stw	r10,64(sp)
   2360c:	0022dbc0 	call	22dbc <__udivsi3>
   23610:	1549383a 	mul	r4,r2,r21
   23614:	00c00244 	movi	r3,9
   23618:	da801017 	ldw	r10,64(sp)
   2361c:	b12dc83a 	sub	r22,r22,r4
   23620:	1d800216 	blt	r3,r22,2362c <___svfprintf_internal_r+0x25c>
   23624:	b5800c04 	addi	r22,r22,48
   23628:	00000506 	br	23640 <___svfprintf_internal_r+0x270>
   2362c:	d8c00e17 	ldw	r3,56(sp)
   23630:	18000226 	beq	r3,zero,2363c <___svfprintf_internal_r+0x26c>
   23634:	b5800dc4 	addi	r22,r22,55
   23638:	00000106 	br	23640 <___svfprintf_internal_r+0x270>
   2363c:	b58015c4 	addi	r22,r22,87
   23640:	a5800005 	stb	r22,0(r20)
   23644:	a5000044 	addi	r20,r20,1
   23648:	102d883a 	mov	r22,r2
   2364c:	003feb06 	br	235fc <__alt_data_end+0xffff4b9c>
   23650:	a6c7c83a 	sub	r3,r20,sp
   23654:	d8c00a15 	stw	r3,40(sp)
   23658:	90c5c83a 	sub	r2,r18,r3
   2365c:	00800a0e 	bge	zero,r2,23688 <___svfprintf_internal_r+0x2b8>
   23660:	a085883a 	add	r2,r20,r2
   23664:	01400c04 	movi	r5,48
   23668:	d8c00917 	ldw	r3,36(sp)
   2366c:	a009883a 	mov	r4,r20
   23670:	a0c0032e 	bgeu	r20,r3,23680 <___svfprintf_internal_r+0x2b0>
   23674:	a5000044 	addi	r20,r20,1
   23678:	21400005 	stb	r5,0(r4)
   2367c:	a0bffa1e 	bne	r20,r2,23668 <__alt_data_end+0xffff4c08>
   23680:	a6c7c83a 	sub	r3,r20,sp
   23684:	d8c00a15 	stw	r3,40(sp)
   23688:	d8c00a17 	ldw	r3,40(sp)
   2368c:	50d3883a 	add	r9,r10,r3
   23690:	d8c00b17 	ldw	r3,44(sp)
   23694:	8a6dc83a 	sub	r22,r17,r9
   23698:	18001726 	beq	r3,zero,236f8 <___svfprintf_internal_r+0x328>
   2369c:	50000a26 	beq	r10,zero,236c8 <___svfprintf_internal_r+0x2f8>
   236a0:	00800b44 	movi	r2,45
   236a4:	d8800805 	stb	r2,32(sp)
   236a8:	e0800117 	ldw	r2,4(fp)
   236ac:	01c00044 	movi	r7,1
   236b0:	d9800804 	addi	r6,sp,32
   236b4:	e00b883a 	mov	r5,fp
   236b8:	9809883a 	mov	r4,r19
   236bc:	103ee83a 	callr	r2
   236c0:	10004d1e 	bne	r2,zero,237f8 <___svfprintf_internal_r+0x428>
   236c4:	84000044 	addi	r16,r16,1
   236c8:	0580070e 	bge	zero,r22,236e8 <___svfprintf_internal_r+0x318>
   236cc:	b00f883a 	mov	r7,r22
   236d0:	01800c04 	movi	r6,48
   236d4:	e00b883a 	mov	r5,fp
   236d8:	9809883a 	mov	r4,r19
   236dc:	00233640 	call	23364 <print_repeat>
   236e0:	1000451e 	bne	r2,zero,237f8 <___svfprintf_internal_r+0x428>
   236e4:	85a1883a 	add	r16,r16,r22
   236e8:	d8c00a17 	ldw	r3,40(sp)
   236ec:	a013883a 	mov	r9,r20
   236f0:	1d2dc83a 	sub	r22,r3,r20
   236f4:	00002206 	br	23780 <___svfprintf_internal_r+0x3b0>
   236f8:	0580090e 	bge	zero,r22,23720 <___svfprintf_internal_r+0x350>
   236fc:	b00f883a 	mov	r7,r22
   23700:	01800804 	movi	r6,32
   23704:	e00b883a 	mov	r5,fp
   23708:	9809883a 	mov	r4,r19
   2370c:	da801015 	stw	r10,64(sp)
   23710:	00233640 	call	23364 <print_repeat>
   23714:	da801017 	ldw	r10,64(sp)
   23718:	1000371e 	bne	r2,zero,237f8 <___svfprintf_internal_r+0x428>
   2371c:	85a1883a 	add	r16,r16,r22
   23720:	503ff126 	beq	r10,zero,236e8 <__alt_data_end+0xffff4c88>
   23724:	00800b44 	movi	r2,45
   23728:	d8800805 	stb	r2,32(sp)
   2372c:	e0800117 	ldw	r2,4(fp)
   23730:	01c00044 	movi	r7,1
   23734:	d9800804 	addi	r6,sp,32
   23738:	e00b883a 	mov	r5,fp
   2373c:	9809883a 	mov	r4,r19
   23740:	103ee83a 	callr	r2
   23744:	10002c1e 	bne	r2,zero,237f8 <___svfprintf_internal_r+0x428>
   23748:	84000044 	addi	r16,r16,1
   2374c:	003fe606 	br	236e8 <__alt_data_end+0xffff4c88>
   23750:	4a7fffc4 	addi	r9,r9,-1
   23754:	48800003 	ldbu	r2,0(r9)
   23758:	01c00044 	movi	r7,1
   2375c:	d9800804 	addi	r6,sp,32
   23760:	d8800805 	stb	r2,32(sp)
   23764:	e0800117 	ldw	r2,4(fp)
   23768:	e00b883a 	mov	r5,fp
   2376c:	da401015 	stw	r9,64(sp)
   23770:	9809883a 	mov	r4,r19
   23774:	103ee83a 	callr	r2
   23778:	da401017 	ldw	r9,64(sp)
   2377c:	10001e1e 	bne	r2,zero,237f8 <___svfprintf_internal_r+0x428>
   23780:	8245c83a 	sub	r2,r16,r9
   23784:	4d89883a 	add	r4,r9,r22
   23788:	a085883a 	add	r2,r20,r2
   2378c:	013ff016 	blt	zero,r4,23750 <__alt_data_end+0xffff4cf0>
   23790:	1021883a 	mov	r16,r2
   23794:	dd800d17 	ldw	r22,52(sp)
   23798:	00004406 	br	238ac <___svfprintf_internal_r+0x4dc>
   2379c:	00800044 	movi	r2,1
   237a0:	1440080e 	bge	r2,r17,237c4 <___svfprintf_internal_r+0x3f4>
   237a4:	8d3fffc4 	addi	r20,r17,-1
   237a8:	a00f883a 	mov	r7,r20
   237ac:	01800804 	movi	r6,32
   237b0:	e00b883a 	mov	r5,fp
   237b4:	9809883a 	mov	r4,r19
   237b8:	00233640 	call	23364 <print_repeat>
   237bc:	10000e1e 	bne	r2,zero,237f8 <___svfprintf_internal_r+0x428>
   237c0:	8521883a 	add	r16,r16,r20
   237c4:	b0800017 	ldw	r2,0(r22)
   237c8:	01c00044 	movi	r7,1
   237cc:	d80d883a 	mov	r6,sp
   237d0:	d8800005 	stb	r2,0(sp)
   237d4:	e0800117 	ldw	r2,4(fp)
   237d8:	e00b883a 	mov	r5,fp
   237dc:	9809883a 	mov	r4,r19
   237e0:	b5000104 	addi	r20,r22,4
   237e4:	103ee83a 	callr	r2
   237e8:	1000031e 	bne	r2,zero,237f8 <___svfprintf_internal_r+0x428>
   237ec:	84000044 	addi	r16,r16,1
   237f0:	a02d883a 	mov	r22,r20
   237f4:	00002d06 	br	238ac <___svfprintf_internal_r+0x4dc>
   237f8:	00bfffc4 	movi	r2,-1
   237fc:	00003106 	br	238c4 <___svfprintf_internal_r+0x4f4>
   23800:	b5000017 	ldw	r20,0(r22)
   23804:	b0c00104 	addi	r3,r22,4
   23808:	d8c00a15 	stw	r3,40(sp)
   2380c:	a009883a 	mov	r4,r20
   23810:	00233480 	call	23348 <strlen>
   23814:	8893c83a 	sub	r9,r17,r2
   23818:	102d883a 	mov	r22,r2
   2381c:	0240090e 	bge	zero,r9,23844 <___svfprintf_internal_r+0x474>
   23820:	480f883a 	mov	r7,r9
   23824:	01800804 	movi	r6,32
   23828:	e00b883a 	mov	r5,fp
   2382c:	9809883a 	mov	r4,r19
   23830:	da401015 	stw	r9,64(sp)
   23834:	00233640 	call	23364 <print_repeat>
   23838:	da401017 	ldw	r9,64(sp)
   2383c:	103fee1e 	bne	r2,zero,237f8 <__alt_data_end+0xffff4d98>
   23840:	8261883a 	add	r16,r16,r9
   23844:	e0800117 	ldw	r2,4(fp)
   23848:	b00f883a 	mov	r7,r22
   2384c:	a00d883a 	mov	r6,r20
   23850:	e00b883a 	mov	r5,fp
   23854:	9809883a 	mov	r4,r19
   23858:	103ee83a 	callr	r2
   2385c:	103fe61e 	bne	r2,zero,237f8 <__alt_data_end+0xffff4d98>
   23860:	85a1883a 	add	r16,r16,r22
   23864:	dd800a17 	ldw	r22,40(sp)
   23868:	00001006 	br	238ac <___svfprintf_internal_r+0x4dc>
   2386c:	05c00044 	movi	r23,1
   23870:	04bfffc4 	movi	r18,-1
   23874:	d8000e15 	stw	zero,56(sp)
   23878:	05400284 	movi	r21,10
   2387c:	9023883a 	mov	r17,r18
   23880:	d8000c15 	stw	zero,48(sp)
   23884:	d8000b15 	stw	zero,44(sp)
   23888:	b829883a 	mov	r20,r23
   2388c:	00000806 	br	238b0 <___svfprintf_internal_r+0x4e0>
   23890:	dd000b15 	stw	r20,44(sp)
   23894:	05000084 	movi	r20,2
   23898:	00000506 	br	238b0 <___svfprintf_internal_r+0x4e0>
   2389c:	00c00044 	movi	r3,1
   238a0:	d8c00c15 	stw	r3,48(sp)
   238a4:	050000c4 	movi	r20,3
   238a8:	00000106 	br	238b0 <___svfprintf_internal_r+0x4e0>
   238ac:	0029883a 	mov	r20,zero
   238b0:	d8c00f17 	ldw	r3,60(sp)
   238b4:	18c00044 	addi	r3,r3,1
   238b8:	d8c00f15 	stw	r3,60(sp)
   238bc:	003ede06 	br	23438 <__alt_data_end+0xffff49d8>
   238c0:	8005883a 	mov	r2,r16
   238c4:	dfc01a17 	ldw	ra,104(sp)
   238c8:	df001917 	ldw	fp,100(sp)
   238cc:	ddc01817 	ldw	r23,96(sp)
   238d0:	dd801717 	ldw	r22,92(sp)
   238d4:	dd401617 	ldw	r21,88(sp)
   238d8:	dd001517 	ldw	r20,84(sp)
   238dc:	dcc01417 	ldw	r19,80(sp)
   238e0:	dc801317 	ldw	r18,76(sp)
   238e4:	dc401217 	ldw	r17,72(sp)
   238e8:	dc001117 	ldw	r16,68(sp)
   238ec:	dec01b04 	addi	sp,sp,108
   238f0:	f800283a 	ret

000238f4 <__vfprintf_internal_unused>:
   238f4:	008000b4 	movhi	r2,2
   238f8:	1095b504 	addi	r2,r2,22228
   238fc:	300f883a 	mov	r7,r6
   23900:	280d883a 	mov	r6,r5
   23904:	200b883a 	mov	r5,r4
   23908:	11000017 	ldw	r4,0(r2)
   2390c:	00233d01 	jmpi	233d0 <___svfprintf_internal_r>

00023910 <print_repeat>:
   23910:	defffb04 	addi	sp,sp,-20
   23914:	dc800315 	stw	r18,12(sp)
   23918:	dc400215 	stw	r17,8(sp)
   2391c:	dc000115 	stw	r16,4(sp)
   23920:	dfc00415 	stw	ra,16(sp)
   23924:	2025883a 	mov	r18,r4
   23928:	2823883a 	mov	r17,r5
   2392c:	d9800005 	stb	r6,0(sp)
   23930:	3821883a 	mov	r16,r7
   23934:	04000a0e 	bge	zero,r16,23960 <print_repeat+0x50>
   23938:	88800117 	ldw	r2,4(r17)
   2393c:	01c00044 	movi	r7,1
   23940:	d80d883a 	mov	r6,sp
   23944:	880b883a 	mov	r5,r17
   23948:	9009883a 	mov	r4,r18
   2394c:	103ee83a 	callr	r2
   23950:	843fffc4 	addi	r16,r16,-1
   23954:	103ff726 	beq	r2,zero,23934 <__alt_data_end+0xffff4ed4>
   23958:	00bfffc4 	movi	r2,-1
   2395c:	00000106 	br	23964 <print_repeat+0x54>
   23960:	0005883a 	mov	r2,zero
   23964:	dfc00417 	ldw	ra,16(sp)
   23968:	dc800317 	ldw	r18,12(sp)
   2396c:	dc400217 	ldw	r17,8(sp)
   23970:	dc000117 	ldw	r16,4(sp)
   23974:	dec00504 	addi	sp,sp,20
   23978:	f800283a 	ret

0002397c <___vfprintf_internal_r>:
   2397c:	deffe504 	addi	sp,sp,-108
   23980:	d8c00804 	addi	r3,sp,32
   23984:	df001915 	stw	fp,100(sp)
   23988:	ddc01815 	stw	r23,96(sp)
   2398c:	dd801715 	stw	r22,92(sp)
   23990:	dd401615 	stw	r21,88(sp)
   23994:	dd001515 	stw	r20,84(sp)
   23998:	dcc01415 	stw	r19,80(sp)
   2399c:	dc801315 	stw	r18,76(sp)
   239a0:	dc401215 	stw	r17,72(sp)
   239a4:	dc001115 	stw	r16,68(sp)
   239a8:	dfc01a15 	stw	ra,104(sp)
   239ac:	2027883a 	mov	r19,r4
   239b0:	2839883a 	mov	fp,r5
   239b4:	382d883a 	mov	r22,r7
   239b8:	d9800f15 	stw	r6,60(sp)
   239bc:	0021883a 	mov	r16,zero
   239c0:	d8000e15 	stw	zero,56(sp)
   239c4:	002f883a 	mov	r23,zero
   239c8:	002b883a 	mov	r21,zero
   239cc:	0025883a 	mov	r18,zero
   239d0:	0023883a 	mov	r17,zero
   239d4:	d8000c15 	stw	zero,48(sp)
   239d8:	d8000b15 	stw	zero,44(sp)
   239dc:	0029883a 	mov	r20,zero
   239e0:	d8c00915 	stw	r3,36(sp)
   239e4:	d8c00f17 	ldw	r3,60(sp)
   239e8:	19000003 	ldbu	r4,0(r3)
   239ec:	20803fcc 	andi	r2,r4,255
   239f0:	1080201c 	xori	r2,r2,128
   239f4:	10bfe004 	addi	r2,r2,-128
   239f8:	10011c26 	beq	r2,zero,23e6c <___vfprintf_internal_r+0x4f0>
   239fc:	00c00044 	movi	r3,1
   23a00:	a0c01426 	beq	r20,r3,23a54 <___vfprintf_internal_r+0xd8>
   23a04:	1d000216 	blt	r3,r20,23a10 <___vfprintf_internal_r+0x94>
   23a08:	a0000626 	beq	r20,zero,23a24 <___vfprintf_internal_r+0xa8>
   23a0c:	00011306 	br	23e5c <___vfprintf_internal_r+0x4e0>
   23a10:	01400084 	movi	r5,2
   23a14:	a1401d26 	beq	r20,r5,23a8c <___vfprintf_internal_r+0x110>
   23a18:	014000c4 	movi	r5,3
   23a1c:	a1402926 	beq	r20,r5,23ac4 <___vfprintf_internal_r+0x148>
   23a20:	00010e06 	br	23e5c <___vfprintf_internal_r+0x4e0>
   23a24:	01400944 	movi	r5,37
   23a28:	1140fb26 	beq	r2,r5,23e18 <___vfprintf_internal_r+0x49c>
   23a2c:	e0800117 	ldw	r2,4(fp)
   23a30:	d9000005 	stb	r4,0(sp)
   23a34:	01c00044 	movi	r7,1
   23a38:	d80d883a 	mov	r6,sp
   23a3c:	e00b883a 	mov	r5,fp
   23a40:	9809883a 	mov	r4,r19
   23a44:	103ee83a 	callr	r2
   23a48:	1000d61e 	bne	r2,zero,23da4 <___vfprintf_internal_r+0x428>
   23a4c:	84000044 	addi	r16,r16,1
   23a50:	00010206 	br	23e5c <___vfprintf_internal_r+0x4e0>
   23a54:	01400c04 	movi	r5,48
   23a58:	1140f826 	beq	r2,r5,23e3c <___vfprintf_internal_r+0x4c0>
   23a5c:	01400944 	movi	r5,37
   23a60:	11400a1e 	bne	r2,r5,23a8c <___vfprintf_internal_r+0x110>
   23a64:	d8800005 	stb	r2,0(sp)
   23a68:	e0800117 	ldw	r2,4(fp)
   23a6c:	a00f883a 	mov	r7,r20
   23a70:	d80d883a 	mov	r6,sp
   23a74:	e00b883a 	mov	r5,fp
   23a78:	9809883a 	mov	r4,r19
   23a7c:	103ee83a 	callr	r2
   23a80:	1000c81e 	bne	r2,zero,23da4 <___vfprintf_internal_r+0x428>
   23a84:	84000044 	addi	r16,r16,1
   23a88:	0000f306 	br	23e58 <___vfprintf_internal_r+0x4dc>
   23a8c:	217ff404 	addi	r5,r4,-48
   23a90:	29403fcc 	andi	r5,r5,255
   23a94:	00c00244 	movi	r3,9
   23a98:	19400736 	bltu	r3,r5,23ab8 <___vfprintf_internal_r+0x13c>
   23a9c:	00bfffc4 	movi	r2,-1
   23aa0:	88800226 	beq	r17,r2,23aac <___vfprintf_internal_r+0x130>
   23aa4:	8c4002a4 	muli	r17,r17,10
   23aa8:	00000106 	br	23ab0 <___vfprintf_internal_r+0x134>
   23aac:	0023883a 	mov	r17,zero
   23ab0:	2c63883a 	add	r17,r5,r17
   23ab4:	0000e206 	br	23e40 <___vfprintf_internal_r+0x4c4>
   23ab8:	01400b84 	movi	r5,46
   23abc:	1140e426 	beq	r2,r5,23e50 <___vfprintf_internal_r+0x4d4>
   23ac0:	05000084 	movi	r20,2
   23ac4:	213ff404 	addi	r4,r4,-48
   23ac8:	21003fcc 	andi	r4,r4,255
   23acc:	00c00244 	movi	r3,9
   23ad0:	19000736 	bltu	r3,r4,23af0 <___vfprintf_internal_r+0x174>
   23ad4:	00bfffc4 	movi	r2,-1
   23ad8:	90800226 	beq	r18,r2,23ae4 <___vfprintf_internal_r+0x168>
   23adc:	948002a4 	muli	r18,r18,10
   23ae0:	00000106 	br	23ae8 <___vfprintf_internal_r+0x16c>
   23ae4:	0025883a 	mov	r18,zero
   23ae8:	24a5883a 	add	r18,r4,r18
   23aec:	0000db06 	br	23e5c <___vfprintf_internal_r+0x4e0>
   23af0:	00c01b04 	movi	r3,108
   23af4:	10c0d426 	beq	r2,r3,23e48 <___vfprintf_internal_r+0x4cc>
   23af8:	013fffc4 	movi	r4,-1
   23afc:	91000226 	beq	r18,r4,23b08 <___vfprintf_internal_r+0x18c>
   23b00:	d8000b15 	stw	zero,44(sp)
   23b04:	00000106 	br	23b0c <___vfprintf_internal_r+0x190>
   23b08:	04800044 	movi	r18,1
   23b0c:	01001a44 	movi	r4,105
   23b10:	11001626 	beq	r2,r4,23b6c <___vfprintf_internal_r+0x1f0>
   23b14:	20800916 	blt	r4,r2,23b3c <___vfprintf_internal_r+0x1c0>
   23b18:	010018c4 	movi	r4,99
   23b1c:	11008a26 	beq	r2,r4,23d48 <___vfprintf_internal_r+0x3cc>
   23b20:	01001904 	movi	r4,100
   23b24:	11001126 	beq	r2,r4,23b6c <___vfprintf_internal_r+0x1f0>
   23b28:	01001604 	movi	r4,88
   23b2c:	1100ca1e 	bne	r2,r4,23e58 <___vfprintf_internal_r+0x4dc>
   23b30:	00c00044 	movi	r3,1
   23b34:	d8c00e15 	stw	r3,56(sp)
   23b38:	00001406 	br	23b8c <___vfprintf_internal_r+0x210>
   23b3c:	01001cc4 	movi	r4,115
   23b40:	11009a26 	beq	r2,r4,23dac <___vfprintf_internal_r+0x430>
   23b44:	20800416 	blt	r4,r2,23b58 <___vfprintf_internal_r+0x1dc>
   23b48:	01001bc4 	movi	r4,111
   23b4c:	1100c21e 	bne	r2,r4,23e58 <___vfprintf_internal_r+0x4dc>
   23b50:	05400204 	movi	r21,8
   23b54:	00000e06 	br	23b90 <___vfprintf_internal_r+0x214>
   23b58:	01001d44 	movi	r4,117
   23b5c:	11000c26 	beq	r2,r4,23b90 <___vfprintf_internal_r+0x214>
   23b60:	01001e04 	movi	r4,120
   23b64:	11000926 	beq	r2,r4,23b8c <___vfprintf_internal_r+0x210>
   23b68:	0000bb06 	br	23e58 <___vfprintf_internal_r+0x4dc>
   23b6c:	b5000104 	addi	r20,r22,4
   23b70:	b8000726 	beq	r23,zero,23b90 <___vfprintf_internal_r+0x214>
   23b74:	dd000d15 	stw	r20,52(sp)
   23b78:	b5800017 	ldw	r22,0(r22)
   23b7c:	b000080e 	bge	r22,zero,23ba0 <___vfprintf_internal_r+0x224>
   23b80:	05adc83a 	sub	r22,zero,r22
   23b84:	02800044 	movi	r10,1
   23b88:	00000606 	br	23ba4 <___vfprintf_internal_r+0x228>
   23b8c:	05400404 	movi	r21,16
   23b90:	b0c00104 	addi	r3,r22,4
   23b94:	d8c00d15 	stw	r3,52(sp)
   23b98:	b5800017 	ldw	r22,0(r22)
   23b9c:	002f883a 	mov	r23,zero
   23ba0:	0015883a 	mov	r10,zero
   23ba4:	d829883a 	mov	r20,sp
   23ba8:	b0001426 	beq	r22,zero,23bfc <___vfprintf_internal_r+0x280>
   23bac:	b009883a 	mov	r4,r22
   23bb0:	a80b883a 	mov	r5,r21
   23bb4:	da801015 	stw	r10,64(sp)
   23bb8:	0022dbc0 	call	22dbc <__udivsi3>
   23bbc:	1549383a 	mul	r4,r2,r21
   23bc0:	00c00244 	movi	r3,9
   23bc4:	da801017 	ldw	r10,64(sp)
   23bc8:	b12dc83a 	sub	r22,r22,r4
   23bcc:	1d800216 	blt	r3,r22,23bd8 <___vfprintf_internal_r+0x25c>
   23bd0:	b5800c04 	addi	r22,r22,48
   23bd4:	00000506 	br	23bec <___vfprintf_internal_r+0x270>
   23bd8:	d8c00e17 	ldw	r3,56(sp)
   23bdc:	18000226 	beq	r3,zero,23be8 <___vfprintf_internal_r+0x26c>
   23be0:	b5800dc4 	addi	r22,r22,55
   23be4:	00000106 	br	23bec <___vfprintf_internal_r+0x270>
   23be8:	b58015c4 	addi	r22,r22,87
   23bec:	a5800005 	stb	r22,0(r20)
   23bf0:	a5000044 	addi	r20,r20,1
   23bf4:	102d883a 	mov	r22,r2
   23bf8:	003feb06 	br	23ba8 <__alt_data_end+0xffff5148>
   23bfc:	a6c7c83a 	sub	r3,r20,sp
   23c00:	d8c00a15 	stw	r3,40(sp)
   23c04:	90c5c83a 	sub	r2,r18,r3
   23c08:	00800a0e 	bge	zero,r2,23c34 <___vfprintf_internal_r+0x2b8>
   23c0c:	a085883a 	add	r2,r20,r2
   23c10:	01400c04 	movi	r5,48
   23c14:	d8c00917 	ldw	r3,36(sp)
   23c18:	a009883a 	mov	r4,r20
   23c1c:	a0c0032e 	bgeu	r20,r3,23c2c <___vfprintf_internal_r+0x2b0>
   23c20:	a5000044 	addi	r20,r20,1
   23c24:	21400005 	stb	r5,0(r4)
   23c28:	a0bffa1e 	bne	r20,r2,23c14 <__alt_data_end+0xffff51b4>
   23c2c:	a6c7c83a 	sub	r3,r20,sp
   23c30:	d8c00a15 	stw	r3,40(sp)
   23c34:	d8c00a17 	ldw	r3,40(sp)
   23c38:	50d3883a 	add	r9,r10,r3
   23c3c:	d8c00b17 	ldw	r3,44(sp)
   23c40:	8a6dc83a 	sub	r22,r17,r9
   23c44:	18001726 	beq	r3,zero,23ca4 <___vfprintf_internal_r+0x328>
   23c48:	50000a26 	beq	r10,zero,23c74 <___vfprintf_internal_r+0x2f8>
   23c4c:	00800b44 	movi	r2,45
   23c50:	d8800805 	stb	r2,32(sp)
   23c54:	e0800117 	ldw	r2,4(fp)
   23c58:	01c00044 	movi	r7,1
   23c5c:	d9800804 	addi	r6,sp,32
   23c60:	e00b883a 	mov	r5,fp
   23c64:	9809883a 	mov	r4,r19
   23c68:	103ee83a 	callr	r2
   23c6c:	10004d1e 	bne	r2,zero,23da4 <___vfprintf_internal_r+0x428>
   23c70:	84000044 	addi	r16,r16,1
   23c74:	0580070e 	bge	zero,r22,23c94 <___vfprintf_internal_r+0x318>
   23c78:	b00f883a 	mov	r7,r22
   23c7c:	01800c04 	movi	r6,48
   23c80:	e00b883a 	mov	r5,fp
   23c84:	9809883a 	mov	r4,r19
   23c88:	00239100 	call	23910 <print_repeat>
   23c8c:	1000451e 	bne	r2,zero,23da4 <___vfprintf_internal_r+0x428>
   23c90:	85a1883a 	add	r16,r16,r22
   23c94:	d8c00a17 	ldw	r3,40(sp)
   23c98:	a013883a 	mov	r9,r20
   23c9c:	1d2dc83a 	sub	r22,r3,r20
   23ca0:	00002206 	br	23d2c <___vfprintf_internal_r+0x3b0>
   23ca4:	0580090e 	bge	zero,r22,23ccc <___vfprintf_internal_r+0x350>
   23ca8:	b00f883a 	mov	r7,r22
   23cac:	01800804 	movi	r6,32
   23cb0:	e00b883a 	mov	r5,fp
   23cb4:	9809883a 	mov	r4,r19
   23cb8:	da801015 	stw	r10,64(sp)
   23cbc:	00239100 	call	23910 <print_repeat>
   23cc0:	da801017 	ldw	r10,64(sp)
   23cc4:	1000371e 	bne	r2,zero,23da4 <___vfprintf_internal_r+0x428>
   23cc8:	85a1883a 	add	r16,r16,r22
   23ccc:	503ff126 	beq	r10,zero,23c94 <__alt_data_end+0xffff5234>
   23cd0:	00800b44 	movi	r2,45
   23cd4:	d8800805 	stb	r2,32(sp)
   23cd8:	e0800117 	ldw	r2,4(fp)
   23cdc:	01c00044 	movi	r7,1
   23ce0:	d9800804 	addi	r6,sp,32
   23ce4:	e00b883a 	mov	r5,fp
   23ce8:	9809883a 	mov	r4,r19
   23cec:	103ee83a 	callr	r2
   23cf0:	10002c1e 	bne	r2,zero,23da4 <___vfprintf_internal_r+0x428>
   23cf4:	84000044 	addi	r16,r16,1
   23cf8:	003fe606 	br	23c94 <__alt_data_end+0xffff5234>
   23cfc:	4a7fffc4 	addi	r9,r9,-1
   23d00:	48800003 	ldbu	r2,0(r9)
   23d04:	01c00044 	movi	r7,1
   23d08:	d9800804 	addi	r6,sp,32
   23d0c:	d8800805 	stb	r2,32(sp)
   23d10:	e0800117 	ldw	r2,4(fp)
   23d14:	e00b883a 	mov	r5,fp
   23d18:	da401015 	stw	r9,64(sp)
   23d1c:	9809883a 	mov	r4,r19
   23d20:	103ee83a 	callr	r2
   23d24:	da401017 	ldw	r9,64(sp)
   23d28:	10001e1e 	bne	r2,zero,23da4 <___vfprintf_internal_r+0x428>
   23d2c:	8245c83a 	sub	r2,r16,r9
   23d30:	4d89883a 	add	r4,r9,r22
   23d34:	a085883a 	add	r2,r20,r2
   23d38:	013ff016 	blt	zero,r4,23cfc <__alt_data_end+0xffff529c>
   23d3c:	1021883a 	mov	r16,r2
   23d40:	dd800d17 	ldw	r22,52(sp)
   23d44:	00004406 	br	23e58 <___vfprintf_internal_r+0x4dc>
   23d48:	00800044 	movi	r2,1
   23d4c:	1440080e 	bge	r2,r17,23d70 <___vfprintf_internal_r+0x3f4>
   23d50:	8d3fffc4 	addi	r20,r17,-1
   23d54:	a00f883a 	mov	r7,r20
   23d58:	01800804 	movi	r6,32
   23d5c:	e00b883a 	mov	r5,fp
   23d60:	9809883a 	mov	r4,r19
   23d64:	00239100 	call	23910 <print_repeat>
   23d68:	10000e1e 	bne	r2,zero,23da4 <___vfprintf_internal_r+0x428>
   23d6c:	8521883a 	add	r16,r16,r20
   23d70:	b0800017 	ldw	r2,0(r22)
   23d74:	01c00044 	movi	r7,1
   23d78:	d80d883a 	mov	r6,sp
   23d7c:	d8800005 	stb	r2,0(sp)
   23d80:	e0800117 	ldw	r2,4(fp)
   23d84:	e00b883a 	mov	r5,fp
   23d88:	9809883a 	mov	r4,r19
   23d8c:	b5000104 	addi	r20,r22,4
   23d90:	103ee83a 	callr	r2
   23d94:	1000031e 	bne	r2,zero,23da4 <___vfprintf_internal_r+0x428>
   23d98:	84000044 	addi	r16,r16,1
   23d9c:	a02d883a 	mov	r22,r20
   23da0:	00002d06 	br	23e58 <___vfprintf_internal_r+0x4dc>
   23da4:	00bfffc4 	movi	r2,-1
   23da8:	00003106 	br	23e70 <___vfprintf_internal_r+0x4f4>
   23dac:	b5000017 	ldw	r20,0(r22)
   23db0:	b0c00104 	addi	r3,r22,4
   23db4:	d8c00a15 	stw	r3,40(sp)
   23db8:	a009883a 	mov	r4,r20
   23dbc:	00233480 	call	23348 <strlen>
   23dc0:	8893c83a 	sub	r9,r17,r2
   23dc4:	102d883a 	mov	r22,r2
   23dc8:	0240090e 	bge	zero,r9,23df0 <___vfprintf_internal_r+0x474>
   23dcc:	480f883a 	mov	r7,r9
   23dd0:	01800804 	movi	r6,32
   23dd4:	e00b883a 	mov	r5,fp
   23dd8:	9809883a 	mov	r4,r19
   23ddc:	da401015 	stw	r9,64(sp)
   23de0:	00239100 	call	23910 <print_repeat>
   23de4:	da401017 	ldw	r9,64(sp)
   23de8:	103fee1e 	bne	r2,zero,23da4 <__alt_data_end+0xffff5344>
   23dec:	8261883a 	add	r16,r16,r9
   23df0:	e0800117 	ldw	r2,4(fp)
   23df4:	b00f883a 	mov	r7,r22
   23df8:	a00d883a 	mov	r6,r20
   23dfc:	e00b883a 	mov	r5,fp
   23e00:	9809883a 	mov	r4,r19
   23e04:	103ee83a 	callr	r2
   23e08:	103fe61e 	bne	r2,zero,23da4 <__alt_data_end+0xffff5344>
   23e0c:	85a1883a 	add	r16,r16,r22
   23e10:	dd800a17 	ldw	r22,40(sp)
   23e14:	00001006 	br	23e58 <___vfprintf_internal_r+0x4dc>
   23e18:	05c00044 	movi	r23,1
   23e1c:	04bfffc4 	movi	r18,-1
   23e20:	d8000e15 	stw	zero,56(sp)
   23e24:	05400284 	movi	r21,10
   23e28:	9023883a 	mov	r17,r18
   23e2c:	d8000c15 	stw	zero,48(sp)
   23e30:	d8000b15 	stw	zero,44(sp)
   23e34:	b829883a 	mov	r20,r23
   23e38:	00000806 	br	23e5c <___vfprintf_internal_r+0x4e0>
   23e3c:	dd000b15 	stw	r20,44(sp)
   23e40:	05000084 	movi	r20,2
   23e44:	00000506 	br	23e5c <___vfprintf_internal_r+0x4e0>
   23e48:	00c00044 	movi	r3,1
   23e4c:	d8c00c15 	stw	r3,48(sp)
   23e50:	050000c4 	movi	r20,3
   23e54:	00000106 	br	23e5c <___vfprintf_internal_r+0x4e0>
   23e58:	0029883a 	mov	r20,zero
   23e5c:	d8c00f17 	ldw	r3,60(sp)
   23e60:	18c00044 	addi	r3,r3,1
   23e64:	d8c00f15 	stw	r3,60(sp)
   23e68:	003ede06 	br	239e4 <__alt_data_end+0xffff4f84>
   23e6c:	8005883a 	mov	r2,r16
   23e70:	dfc01a17 	ldw	ra,104(sp)
   23e74:	df001917 	ldw	fp,100(sp)
   23e78:	ddc01817 	ldw	r23,96(sp)
   23e7c:	dd801717 	ldw	r22,92(sp)
   23e80:	dd401617 	ldw	r21,88(sp)
   23e84:	dd001517 	ldw	r20,84(sp)
   23e88:	dcc01417 	ldw	r19,80(sp)
   23e8c:	dc801317 	ldw	r18,76(sp)
   23e90:	dc401217 	ldw	r17,72(sp)
   23e94:	dc001117 	ldw	r16,68(sp)
   23e98:	dec01b04 	addi	sp,sp,108
   23e9c:	f800283a 	ret

00023ea0 <__vfprintf_internal>:
   23ea0:	008000b4 	movhi	r2,2
   23ea4:	1095b504 	addi	r2,r2,22228
   23ea8:	300f883a 	mov	r7,r6
   23eac:	280d883a 	mov	r6,r5
   23eb0:	200b883a 	mov	r5,r4
   23eb4:	11000017 	ldw	r4,0(r2)
   23eb8:	002397c1 	jmpi	2397c <___vfprintf_internal_r>

00023ebc <__sfvwrite_small_dev>:
   23ebc:	2880000b 	ldhu	r2,0(r5)
   23ec0:	1080020c 	andi	r2,r2,8
   23ec4:	10002126 	beq	r2,zero,23f4c <__sfvwrite_small_dev+0x90>
   23ec8:	2880008f 	ldh	r2,2(r5)
   23ecc:	defffa04 	addi	sp,sp,-24
   23ed0:	dc000015 	stw	r16,0(sp)
   23ed4:	dfc00515 	stw	ra,20(sp)
   23ed8:	dd000415 	stw	r20,16(sp)
   23edc:	dcc00315 	stw	r19,12(sp)
   23ee0:	dc800215 	stw	r18,8(sp)
   23ee4:	dc400115 	stw	r17,4(sp)
   23ee8:	2821883a 	mov	r16,r5
   23eec:	10001216 	blt	r2,zero,23f38 <__sfvwrite_small_dev+0x7c>
   23ef0:	2027883a 	mov	r19,r4
   23ef4:	3025883a 	mov	r18,r6
   23ef8:	3823883a 	mov	r17,r7
   23efc:	05010004 	movi	r20,1024
   23f00:	04400b0e 	bge	zero,r17,23f30 <__sfvwrite_small_dev+0x74>
   23f04:	880f883a 	mov	r7,r17
   23f08:	a440010e 	bge	r20,r17,23f10 <__sfvwrite_small_dev+0x54>
   23f0c:	01c10004 	movi	r7,1024
   23f10:	8140008f 	ldh	r5,2(r16)
   23f14:	900d883a 	mov	r6,r18
   23f18:	9809883a 	mov	r4,r19
   23f1c:	00241280 	call	24128 <_write_r>
   23f20:	0080050e 	bge	zero,r2,23f38 <__sfvwrite_small_dev+0x7c>
   23f24:	88a3c83a 	sub	r17,r17,r2
   23f28:	90a5883a 	add	r18,r18,r2
   23f2c:	003ff406 	br	23f00 <__alt_data_end+0xffff54a0>
   23f30:	0005883a 	mov	r2,zero
   23f34:	00000706 	br	23f54 <__sfvwrite_small_dev+0x98>
   23f38:	8080000b 	ldhu	r2,0(r16)
   23f3c:	10801014 	ori	r2,r2,64
   23f40:	8080000d 	sth	r2,0(r16)
   23f44:	00bfffc4 	movi	r2,-1
   23f48:	00000206 	br	23f54 <__sfvwrite_small_dev+0x98>
   23f4c:	00bfffc4 	movi	r2,-1
   23f50:	f800283a 	ret
   23f54:	dfc00517 	ldw	ra,20(sp)
   23f58:	dd000417 	ldw	r20,16(sp)
   23f5c:	dcc00317 	ldw	r19,12(sp)
   23f60:	dc800217 	ldw	r18,8(sp)
   23f64:	dc400117 	ldw	r17,4(sp)
   23f68:	dc000017 	ldw	r16,0(sp)
   23f6c:	dec00604 	addi	sp,sp,24
   23f70:	f800283a 	ret

00023f74 <__sfvwrite_small_str>:
   23f74:	2880000b 	ldhu	r2,0(r5)
   23f78:	10c0020c 	andi	r3,r2,8
   23f7c:	18002026 	beq	r3,zero,24000 <__sfvwrite_small_str+0x8c>
   23f80:	28c0008f 	ldh	r3,2(r5)
   23f84:	defffd04 	addi	sp,sp,-12
   23f88:	dc000015 	stw	r16,0(sp)
   23f8c:	dfc00215 	stw	ra,8(sp)
   23f90:	dc400115 	stw	r17,4(sp)
   23f94:	2821883a 	mov	r16,r5
   23f98:	1800150e 	bge	r3,zero,23ff0 <__sfvwrite_small_str+0x7c>
   23f9c:	10c0800c 	andi	r3,r2,512
   23fa0:	18001326 	beq	r3,zero,23ff0 <__sfvwrite_small_str+0x7c>
   23fa4:	2c400517 	ldw	r17,20(r5)
   23fa8:	89c0030e 	bge	r17,r7,23fb8 <__sfvwrite_small_str+0x44>
   23fac:	10c0200c 	andi	r3,r2,128
   23fb0:	18000326 	beq	r3,zero,23fc0 <__sfvwrite_small_str+0x4c>
   23fb4:	00000e06 	br	23ff0 <__sfvwrite_small_str+0x7c>
   23fb8:	3c40010e 	bge	r7,r17,23fc0 <__sfvwrite_small_str+0x4c>
   23fbc:	3823883a 	mov	r17,r7
   23fc0:	81000417 	ldw	r4,16(r16)
   23fc4:	300b883a 	mov	r5,r6
   23fc8:	880d883a 	mov	r6,r17
   23fcc:	002401c0 	call	2401c <memmove>
   23fd0:	80800517 	ldw	r2,20(r16)
   23fd4:	1445c83a 	sub	r2,r2,r17
   23fd8:	80800515 	stw	r2,20(r16)
   23fdc:	80800417 	ldw	r2,16(r16)
   23fe0:	1463883a 	add	r17,r2,r17
   23fe4:	84400415 	stw	r17,16(r16)
   23fe8:	0005883a 	mov	r2,zero
   23fec:	00000606 	br	24008 <__sfvwrite_small_str+0x94>
   23ff0:	10801014 	ori	r2,r2,64
   23ff4:	8080000d 	sth	r2,0(r16)
   23ff8:	00bfffc4 	movi	r2,-1
   23ffc:	00000206 	br	24008 <__sfvwrite_small_str+0x94>
   24000:	00bfffc4 	movi	r2,-1
   24004:	f800283a 	ret
   24008:	dfc00217 	ldw	ra,8(sp)
   2400c:	dc400117 	ldw	r17,4(sp)
   24010:	dc000017 	ldw	r16,0(sp)
   24014:	dec00304 	addi	sp,sp,12
   24018:	f800283a 	ret

0002401c <memmove>:
   2401c:	2005883a 	mov	r2,r4
   24020:	218f883a 	add	r7,r4,r6
   24024:	29000236 	bltu	r5,r4,24030 <memmove+0x14>
   24028:	1007883a 	mov	r3,r2
   2402c:	00000c06 	br	24060 <memmove+0x44>
   24030:	2987883a 	add	r3,r5,r6
   24034:	20fffc2e 	bgeu	r4,r3,24028 <__alt_data_end+0xffff55c8>
   24038:	380b883a 	mov	r5,r7
   2403c:	30cdc83a 	sub	r6,r6,r3
   24040:	1989883a 	add	r4,r3,r6
   24044:	20000526 	beq	r4,zero,2405c <memmove+0x40>
   24048:	18ffffc4 	addi	r3,r3,-1
   2404c:	19000003 	ldbu	r4,0(r3)
   24050:	297fffc4 	addi	r5,r5,-1
   24054:	29000005 	stb	r4,0(r5)
   24058:	003ff906 	br	24040 <__alt_data_end+0xffff55e0>
   2405c:	f800283a 	ret
   24060:	19c00526 	beq	r3,r7,24078 <memmove+0x5c>
   24064:	29000003 	ldbu	r4,0(r5)
   24068:	18c00044 	addi	r3,r3,1
   2406c:	29400044 	addi	r5,r5,1
   24070:	193fffc5 	stb	r4,-1(r3)
   24074:	003ffa06 	br	24060 <__alt_data_end+0xffff5600>
   24078:	f800283a 	ret

0002407c <putc>:
   2407c:	defffd04 	addi	sp,sp,-12
   24080:	008000b4 	movhi	r2,2
   24084:	dc000115 	stw	r16,4(sp)
   24088:	dfc00215 	stw	ra,8(sp)
   2408c:	108faf04 	addi	r2,r2,16060
   24090:	28800115 	stw	r2,4(r5)
   24094:	008000b4 	movhi	r2,2
   24098:	1095b504 	addi	r2,r2,22228
   2409c:	d9000005 	stb	r4,0(sp)
   240a0:	2021883a 	mov	r16,r4
   240a4:	11000017 	ldw	r4,0(r2)
   240a8:	01c00044 	movi	r7,1
   240ac:	d80d883a 	mov	r6,sp
   240b0:	0023ebc0 	call	23ebc <__sfvwrite_small_dev>
   240b4:	00ffffc4 	movi	r3,-1
   240b8:	10c00126 	beq	r2,r3,240c0 <putc+0x44>
   240bc:	8005883a 	mov	r2,r16
   240c0:	dfc00217 	ldw	ra,8(sp)
   240c4:	dc000117 	ldw	r16,4(sp)
   240c8:	dec00304 	addi	sp,sp,12
   240cc:	f800283a 	ret

000240d0 <_putc_r>:
   240d0:	defffd04 	addi	sp,sp,-12
   240d4:	008000b4 	movhi	r2,2
   240d8:	dc000115 	stw	r16,4(sp)
   240dc:	dfc00215 	stw	ra,8(sp)
   240e0:	108faf04 	addi	r2,r2,16060
   240e4:	30800115 	stw	r2,4(r6)
   240e8:	008000b4 	movhi	r2,2
   240ec:	1095b504 	addi	r2,r2,22228
   240f0:	11000017 	ldw	r4,0(r2)
   240f4:	2821883a 	mov	r16,r5
   240f8:	01c00044 	movi	r7,1
   240fc:	300b883a 	mov	r5,r6
   24100:	d80d883a 	mov	r6,sp
   24104:	dc000005 	stb	r16,0(sp)
   24108:	0023ebc0 	call	23ebc <__sfvwrite_small_dev>
   2410c:	00ffffc4 	movi	r3,-1
   24110:	10c00126 	beq	r2,r3,24118 <_putc_r+0x48>
   24114:	8005883a 	mov	r2,r16
   24118:	dfc00217 	ldw	ra,8(sp)
   2411c:	dc000117 	ldw	r16,4(sp)
   24120:	dec00304 	addi	sp,sp,12
   24124:	f800283a 	ret

00024128 <_write_r>:
   24128:	defffd04 	addi	sp,sp,-12
   2412c:	dc000015 	stw	r16,0(sp)
   24130:	040000b4 	movhi	r16,2
   24134:	dc400115 	stw	r17,4(sp)
   24138:	84162904 	addi	r16,r16,22692
   2413c:	2023883a 	mov	r17,r4
   24140:	2809883a 	mov	r4,r5
   24144:	300b883a 	mov	r5,r6
   24148:	380d883a 	mov	r6,r7
   2414c:	dfc00215 	stw	ra,8(sp)
   24150:	80000015 	stw	zero,0(r16)
   24154:	002467c0 	call	2467c <write>
   24158:	00ffffc4 	movi	r3,-1
   2415c:	10c0031e 	bne	r2,r3,2416c <_write_r+0x44>
   24160:	80c00017 	ldw	r3,0(r16)
   24164:	18000126 	beq	r3,zero,2416c <_write_r+0x44>
   24168:	88c00015 	stw	r3,0(r17)
   2416c:	dfc00217 	ldw	ra,8(sp)
   24170:	dc400117 	ldw	r17,4(sp)
   24174:	dc000017 	ldw	r16,0(sp)
   24178:	dec00304 	addi	sp,sp,12
   2417c:	f800283a 	ret

00024180 <fcntl>:
 *
 * ALT_FCNTL is mapped onto the fcntl() system call in alt_syscall.h
 */
 
int ALT_FCNTL (int file, int cmd, ...)
{ 
   24180:	defffd04 	addi	sp,sp,-12
   24184:	dfc00015 	stw	ra,0(sp)
   24188:	d9800115 	stw	r6,4(sp)
   2418c:	d9c00215 	stw	r7,8(sp)
   * A common error case is that when the file descriptor was created, the call
   * to open() failed resulting in a negative file descriptor. This is trapped
   * below so that we don't try and process an invalid file descriptor.
   */

  fd = (file < 0) ? NULL : &alt_fd_list[file];
   24190:	20001e16 	blt	r4,zero,2420c <fcntl+0x8c>
   24194:	21000324 	muli	r4,r4,12
   24198:	008000b4 	movhi	r2,2
   2419c:	10959904 	addi	r2,r2,22116
   241a0:	2089883a 	add	r4,r4,r2
  
  if (fd)
   241a4:	20001926 	beq	r4,zero,2420c <fcntl+0x8c>
  {
    switch (cmd)
   241a8:	008000c4 	movi	r2,3
   241ac:	28800b26 	beq	r5,r2,241dc <fcntl+0x5c>
   241b0:	00800104 	movi	r2,4
   241b4:	28800e1e 	bne	r5,r2,241f0 <fcntl+0x70>
      return fd->fd_flags & ~((alt_u32) ALT_FD_FLAGS_MASK);
    case F_SETFL:
      va_start(argp, cmd);
      flags = va_arg(argp, long);
      fd->fd_flags &= ~ALT_FCNTL_FLAGS_MASK;
      fd->fd_flags |= (flags & ALT_FCNTL_FLAGS_MASK);
   241b8:	21000204 	addi	r4,r4,8
   241bc:	20c00017 	ldw	r3,0(r4)
   241c0:	00affdc4 	movi	r2,-16393
   241c4:	3190020c 	andi	r6,r6,16392
   241c8:	1884703a 	and	r2,r3,r2
   241cc:	118cb03a 	or	r6,r2,r6
   241d0:	21800015 	stw	r6,0(r4)
      va_end(argp);
      return 0;
   241d4:	0005883a 	mov	r2,zero
   241d8:	00001406 	br	2422c <fcntl+0xac>
  if (fd)
  {
    switch (cmd)
    {
    case F_GETFL:
      return fd->fd_flags & ~((alt_u32) ALT_FD_FLAGS_MASK);
   241dc:	20c00217 	ldw	r3,8(r4)
   241e0:	00900034 	movhi	r2,16384
   241e4:	10bfffc4 	addi	r2,r2,-1
   241e8:	1884703a 	and	r2,r3,r2
   241ec:	00000f06 	br	2422c <fcntl+0xac>

extern int errno;

static ALT_INLINE int* alt_get_errno(void)
{
  return ((alt_errno) ? alt_errno() : &errno);
   241f0:	d0a01117 	ldw	r2,-32700(gp)
   241f4:	10000226 	beq	r2,zero,24200 <fcntl+0x80>
   241f8:	103ee83a 	callr	r2
   241fc:	00000106 	br	24204 <fcntl+0x84>
   24200:	d0a07a04 	addi	r2,gp,-32280
      fd->fd_flags &= ~ALT_FCNTL_FLAGS_MASK;
      fd->fd_flags |= (flags & ALT_FCNTL_FLAGS_MASK);
      va_end(argp);
      return 0;
    default:
      ALT_ERRNO = EINVAL;
   24204:	00c00584 	movi	r3,22
   24208:	00000606 	br	24224 <fcntl+0xa4>
   2420c:	d0a01117 	ldw	r2,-32700(gp)
   24210:	10000226 	beq	r2,zero,2421c <fcntl+0x9c>
   24214:	103ee83a 	callr	r2
   24218:	00000106 	br	24220 <fcntl+0xa0>
   2421c:	d0a07a04 	addi	r2,gp,-32280
      return -1;
    }
  }

  ALT_ERRNO = EBADFD;
   24220:	00c01444 	movi	r3,81
   24224:	10c00015 	stw	r3,0(r2)
  return -1;
   24228:	00bfffc4 	movi	r2,-1
}
   2422c:	dfc00017 	ldw	ra,0(sp)
   24230:	dec00304 	addi	sp,sp,12
   24234:	f800283a 	ret

00024238 <alt_getchar>:
#else
#ifdef ALT_USE_DIRECT_DRIVERS
    ALT_DRIVER_READ_EXTERNS(ALT_STDIN_DEV);
    char c;

    if (ALT_DRIVER_READ(ALT_STDIN_DEV, &c, 1, alt_fd_list[STDIN_FILENO].fd_flags) <= 0) {
   24238:	008000b4 	movhi	r2,2
   2423c:	10959904 	addi	r2,r2,22116
   24240:	11c00217 	ldw	r7,8(r2)
 * Uses the ALT_DRIVER_READ() macro to call directly to driver if available.
 * Otherwise, uses newlib provided getchar() routine.
 */
int 
alt_getchar(void)
{
   24244:	defffe04 	addi	sp,sp,-8
#else
#ifdef ALT_USE_DIRECT_DRIVERS
    ALT_DRIVER_READ_EXTERNS(ALT_STDIN_DEV);
    char c;

    if (ALT_DRIVER_READ(ALT_STDIN_DEV, &c, 1, alt_fd_list[STDIN_FILENO].fd_flags) <= 0) {
   24248:	010000b4 	movhi	r4,2
   2424c:	01800044 	movi	r6,1
   24250:	d80b883a 	mov	r5,sp
   24254:	2115ba04 	addi	r4,r4,22248
 * Uses the ALT_DRIVER_READ() macro to call directly to driver if available.
 * Otherwise, uses newlib provided getchar() routine.
 */
int 
alt_getchar(void)
{
   24258:	dfc00115 	stw	ra,4(sp)
#else
#ifdef ALT_USE_DIRECT_DRIVERS
    ALT_DRIVER_READ_EXTERNS(ALT_STDIN_DEV);
    char c;

    if (ALT_DRIVER_READ(ALT_STDIN_DEV, &c, 1, alt_fd_list[STDIN_FILENO].fd_flags) <= 0) {
   2425c:	00247000 	call	24700 <altera_avalon_jtag_uart_read>
   24260:	0080020e 	bge	zero,r2,2426c <alt_getchar+0x34>
        return -1;
    }
    return c;
   24264:	d8800007 	ldb	r2,0(sp)
   24268:	00000106 	br	24270 <alt_getchar+0x38>
#ifdef ALT_USE_DIRECT_DRIVERS
    ALT_DRIVER_READ_EXTERNS(ALT_STDIN_DEV);
    char c;

    if (ALT_DRIVER_READ(ALT_STDIN_DEV, &c, 1, alt_fd_list[STDIN_FILENO].fd_flags) <= 0) {
        return -1;
   2426c:	00bfffc4 	movi	r2,-1
    return c;
#else
    return getchar();
#endif
#endif
}
   24270:	dfc00117 	ldw	ra,4(sp)
   24274:	dec00204 	addi	sp,sp,8
   24278:	f800283a 	ret

0002427c <alt_load>:
 * there is no bootloader, so this application is responsible for loading to
 * RAM any sections that are required.
 */  

void alt_load (void)
{
   2427c:	deffff04 	addi	sp,sp,-4
   24280:	010000b4 	movhi	r4,2
   24284:	014000b4 	movhi	r5,2
   24288:	dfc00015 	stw	ra,0(sp)
   2428c:	21156104 	addi	r4,r4,21892
   24290:	2955c104 	addi	r5,r5,22276

static void ALT_INLINE alt_load_section (alt_u32* from, 
                                         alt_u32* to, 
                                         alt_u32* end)
{
  if (to != from)
   24294:	2140061e 	bne	r4,r5,242b0 <alt_load+0x34>
   24298:	010000b4 	movhi	r4,2
   2429c:	014000b4 	movhi	r5,2
   242a0:	21000804 	addi	r4,r4,32
   242a4:	29400804 	addi	r5,r5,32
   242a8:	2140121e 	bne	r4,r5,242f4 <alt_load+0x78>
   242ac:	00000b06 	br	242dc <alt_load+0x60>
   242b0:	00c000b4 	movhi	r3,2
   242b4:	18d5c104 	addi	r3,r3,22276
   242b8:	1907c83a 	sub	r3,r3,r4
   242bc:	0005883a 	mov	r2,zero
  {
    while( to != end )
   242c0:	10fff526 	beq	r2,r3,24298 <__alt_data_end+0xffff5838>
    {
      *to++ = *from++;
   242c4:	114f883a 	add	r7,r2,r5
   242c8:	39c00017 	ldw	r7,0(r7)
   242cc:	110d883a 	add	r6,r2,r4
   242d0:	10800104 	addi	r2,r2,4
   242d4:	31c00015 	stw	r7,0(r6)
   242d8:	003ff906 	br	242c0 <__alt_data_end+0xffff5860>
   242dc:	010000b4 	movhi	r4,2
   242e0:	014000b4 	movhi	r5,2
   242e4:	21121d04 	addi	r4,r4,18548
   242e8:	29521d04 	addi	r5,r5,18548

static void ALT_INLINE alt_load_section (alt_u32* from, 
                                         alt_u32* to, 
                                         alt_u32* end)
{
  if (to != from)
   242ec:	2140101e 	bne	r4,r5,24330 <alt_load+0xb4>
   242f0:	00000b06 	br	24320 <alt_load+0xa4>
   242f4:	00c000b4 	movhi	r3,2
   242f8:	18c00804 	addi	r3,r3,32
   242fc:	1907c83a 	sub	r3,r3,r4
   24300:	0005883a 	mov	r2,zero
  {
    while( to != end )
   24304:	10fff526 	beq	r2,r3,242dc <__alt_data_end+0xffff587c>
    {
      *to++ = *from++;
   24308:	114f883a 	add	r7,r2,r5
   2430c:	39c00017 	ldw	r7,0(r7)
   24310:	110d883a 	add	r6,r2,r4
   24314:	10800104 	addi	r2,r2,4
   24318:	31c00015 	stw	r7,0(r6)
   2431c:	003ff906 	br	24304 <__alt_data_end+0xffff58a4>
  
  /*
   * Now ensure that the caches are in synch.
   */
  
  alt_dcache_flush_all();
   24320:	00248080 	call	24808 <alt_dcache_flush_all>
  alt_icache_flush_all();
}
   24324:	dfc00017 	ldw	ra,0(sp)
   24328:	dec00104 	addi	sp,sp,4
  /*
   * Now ensure that the caches are in synch.
   */
  
  alt_dcache_flush_all();
  alt_icache_flush_all();
   2432c:	00248281 	jmpi	24828 <alt_icache_flush_all>
   24330:	00c000b4 	movhi	r3,2
   24334:	18d56104 	addi	r3,r3,21892
   24338:	1907c83a 	sub	r3,r3,r4

static void ALT_INLINE alt_load_section (alt_u32* from, 
                                         alt_u32* to, 
                                         alt_u32* end)
{
  if (to != from)
   2433c:	0005883a 	mov	r2,zero
  {
    while( to != end )
   24340:	18bff726 	beq	r3,r2,24320 <__alt_data_end+0xffff58c0>
    {
      *to++ = *from++;
   24344:	114f883a 	add	r7,r2,r5
   24348:	39c00017 	ldw	r7,0(r7)
   2434c:	110d883a 	add	r6,r2,r4
   24350:	10800104 	addi	r2,r2,4
   24354:	31c00015 	stw	r7,0(r6)
   24358:	003ff906 	br	24340 <__alt_data_end+0xffff58e0>

0002435c <alt_main>:
 * devices/filesystems/components in the system; and call the entry point for
 * the users application, i.e. main().
 */

void alt_main (void)
{
   2435c:	deffff04 	addi	sp,sp,-4
#endif

  /* ALT LOG - please see HAL/sys/alt_log_printf.h for details */
  ALT_LOG_PRINT_BOOT("[alt_main.c] Entering alt_main, calling alt_irq_init.\r\n");
  /* Initialize the interrupt controller. */
  alt_irq_init (NULL);
   24360:	0009883a 	mov	r4,zero
 * devices/filesystems/components in the system; and call the entry point for
 * the users application, i.e. main().
 */

void alt_main (void)
{
   24364:	dfc00015 	stw	ra,0(sp)
#endif

  /* ALT LOG - please see HAL/sys/alt_log_printf.h for details */
  ALT_LOG_PRINT_BOOT("[alt_main.c] Entering alt_main, calling alt_irq_init.\r\n");
  /* Initialize the interrupt controller. */
  alt_irq_init (NULL);
   24368:	00246dc0 	call	246dc <alt_irq_init>
  ALT_LOG_PRINT_BOOT("[alt_main.c] Done OS Init, calling alt_sem_create.\r\n");
  ALT_SEM_CREATE (&alt_fd_list_lock, 1);

  /* Initialize the device drivers/software components. */
  ALT_LOG_PRINT_BOOT("[alt_main.c] Calling alt_sys_init.\r\n");
  alt_sys_init();
   2436c:	00246fc0 	call	246fc <alt_sys_init>
   */

  ALT_LOG_PRINT_BOOT("[alt_main.c] Calling main.\r\n");

#ifdef ALT_NO_EXIT
  main (alt_argc, alt_argv, alt_envp);
   24370:	d1a07b17 	ldw	r6,-32276(gp)
   24374:	d1607c17 	ldw	r5,-32272(gp)
   24378:	d1207d17 	ldw	r4,-32268(gp)
  close(STDOUT_FILENO);
  exit (result);
#endif

  ALT_LOG_PRINT_BOOT("[alt_main.c] After main - we should not be here?.\r\n");
}
   2437c:	dfc00017 	ldw	ra,0(sp)
   24380:	dec00104 	addi	sp,sp,4
   */

  ALT_LOG_PRINT_BOOT("[alt_main.c] Calling main.\r\n");

#ifdef ALT_NO_EXIT
  main (alt_argc, alt_argv, alt_envp);
   24384:	00215d01 	jmpi	215d0 <main>

00024388 <alt_printf>:
/* 
 * ALT printf function 
 */
void 
alt_printf(const char* fmt, ... )
{
   24388:	defff204 	addi	sp,sp,-56
   2438c:	2005883a 	mov	r2,r4
   24390:	dfc00a15 	stw	ra,40(sp)
   24394:	df000915 	stw	fp,36(sp)
   24398:	ddc00815 	stw	r23,32(sp)
   2439c:	dd800715 	stw	r22,28(sp)
   243a0:	dd400615 	stw	r21,24(sp)
   243a4:	dd000515 	stw	r20,20(sp)
   243a8:	dcc00415 	stw	r19,16(sp)
   243ac:	dc800315 	stw	r18,12(sp)
   243b0:	dc400215 	stw	r17,8(sp)
   243b4:	dc000115 	stw	r16,4(sp)
   243b8:	d9400b15 	stw	r5,44(sp)
   243bc:	d9800c15 	stw	r6,48(sp)
   243c0:	d9c00d15 	stw	r7,52(sp)
    w = fmt;
    while ((c = *w++) != 0)
    {
        /* If not a format escape character, just print  */
        /* character.  Otherwise, process format string. */
        if (c != '%')
   243c4:	04000944 	movi	r16,37
 */
void 
alt_printf(const char* fmt, ... )
{
	va_list args;
	va_start(args, fmt);
   243c8:	dd400b04 	addi	r21,sp,44
                if (c == '%')
                {
                    /* Process "%" escape sequence. */
                    alt_putchar(c);
                } 
                else if (c == 'c')
   243cc:	048018c4 	movi	r18,99
                {
                    int v = va_arg(args, int);
                    alt_putchar(v);
                }
                else if (c == 'x')
   243d0:	04c01e04 	movi	r19,120
                        else
                            c = 'a' + digit - 10;
                        alt_putchar(c);
                    }
                }
                else if (c == 's')
   243d4:	05001cc4 	movi	r20,115
    const char *w;
    char c;

    /* Process format string. */
    w = fmt;
    while ((c = *w++) != 0)
   243d8:	11000007 	ldb	r4,0(r2)
   243dc:	20003a26 	beq	r4,zero,244c8 <alt_printf+0x140>
    {
        /* If not a format escape character, just print  */
        /* character.  Otherwise, process format string. */
        if (c != '%')
   243e0:	24000226 	beq	r4,r16,243ec <alt_printf+0x64>
    const char *w;
    char c;

    /* Process format string. */
    w = fmt;
    while ((c = *w++) != 0)
   243e4:	14400044 	addi	r17,r2,1
   243e8:	00001406 	br	2443c <alt_printf+0xb4>
        }
        else
        {
            /* Get format character.  If none     */
            /* available, processing is complete. */
            if ((c = *w++) != 0)
   243ec:	14400084 	addi	r17,r2,2
   243f0:	10800047 	ldb	r2,1(r2)
   243f4:	10003426 	beq	r2,zero,244c8 <alt_printf+0x140>
            {
                if (c == '%')
   243f8:	1400021e 	bne	r2,r16,24404 <alt_printf+0x7c>
                {
                    /* Process "%" escape sequence. */
                    alt_putchar(c);
   243fc:	8009883a 	mov	r4,r16
   24400:	00000e06 	br	2443c <alt_printf+0xb4>
                } 
                else if (c == 'c')
   24404:	1480051e 	bne	r2,r18,2441c <alt_printf+0x94>
                {
                    int v = va_arg(args, int);
                    alt_putchar(v);
   24408:	a9000017 	ldw	r4,0(r21)
                    /* Process "%" escape sequence. */
                    alt_putchar(c);
                } 
                else if (c == 'c')
                {
                    int v = va_arg(args, int);
   2440c:	ad800104 	addi	r22,r21,4
   24410:	b02b883a 	mov	r21,r22
                    alt_putchar(v);
   24414:	00244f80 	call	244f8 <alt_putchar>
   24418:	00002906 	br	244c0 <alt_printf+0x138>
                }
                else if (c == 'x')
   2441c:	14c0201e 	bne	r2,r19,244a0 <alt_printf+0x118>
                {
                    /* Process hexadecimal number format. */
                    unsigned long v = va_arg(args, unsigned long);
   24420:	adc00017 	ldw	r23,0(r21)
   24424:	ad400104 	addi	r21,r21,4
                    unsigned long digit;
                    int digit_shift;

                    /* If the number value is zero, just print and continue. */
                    if (v == 0)
   24428:	b8000326 	beq	r23,zero,24438 <alt_printf+0xb0>
   2442c:	05800704 	movi	r22,28
                        continue;
                    }

                    /* Find first non-zero digit. */
                    digit_shift = 28;
                    while (!(v & (0xF << digit_shift)))
   24430:	00c003c4 	movi	r3,15
   24434:	00000306 	br	24444 <alt_printf+0xbc>
                    int digit_shift;

                    /* If the number value is zero, just print and continue. */
                    if (v == 0)
                    {
                        alt_putchar('0');
   24438:	01000c04 	movi	r4,48
   2443c:	00244f80 	call	244f8 <alt_putchar>
                        continue;
   24440:	00001f06 	br	244c0 <alt_printf+0x138>
                    }

                    /* Find first non-zero digit. */
                    digit_shift = 28;
                    while (!(v & (0xF << digit_shift)))
   24444:	1d84983a 	sll	r2,r3,r22
   24448:	15c4703a 	and	r2,r2,r23
   2444c:	1000021e 	bne	r2,zero,24458 <alt_printf+0xd0>
                        digit_shift -= 4;
   24450:	b5bfff04 	addi	r22,r22,-4
   24454:	003ffb06 	br	24444 <__alt_data_end+0xffff59e4>

                    /* Print digits. */
                    for (; digit_shift >= 0; digit_shift -= 4)
                    {
                        digit = (v & (0xF << digit_shift)) >> digit_shift;
   24458:	070003c4 	movi	fp,15
                        if (digit <= 9)
   2445c:	00c00244 	movi	r3,9
                    digit_shift = 28;
                    while (!(v & (0xF << digit_shift)))
                        digit_shift -= 4;

                    /* Print digits. */
                    for (; digit_shift >= 0; digit_shift -= 4)
   24460:	b0001716 	blt	r22,zero,244c0 <alt_printf+0x138>
                    {
                        digit = (v & (0xF << digit_shift)) >> digit_shift;
   24464:	e588983a 	sll	r4,fp,r22
   24468:	25c8703a 	and	r4,r4,r23
   2446c:	2588d83a 	srl	r4,r4,r22
                        if (digit <= 9)
   24470:	19000236 	bltu	r3,r4,2447c <alt_printf+0xf4>
                            c = '0' + digit;
   24474:	21000c04 	addi	r4,r4,48
   24478:	00000106 	br	24480 <alt_printf+0xf8>
                        else
                            c = 'a' + digit - 10;
   2447c:	210015c4 	addi	r4,r4,87
                        alt_putchar(c);
   24480:	21003fcc 	andi	r4,r4,255
   24484:	2100201c 	xori	r4,r4,128
   24488:	213fe004 	addi	r4,r4,-128
   2448c:	d8c00015 	stw	r3,0(sp)
   24490:	00244f80 	call	244f8 <alt_putchar>
                    digit_shift = 28;
                    while (!(v & (0xF << digit_shift)))
                        digit_shift -= 4;

                    /* Print digits. */
                    for (; digit_shift >= 0; digit_shift -= 4)
   24494:	b5bfff04 	addi	r22,r22,-4
   24498:	d8c00017 	ldw	r3,0(sp)
   2449c:	003ff006 	br	24460 <__alt_data_end+0xffff5a00>
                        else
                            c = 'a' + digit - 10;
                        alt_putchar(c);
                    }
                }
                else if (c == 's')
   244a0:	1500071e 	bne	r2,r20,244c0 <alt_printf+0x138>
                {
                    /* Process string format. */
                    char *s = va_arg(args, char *);
   244a4:	ad800017 	ldw	r22,0(r21)
   244a8:	ad400104 	addi	r21,r21,4

                    while(*s)
   244ac:	b1000007 	ldb	r4,0(r22)
   244b0:	20000326 	beq	r4,zero,244c0 <alt_printf+0x138>
                      alt_putchar(*s++);
   244b4:	b5800044 	addi	r22,r22,1
   244b8:	00244f80 	call	244f8 <alt_putchar>
   244bc:	003ffb06 	br	244ac <__alt_data_end+0xffff5a4c>
                    /* Process "%" escape sequence. */
                    alt_putchar(c);
                } 
                else if (c == 'c')
                {
                    int v = va_arg(args, int);
   244c0:	8805883a 	mov	r2,r17
   244c4:	003fc406 	br	243d8 <__alt_data_end+0xffff5978>
        }
    }
#ifdef ALT_SEMIHOSTING
    alt_putbufflush();
#endif
}
   244c8:	dfc00a17 	ldw	ra,40(sp)
   244cc:	df000917 	ldw	fp,36(sp)
   244d0:	ddc00817 	ldw	r23,32(sp)
   244d4:	dd800717 	ldw	r22,28(sp)
   244d8:	dd400617 	ldw	r21,24(sp)
   244dc:	dd000517 	ldw	r20,20(sp)
   244e0:	dcc00417 	ldw	r19,16(sp)
   244e4:	dc800317 	ldw	r18,12(sp)
   244e8:	dc400217 	ldw	r17,8(sp)
   244ec:	dc000117 	ldw	r16,4(sp)
   244f0:	dec00e04 	addi	sp,sp,56
   244f4:	f800283a 	ret

000244f8 <alt_putchar>:
 * Uses the ALT_DRIVER_WRITE() macro to call directly to driver if available.
 * Otherwise, uses newlib provided putchar() routine.
 */
int 
alt_putchar(int c)
{
   244f8:	defffd04 	addi	sp,sp,-12
   244fc:	dc000115 	stw	r16,4(sp)
	char        c1 = (char)(c & 0xff);
    return write(STDOUT_FILENO,&c1,1);
#else
#ifdef ALT_USE_DIRECT_DRIVERS
    ALT_DRIVER_WRITE_EXTERNS(ALT_STDOUT_DEV);
    char        c1 = (char)(c & 0xff);
   24500:	d9000005 	stb	r4,0(sp)
 * Uses the ALT_DRIVER_WRITE() macro to call directly to driver if available.
 * Otherwise, uses newlib provided putchar() routine.
 */
int 
alt_putchar(int c)
{
   24504:	2021883a 	mov	r16,r4
#else
#ifdef ALT_USE_DIRECT_DRIVERS
    ALT_DRIVER_WRITE_EXTERNS(ALT_STDOUT_DEV);
    char        c1 = (char)(c & 0xff);

    if (ALT_DRIVER_WRITE(ALT_STDOUT_DEV, &c1, 1, 0) == -1) {
   24508:	010000b4 	movhi	r4,2
   2450c:	000f883a 	mov	r7,zero
   24510:	01800044 	movi	r6,1
   24514:	d80b883a 	mov	r5,sp
   24518:	2115ba04 	addi	r4,r4,22248
 * Uses the ALT_DRIVER_WRITE() macro to call directly to driver if available.
 * Otherwise, uses newlib provided putchar() routine.
 */
int 
alt_putchar(int c)
{
   2451c:	dfc00215 	stw	ra,8(sp)
#else
#ifdef ALT_USE_DIRECT_DRIVERS
    ALT_DRIVER_WRITE_EXTERNS(ALT_STDOUT_DEV);
    char        c1 = (char)(c & 0xff);

    if (ALT_DRIVER_WRITE(ALT_STDOUT_DEV, &c1, 1, 0) == -1) {
   24520:	002475c0 	call	2475c <altera_avalon_jtag_uart_write>
   24524:	00ffffc4 	movi	r3,-1
   24528:	10c00126 	beq	r2,r3,24530 <alt_putchar+0x38>
        return -1;
    }
    return c;
   2452c:	8005883a 	mov	r2,r16
#else
    return putchar(c);
#endif
#endif
}
   24530:	dfc00217 	ldw	ra,8(sp)
   24534:	dc000117 	ldw	r16,4(sp)
   24538:	dec00304 	addi	sp,sp,12
   2453c:	f800283a 	ret

00024540 <sbrk>:
static ALT_INLINE alt_irq_context ALT_ALWAYS_INLINE 
       alt_irq_disable_all (void)
{
  alt_irq_context context;

  NIOS2_READ_STATUS (context);
   24540:	000b303a 	rdctl	r5,status

  NIOS2_WRITE_STATUS (context & ~NIOS2_STATUS_PIE_MSK);
   24544:	00bfff84 	movi	r2,-2
   24548:	2884703a 	and	r2,r5,r2
   2454c:	1001703a 	wrctl	status,r2
  char *prev_heap_end; 

  context = alt_irq_disable_all();

  /* Always return data aligned on a word boundary */
  heap_end = (char *)(((unsigned int)heap_end + 3) & ~3);
   24550:	d0a00717 	ldw	r2,-32740(gp)
   24554:	00ffff04 	movi	r3,-4
   24558:	108000c4 	addi	r2,r2,3
   2455c:	10c4703a 	and	r2,r2,r3
  if (((heap_end + incr) - __alt_heap_start) > ALT_MAX_HEAP_BYTES) {
    alt_irq_enable_all(context);
    return (caddr_t)-1;
  }
#else
  if ((heap_end + incr) > __alt_heap_limit) {
   24560:	00c000f4 	movhi	r3,3
  char *prev_heap_end; 

  context = alt_irq_disable_all();

  /* Always return data aligned on a word boundary */
  heap_end = (char *)(((unsigned int)heap_end + 3) & ~3);
   24564:	d0a00715 	stw	r2,-32740(gp)
  if (((heap_end + incr) - __alt_heap_start) > ALT_MAX_HEAP_BYTES) {
    alt_irq_enable_all(context);
    return (caddr_t)-1;
  }
#else
  if ((heap_end + incr) > __alt_heap_limit) {
   24568:	1109883a 	add	r4,r2,r4
   2456c:	18fa9804 	addi	r3,r3,-5536
   24570:	1900032e 	bgeu	r3,r4,24580 <sbrk+0x40>
  status &= ~NIOS2_STATUS_PIE_MSK;
  status |= (context & NIOS2_STATUS_PIE_MSK);
  
  NIOS2_WRITE_STATUS (status);
#else
  NIOS2_WRITE_STATUS (context);
   24574:	2801703a 	wrctl	status,r5
    alt_irq_enable_all(context);
    return (caddr_t)-1;
   24578:	00bfffc4 	movi	r2,-1
   2457c:	f800283a 	ret
  }
#endif

  prev_heap_end = heap_end; 
  heap_end += incr; 
   24580:	d1200715 	stw	r4,-32740(gp)
   24584:	2801703a 	wrctl	status,r5
#endif

  alt_irq_enable_all(context);

  return (caddr_t) prev_heap_end; 
} 
   24588:	f800283a 	ret

0002458c <alt_alarm_stop>:
static ALT_INLINE alt_irq_context ALT_ALWAYS_INLINE 
       alt_irq_disable_all (void)
{
  alt_irq_context context;

  NIOS2_READ_STATUS (context);
   2458c:	0007303a 	rdctl	r3,status

  NIOS2_WRITE_STATUS (context & ~NIOS2_STATUS_PIE_MSK);
   24590:	00bfff84 	movi	r2,-2
   24594:	1884703a 	and	r2,r3,r2
   24598:	1001703a 	wrctl	status,r2
 * input argument is the element to remove.
 */
     
static ALT_INLINE void ALT_ALWAYS_INLINE alt_llist_remove(alt_llist* entry)
{
  entry->next->previous = entry->previous;
   2459c:	21400117 	ldw	r5,4(r4)
   245a0:	20800017 	ldw	r2,0(r4)
   245a4:	11400115 	stw	r5,4(r2)
  entry->previous->next = entry->next;
   245a8:	21400117 	ldw	r5,4(r4)
   245ac:	28800015 	stw	r2,0(r5)
  /* 
   * Set the entry to point to itself, so that any further calls to
   * alt_llist_remove() are harmless.
   */

  entry->previous = entry;
   245b0:	21000115 	stw	r4,4(r4)
  entry->next     = entry;
   245b4:	21000015 	stw	r4,0(r4)
  status &= ~NIOS2_STATUS_PIE_MSK;
  status |= (context & NIOS2_STATUS_PIE_MSK);
  
  NIOS2_WRITE_STATUS (status);
#else
  NIOS2_WRITE_STATUS (context);
   245b8:	1801703a 	wrctl	status,r3
   245bc:	f800283a 	ret

000245c0 <alt_tick>:

  alt_u32    next_callback;

  /* update the tick counter */

  _alt_nticks++;
   245c0:	d0a07e17 	ldw	r2,-32264(gp)
 * 
 * alt_tick() is expected to run at interrupt level.
 */

void alt_tick (void)
{
   245c4:	defffb04 	addi	sp,sp,-20
   245c8:	dc000015 	stw	r16,0(sp)
  alt_alarm* next;
  alt_alarm* alarm = (alt_alarm*) alt_alarm_list.next;
   245cc:	d4200817 	ldw	r16,-32736(gp)

  alt_u32    next_callback;

  /* update the tick counter */

  _alt_nticks++;
   245d0:	10800044 	addi	r2,r2,1
 * 
 * alt_tick() is expected to run at interrupt level.
 */

void alt_tick (void)
{
   245d4:	dc800215 	stw	r18,8(sp)
   245d8:	dc400115 	stw	r17,4(sp)
   245dc:	dfc00415 	stw	ra,16(sp)
   245e0:	dcc00315 	stw	r19,12(sp)

  alt_u32    next_callback;

  /* update the tick counter */

  _alt_nticks++;
   245e4:	d0a07e15 	stw	r2,-32264(gp)

  /* process the registered callbacks */

  while (alarm != (alt_alarm*) &alt_alarm_list)
   245e8:	d4600804 	addi	r17,gp,-32736
         * flag. This will prevent the subsequent tick event from causing
         * an alarm too early.
         */
        if(alarm->time < _alt_nticks)
        {
          alarm->rollover = 1;
   245ec:	04800044 	movi	r18,1

  _alt_nticks++;

  /* process the registered callbacks */

  while (alarm != (alt_alarm*) &alt_alarm_list)
   245f0:	84401a26 	beq	r16,r17,2465c <alt_tick+0x9c>
    /* 
     * Upon the tick-counter rolling over it is safe to clear the 
     * roll-over flag; once the flag is cleared this (or subsequnt)
     * tick events are enabled to generate an alarm event. 
     */
    if ((alarm->rollover) && (_alt_nticks == 0))
   245f4:	80800403 	ldbu	r2,16(r16)

  /* process the registered callbacks */

  while (alarm != (alt_alarm*) &alt_alarm_list)
  {
    next = (alt_alarm*) alarm->llist.next;
   245f8:	84c00017 	ldw	r19,0(r16)
    /* 
     * Upon the tick-counter rolling over it is safe to clear the 
     * roll-over flag; once the flag is cleared this (or subsequnt)
     * tick events are enabled to generate an alarm event. 
     */
    if ((alarm->rollover) && (_alt_nticks == 0))
   245fc:	10000326 	beq	r2,zero,2460c <alt_tick+0x4c>
   24600:	d0a07e17 	ldw	r2,-32264(gp)
   24604:	1000011e 	bne	r2,zero,2460c <alt_tick+0x4c>
    {
      alarm->rollover = 0;
   24608:	80000405 	stb	zero,16(r16)
    }
    
    /* if the alarm period has expired, make the callback */    
    if ((alarm->time <= _alt_nticks) && (alarm->rollover == 0))
   2460c:	d0e07e17 	ldw	r3,-32264(gp)
   24610:	80800217 	ldw	r2,8(r16)
   24614:	18800f36 	bltu	r3,r2,24654 <alt_tick+0x94>
   24618:	80800403 	ldbu	r2,16(r16)
   2461c:	10000d1e 	bne	r2,zero,24654 <alt_tick+0x94>
    {
      next_callback = alarm->callback (alarm->context);
   24620:	80800317 	ldw	r2,12(r16)
   24624:	81000517 	ldw	r4,20(r16)
   24628:	103ee83a 	callr	r2

      /* deactivate the alarm if the return value is zero */

      if (next_callback == 0)
   2462c:	1000031e 	bne	r2,zero,2463c <alt_tick+0x7c>
      {
        alt_alarm_stop (alarm);
   24630:	8009883a 	mov	r4,r16
   24634:	002458c0 	call	2458c <alt_alarm_stop>
   24638:	00000606 	br	24654 <alt_tick+0x94>
      }
      else
      {
        alarm->time += next_callback;
   2463c:	80c00217 	ldw	r3,8(r16)
   24640:	10c5883a 	add	r2,r2,r3
        /* 
         * If the desired alarm time causes a roll-over, set the rollover
         * flag. This will prevent the subsequent tick event from causing
         * an alarm too early.
         */
        if(alarm->time < _alt_nticks)
   24644:	d0e07e17 	ldw	r3,-32264(gp)
      {
        alt_alarm_stop (alarm);
      }
      else
      {
        alarm->time += next_callback;
   24648:	80800215 	stw	r2,8(r16)
        /* 
         * If the desired alarm time causes a roll-over, set the rollover
         * flag. This will prevent the subsequent tick event from causing
         * an alarm too early.
         */
        if(alarm->time < _alt_nticks)
   2464c:	10c0012e 	bgeu	r2,r3,24654 <alt_tick+0x94>
        {
          alarm->rollover = 1;
   24650:	84800405 	stb	r18,16(r16)
 * 
 * alt_tick() is expected to run at interrupt level.
 */

void alt_tick (void)
{
   24654:	9821883a 	mov	r16,r19
   24658:	003fe506 	br	245f0 <__alt_data_end+0xffff5b90>
  /* 
   * Update the operating system specific timer facilities.
   */

  ALT_OS_TIME_TICK();
}
   2465c:	dfc00417 	ldw	ra,16(sp)
   24660:	dcc00317 	ldw	r19,12(sp)
   24664:	dc800217 	ldw	r18,8(sp)
   24668:	dc400117 	ldw	r17,4(sp)
   2466c:	dc000017 	ldw	r16,0(sp)
   24670:	dec00504 	addi	sp,sp,20
   24674:	f800283a 	ret

00024678 <usleep>:
int ALT_USLEEP (useconds_t us)
#else
unsigned int ALT_USLEEP (unsigned int us)
#endif
{
  return alt_busy_sleep(us);
   24678:	00247901 	jmpi	24790 <alt_busy_sleep>

0002467c <write>:
#if !defined(ALT_STDOUT_PRESENT) && !defined(ALT_STDERR_PRESENT)
    /* Generate a link time warning, should this function ever be called. */
    ALT_STUB_WARNING(write);
#endif

    switch (file) {
   2467c:	00800044 	movi	r2,1
   24680:	20800226 	beq	r4,r2,2468c <write+0x10>
   24684:	00800084 	movi	r2,2
   24688:	2080041e 	bne	r4,r2,2469c <write+0x20>
    case 1: /* stdout file descriptor */
        return ALT_DRIVER_WRITE(ALT_STDOUT_DEV, ptr, len, 0);
#endif /* ALT_STDOUT_PRESENT */
#ifdef ALT_STDERR_PRESENT
    case 2: /* stderr file descriptor */
        return ALT_DRIVER_WRITE(ALT_STDERR_DEV, ptr, len, 0);
   2468c:	010000b4 	movhi	r4,2
   24690:	000f883a 	mov	r7,zero
   24694:	2115ba04 	addi	r4,r4,22248
   24698:	002475c1 	jmpi	2475c <altera_avalon_jtag_uart_write>
   2469c:	d0a01117 	ldw	r2,-32700(gp)
   246a0:	10000926 	beq	r2,zero,246c8 <write+0x4c>
 * Provide minimal version that just writes to the stdout/stderr devices
 * when provided.
 */

int ALT_WRITE (int file, const void *ptr, size_t len)
{
   246a4:	deffff04 	addi	sp,sp,-4
   246a8:	dfc00015 	stw	ra,0(sp)
   246ac:	103ee83a 	callr	r2
#ifdef ALT_STDERR_PRESENT
    case 2: /* stderr file descriptor */
        return ALT_DRIVER_WRITE(ALT_STDERR_DEV, ptr, len, 0);
#endif /* ALT_STDERR_PRESENT */
    default:
        ALT_ERRNO = EBADFD;
   246b0:	00c01444 	movi	r3,81
   246b4:	10c00015 	stw	r3,0(r2)
        return -1;
    }
}
   246b8:	00bfffc4 	movi	r2,-1
   246bc:	dfc00017 	ldw	ra,0(sp)
   246c0:	dec00104 	addi	sp,sp,4
   246c4:	f800283a 	ret
   246c8:	d0a07a04 	addi	r2,gp,-32280
#ifdef ALT_STDERR_PRESENT
    case 2: /* stderr file descriptor */
        return ALT_DRIVER_WRITE(ALT_STDERR_DEV, ptr, len, 0);
#endif /* ALT_STDERR_PRESENT */
    default:
        ALT_ERRNO = EBADFD;
   246cc:	00c01444 	movi	r3,81
   246d0:	10c00015 	stw	r3,0(r2)
        return -1;
    }
}
   246d4:	00bfffc4 	movi	r2,-1
   246d8:	f800283a 	ret

000246dc <alt_irq_init>:
 * The "base" parameter is ignored and only
 * present for backwards-compatibility.
 */

void alt_irq_init ( const void* base )
{
   246dc:	deffff04 	addi	sp,sp,-4
   246e0:	dfc00015 	stw	ra,0(sp)
    ALTERA_NIOS2_GEN2_IRQ_INIT ( NIOS2_GEN2, nios2_gen2);
   246e4:	00248340 	call	24834 <altera_nios2_gen2_irq_init>
 * alt_irq_cpu_enable_interrupts() enables the CPU to start taking interrupts.
 */
static ALT_INLINE void ALT_ALWAYS_INLINE 
       alt_irq_cpu_enable_interrupts (void)
{
    NIOS2_WRITE_STATUS(NIOS2_STATUS_PIE_MSK
   246e8:	00800044 	movi	r2,1
   246ec:	1001703a 	wrctl	status,r2
    alt_irq_cpu_enable_interrupts();
}
   246f0:	dfc00017 	ldw	ra,0(sp)
   246f4:	dec00104 	addi	sp,sp,4
   246f8:	f800283a 	ret

000246fc <alt_sys_init>:
 * Initialize the non-interrupt controller devices.
 * Called after alt_irq_init().
 */

void alt_sys_init( void )
{
   246fc:	f800283a 	ret

00024700 <altera_avalon_jtag_uart_read>:

int 
altera_avalon_jtag_uart_read(altera_avalon_jtag_uart_state* sp, 
  char* buffer, int space, int flags)
{
  unsigned int base = sp->base;
   24700:	21000017 	ldw	r4,0(r4)

  char * ptr = buffer;
  char * end = buffer + space;
   24704:	298d883a 	add	r6,r5,r6

  while (ptr < end)
   24708:	2805883a 	mov	r2,r5

    if (data & ALTERA_AVALON_JTAG_UART_DATA_RVALID_MSK)
      *ptr++ = (data & ALTERA_AVALON_JTAG_UART_DATA_DATA_MSK) >> ALTERA_AVALON_JTAG_UART_DATA_DATA_OFST;
    else if (ptr != buffer)
      break;
    else if(flags & O_NONBLOCK)
   2470c:	3a10000c 	andi	r8,r7,16384
  unsigned int base = sp->base;

  char * ptr = buffer;
  char * end = buffer + space;

  while (ptr < end)
   24710:	11800b2e 	bgeu	r2,r6,24740 <altera_avalon_jtag_uart_read+0x40>
  {
    unsigned int data = IORD_ALTERA_AVALON_JTAG_UART_DATA(base);
   24714:	20c00037 	ldwio	r3,0(r4)

    if (data & ALTERA_AVALON_JTAG_UART_DATA_RVALID_MSK)
   24718:	1a60000c 	andi	r9,r3,32768
   2471c:	48000326 	beq	r9,zero,2472c <altera_avalon_jtag_uart_read+0x2c>
      *ptr++ = (data & ALTERA_AVALON_JTAG_UART_DATA_DATA_MSK) >> ALTERA_AVALON_JTAG_UART_DATA_DATA_OFST;
   24720:	10c00005 	stb	r3,0(r2)
   24724:	10800044 	addi	r2,r2,1
   24728:	003ff906 	br	24710 <__alt_data_end+0xffff5cb0>
    else if (ptr != buffer)
   2472c:	11400226 	beq	r2,r5,24738 <altera_avalon_jtag_uart_read+0x38>
      break;   
    
  }

  if (ptr != buffer)
    return ptr - buffer;
   24730:	1145c83a 	sub	r2,r2,r5
   24734:	f800283a 	ret

    if (data & ALTERA_AVALON_JTAG_UART_DATA_RVALID_MSK)
      *ptr++ = (data & ALTERA_AVALON_JTAG_UART_DATA_DATA_MSK) >> ALTERA_AVALON_JTAG_UART_DATA_DATA_OFST;
    else if (ptr != buffer)
      break;
    else if(flags & O_NONBLOCK)
   24738:	403ff526 	beq	r8,zero,24710 <__alt_data_end+0xffff5cb0>
   2473c:	00000106 	br	24744 <altera_avalon_jtag_uart_read+0x44>
      break;   
    
  }

  if (ptr != buffer)
   24740:	117ffb1e 	bne	r2,r5,24730 <__alt_data_end+0xffff5cd0>
    return ptr - buffer;
  else if (flags & O_NONBLOCK)
   24744:	39d0000c 	andi	r7,r7,16384
   24748:	3800021e 	bne	r7,zero,24754 <altera_avalon_jtag_uart_read+0x54>
    return -EWOULDBLOCK;
  else
    return -EIO;
   2474c:	00bffec4 	movi	r2,-5
   24750:	f800283a 	ret
  }

  if (ptr != buffer)
    return ptr - buffer;
  else if (flags & O_NONBLOCK)
    return -EWOULDBLOCK;
   24754:	00bffd44 	movi	r2,-11
  else
    return -EIO;
}
   24758:	f800283a 	ret

0002475c <altera_avalon_jtag_uart_write>:
 */

int altera_avalon_jtag_uart_write(altera_avalon_jtag_uart_state* sp, 
  const char * ptr, int count, int flags)
{
  unsigned int base = sp->base;
   2475c:	21000017 	ldw	r4,0(r4)
 * one FIFOs worth of data.  But you said you didn't want to use interrupts :-)
 */

int altera_avalon_jtag_uart_write(altera_avalon_jtag_uart_state* sp, 
  const char * ptr, int count, int flags)
{
   24760:	3005883a 	mov	r2,r6
  unsigned int base = sp->base;

  const char * end = ptr + count;
   24764:	298d883a 	add	r6,r5,r6

  while (ptr < end)
    if ((IORD_ALTERA_AVALON_JTAG_UART_CONTROL(base) & ALTERA_AVALON_JTAG_UART_CONTROL_WSPACE_MSK) != 0)
   24768:	21c00104 	addi	r7,r4,4
{
  unsigned int base = sp->base;

  const char * end = ptr + count;

  while (ptr < end)
   2476c:	2980072e 	bgeu	r5,r6,2478c <altera_avalon_jtag_uart_write+0x30>
    if ((IORD_ALTERA_AVALON_JTAG_UART_CONTROL(base) & ALTERA_AVALON_JTAG_UART_CONTROL_WSPACE_MSK) != 0)
   24770:	38c00037 	ldwio	r3,0(r7)
   24774:	18ffffec 	andhi	r3,r3,65535
   24778:	183ffc26 	beq	r3,zero,2476c <__alt_data_end+0xffff5d0c>
      IOWR_ALTERA_AVALON_JTAG_UART_DATA(base, *ptr++);
   2477c:	28c00007 	ldb	r3,0(r5)
   24780:	20c00035 	stwio	r3,0(r4)
   24784:	29400044 	addi	r5,r5,1
   24788:	003ff806 	br	2476c <__alt_data_end+0xffff5d0c>

  return count;
}
   2478c:	f800283a 	ret

00024790 <alt_busy_sleep>:
  {
    cycles_per_loop = 3;
  }
  

  big_loops = us / (INT_MAX/
   24790:	01416474 	movhi	r5,1425
#include "alt_types.h"

#include "priv/alt_busy_sleep.h"

unsigned int alt_busy_sleep (unsigned int us)
{
   24794:	defffe04 	addi	sp,sp,-8
  {
    cycles_per_loop = 3;
  }
  

  big_loops = us / (INT_MAX/
   24798:	296c8584 	addi	r5,r5,-19946
#include "alt_types.h"

#include "priv/alt_busy_sleep.h"

unsigned int alt_busy_sleep (unsigned int us)
{
   2479c:	dc000015 	stw	r16,0(sp)
   247a0:	dfc00115 	stw	ra,4(sp)
   247a4:	2021883a 	mov	r16,r4
  {
    cycles_per_loop = 3;
  }
  

  big_loops = us / (INT_MAX/
   247a8:	0022dbc0 	call	22dbc <__udivsi3>
  (ALT_CPU_FREQ/(cycles_per_loop * 1000000)));

  if (big_loops)
   247ac:	10000e26 	beq	r2,zero,247e8 <alt_busy_sleep+0x58>
      /*
      * Do NOT Try to single step the asm statement below 
      * (single step will never return)
      * Step out of this function or set a breakpoint after the asm statements
      */
      __asm__ volatile (
   247b0:	01600034 	movhi	r5,32768
        "\n1:"
        "\n\t.pushsection .debug_alt_sim_info"
        "\n\t.int 4, 0, 0b, 1b"
        "\n\t.popsection"
        :: "r" (INT_MAX));
      us -= (INT_MAX/(ALT_CPU_FREQ/
   247b4:	013e9bf4 	movhi	r4,64111
   247b8:	0007883a 	mov	r3,zero
      /*
      * Do NOT Try to single step the asm statement below 
      * (single step will never return)
      * Step out of this function or set a breakpoint after the asm statements
      */
      __asm__ volatile (
   247bc:	297fffc4 	addi	r5,r5,-1
        "\n1:"
        "\n\t.pushsection .debug_alt_sim_info"
        "\n\t.int 4, 0, 0b, 1b"
        "\n\t.popsection"
        :: "r" (INT_MAX));
      us -= (INT_MAX/(ALT_CPU_FREQ/
   247c0:	21137a84 	addi	r4,r4,19946
      /*
      * Do NOT Try to single step the asm statement below 
      * (single step will never return)
      * Step out of this function or set a breakpoint after the asm statements
      */
      __asm__ volatile (
   247c4:	297fffc4 	addi	r5,r5,-1
   247c8:	283ffe1e 	bne	r5,zero,247c4 <__alt_data_end+0xffff5d64>
  big_loops = us / (INT_MAX/
  (ALT_CPU_FREQ/(cycles_per_loop * 1000000)));

  if (big_loops)
  {
    for(i=0;i<big_loops;i++)
   247cc:	18c00044 	addi	r3,r3,1
        "\n1:"
        "\n\t.pushsection .debug_alt_sim_info"
        "\n\t.int 4, 0, 0b, 1b"
        "\n\t.popsection"
        :: "r" (INT_MAX));
      us -= (INT_MAX/(ALT_CPU_FREQ/
   247d0:	8121883a 	add	r16,r16,r4
  big_loops = us / (INT_MAX/
  (ALT_CPU_FREQ/(cycles_per_loop * 1000000)));

  if (big_loops)
  {
    for(i=0;i<big_loops;i++)
   247d4:	18bffb16 	blt	r3,r2,247c4 <__alt_data_end+0xffff5d64>
    /*
    * Do NOT Try to single step the asm statement below 
    * (single step will never return)
    * Step out of this function or set a breakpoint after the asm statements
    */
    __asm__ volatile (
   247d8:	840005e4 	muli	r16,r16,23
   247dc:	843fffc4 	addi	r16,r16,-1
   247e0:	803ffe1e 	bne	r16,zero,247dc <__alt_data_end+0xffff5d7c>
   247e4:	00000306 	br	247f4 <alt_busy_sleep+0x64>
    /*
    * Do NOT Try to single step the asm statement below 
    * (single step will never return)
    * Step out of this function or set a breakpoint after the asm statements
    */
    __asm__ volatile (
   247e8:	840005e4 	muli	r16,r16,23
   247ec:	843fffc4 	addi	r16,r16,-1
   247f0:	043ffe16 	blt	zero,r16,247ec <__alt_data_end+0xffff5d8c>
      "\n\t.popsection"
      :: "r" (us*(ALT_CPU_FREQ/(cycles_per_loop * 1000000))));
  }
#endif /* #ifndef ALT_SIM_OPTIMIZE */
  return 0;
}
   247f4:	0005883a 	mov	r2,zero
   247f8:	dfc00117 	ldw	ra,4(sp)
   247fc:	dc000017 	ldw	r16,0(sp)
   24800:	dec00204 	addi	sp,sp,8
   24804:	f800283a 	ret

00024808 <alt_dcache_flush_all>:
void alt_dcache_flush_all (void)
{
#if NIOS2_DCACHE_SIZE > 0
  char* i;
  
  for (i = (char*) 0; i < (char*) NIOS2_DCACHE_SIZE; i+= NIOS2_DCACHE_LINE_SIZE)
   24808:	0005883a 	mov	r2,zero
   2480c:	00c40004 	movi	r3,4096
  { 
    __asm__ volatile ("flushd (%0)" :: "r" (i));
   24810:	1000003b 	flushd	0(r2)
void alt_dcache_flush_all (void)
{
#if NIOS2_DCACHE_SIZE > 0
  char* i;
  
  for (i = (char*) 0; i < (char*) NIOS2_DCACHE_SIZE; i+= NIOS2_DCACHE_LINE_SIZE)
   24814:	10800804 	addi	r2,r2,32
   24818:	10fffd1e 	bne	r2,r3,24810 <__alt_data_end+0xffff5db0>
  { 
    __asm__ volatile ("flushd (%0)" :: "r" (i));
  }
#endif /* NIOS2_DCACHE_SIZE > 0 */
}
   2481c:	f800283a 	ret

00024820 <alt_dev_null_write>:
 */

static int alt_dev_null_write (alt_fd* fd, const char* ptr, int len)
{
  return len;
}
   24820:	3005883a 	mov	r2,r6
   24824:	f800283a 	ret

00024828 <alt_icache_flush_all>:
 */

void alt_icache_flush_all (void)
{
#if NIOS2_ICACHE_SIZE > 0
  alt_icache_flush (0, NIOS2_ICACHE_SIZE);
   24828:	01440004 	movi	r5,4096
   2482c:	0009883a 	mov	r4,zero
   24830:	002483c1 	jmpi	2483c <alt_icache_flush>

00024834 <altera_nios2_gen2_irq_init>:
 * To initialize the internal interrupt controller, just clear the IENABLE
 * register so that all possible IRQs are disabled.
 */
void altera_nios2_gen2_irq_init(void) 
{
    NIOS2_WRITE_IENABLE(0);
   24834:	000170fa 	wrctl	ienable,zero
   24838:	f800283a 	ret

0002483c <alt_icache_flush>:
  if (len > NIOS2_ICACHE_SIZE)
  {
    len = NIOS2_ICACHE_SIZE;
  }

  end = ((char*) start) + len;
   2483c:	00840004 	movi	r2,4096
   24840:	1140012e 	bgeu	r2,r5,24848 <alt_icache_flush+0xc>
   24844:	100b883a 	mov	r5,r2
   24848:	214b883a 	add	r5,r4,r5

  for (i = start; i < end; i+= NIOS2_ICACHE_LINE_SIZE)
   2484c:	2005883a 	mov	r2,r4
   24850:	1140032e 	bgeu	r2,r5,24860 <alt_icache_flush+0x24>
  { 
    __asm__ volatile ("flushi %0" :: "r" (i)); 
   24854:	1000603a 	flushi	r2
    len = NIOS2_ICACHE_SIZE;
  }

  end = ((char*) start) + len;

  for (i = start; i < end; i+= NIOS2_ICACHE_LINE_SIZE)
   24858:	10800804 	addi	r2,r2,32
   2485c:	003ffc06 	br	24850 <__alt_data_end+0xffff5df0>
   * For an unaligned flush request, we've got one more line left.
   * Note that this is dependent on NIOS2_ICACHE_LINE_SIZE to be a 
   * multiple of 2 (which it always is).
   */

  if (((alt_u32) start) & (NIOS2_ICACHE_LINE_SIZE - 1))
   24860:	210007cc 	andi	r4,r4,31
   24864:	20000126 	beq	r4,zero,2486c <alt_icache_flush+0x30>
  {
    __asm__ volatile ("flushi %0" :: "r" (i));
   24868:	1000603a 	flushi	r2
  /* 
   * Having flushed the cache, flush any stale instructions in the 
   * pipeline 
   */

  __asm__ volatile ("flushp");
   2486c:	0000203a 	flushp
   24870:	f800283a 	ret
