
cam_small.elf:     file format elf32-littlenios2
cam_small.elf
architecture: nios2:r1, flags 0x00000112:
EXEC_P, HAS_SYMS, D_PAGED
start address 0x00020020

Program Header:
    LOAD off    0x00001000 vaddr 0x00020000 paddr 0x00020000 align 2**12
         filesz 0x00000020 memsz 0x00000020 flags r-x
    LOAD off    0x00001020 vaddr 0x00020020 paddr 0x00020020 align 2**12
         filesz 0x000050b0 memsz 0x000050b0 flags r-x
    LOAD off    0x000060d0 vaddr 0x000250d0 paddr 0x00025250 align 2**12
         filesz 0x00000180 memsz 0x00000180 flags rw-
    LOAD off    0x000063d0 vaddr 0x000253d0 paddr 0x000253d0 align 2**12
         filesz 0x00000000 memsz 0x0000010c flags rw-

Sections:
Idx Name          Size      VMA       LMA       File off  Algn
  0 .entry        00000020  00020000  00020000  00001000  2**5
                  CONTENTS, ALLOC, LOAD, READONLY, CODE
  1 .exceptions   00000000  00020020  00020020  00006250  2**0
                  CONTENTS
  2 .text         00004358  00020020  00020020  00001020  2**2
                  CONTENTS, ALLOC, LOAD, READONLY, CODE
  3 .rodata       00000d58  00024378  00024378  00005378  2**2
                  CONTENTS, ALLOC, LOAD, READONLY, DATA
  4 .rwdata       00000180  000250d0  00025250  000060d0  2**2
                  CONTENTS, ALLOC, LOAD, DATA, SMALL_DATA
  5 .bss          0000010c  000253d0  000253d0  000063d0  2**2
                  ALLOC, SMALL_DATA
  6 .onchip_memory2_0 00000000  000254dc  000254dc  00006250  2**0
                  CONTENTS
  7 .comment      00000023  00000000  00000000  00006250  2**0
                  CONTENTS, READONLY
  8 .debug_aranges 00000648  00000000  00000000  00006278  2**3
                  CONTENTS, READONLY, DEBUGGING
  9 .debug_info   0000d4c1  00000000  00000000  000068c0  2**0
                  CONTENTS, READONLY, DEBUGGING
 10 .debug_abbrev 00003e14  00000000  00000000  00013d81  2**0
                  CONTENTS, READONLY, DEBUGGING
 11 .debug_line   000047a8  00000000  00000000  00017b95  2**0
                  CONTENTS, READONLY, DEBUGGING
 12 .debug_frame  00001054  00000000  00000000  0001c340  2**2
                  CONTENTS, READONLY, DEBUGGING
 13 .debug_str    00001eba  00000000  00000000  0001d394  2**0
                  CONTENTS, READONLY, DEBUGGING
 14 .debug_loc    00004a9f  00000000  00000000  0001f24e  2**0
                  CONTENTS, READONLY, DEBUGGING
 15 .debug_alt_sim_info 00000060  00000000  00000000  00023cf0  2**2
                  CONTENTS, READONLY, DEBUGGING
 16 .debug_ranges 000004c8  00000000  00000000  00023d50  2**3
                  CONTENTS, READONLY, DEBUGGING
 17 .thread_model 00000003  00000000  00000000  00026382  2**0
                  CONTENTS, READONLY
 18 .cpu          0000000a  00000000  00000000  00026385  2**0
                  CONTENTS, READONLY
 19 .qsys         00000001  00000000  00000000  0002638f  2**0
                  CONTENTS, READONLY
 20 .simulation_enabled 00000001  00000000  00000000  00026390  2**0
                  CONTENTS, READONLY
 21 .sysid_hash   00000004  00000000  00000000  00026391  2**0
                  CONTENTS, READONLY
 22 .sysid_base   00000004  00000000  00000000  00026395  2**0
                  CONTENTS, READONLY
 23 .sysid_time   00000004  00000000  00000000  00026399  2**0
                  CONTENTS, READONLY
 24 .stderr_dev   00000009  00000000  00000000  0002639d  2**0
                  CONTENTS, READONLY
 25 .stdin_dev    00000009  00000000  00000000  000263a6  2**0
                  CONTENTS, READONLY
 26 .stdout_dev   00000009  00000000  00000000  000263af  2**0
                  CONTENTS, READONLY
 27 .sopc_system_name 00000004  00000000  00000000  000263b8  2**0
                  CONTENTS, READONLY
 28 .quartus_project_dir 0000002d  00000000  00000000  000263bc  2**0
                  CONTENTS, READONLY
 29 .jdi          00004eb7  00000000  00000000  000263e9  2**0
                  CONTENTS, READONLY
 30 .sopcinfo     0010d89c  00000000  00000000  0002b2a0  2**0
                  CONTENTS, READONLY
SYMBOL TABLE:
00020000 l    d  .entry	00000000 .entry
00020020 l    d  .exceptions	00000000 .exceptions
00020020 l    d  .text	00000000 .text
00024378 l    d  .rodata	00000000 .rodata
000250d0 l    d  .rwdata	00000000 .rwdata
000253d0 l    d  .bss	00000000 .bss
000254dc l    d  .onchip_memory2_0	00000000 .onchip_memory2_0
00000000 l    d  .comment	00000000 .comment
00000000 l    d  .debug_aranges	00000000 .debug_aranges
00000000 l    d  .debug_info	00000000 .debug_info
00000000 l    d  .debug_abbrev	00000000 .debug_abbrev
00000000 l    d  .debug_line	00000000 .debug_line
00000000 l    d  .debug_frame	00000000 .debug_frame
00000000 l    d  .debug_str	00000000 .debug_str
00000000 l    d  .debug_loc	00000000 .debug_loc
00000000 l    d  .debug_alt_sim_info	00000000 .debug_alt_sim_info
00000000 l    d  .debug_ranges	00000000 .debug_ranges
00000000 l    df *ABS*	00000000 ../cam_small_bsp//obj/HAL/src/crt0.o
00020068 l       .text	00000000 alt_after_alt_main
00000000 l    df *ABS*	00000000 I2C_core.c
00000000 l    df *ABS*	00000000 auto_focus.c
00000000 l    df *ABS*	00000000 input.c
00025214 l     O .rwdata	00000002 current_focus.3666
00000000 l    df *ABS*	00000000 main.c
00000000 l    df *ABS*	00000000 mipi_bridge_config.c
000246ae l     O .rodata	00000034 MipiBridgeReg
00000000 l    df *ABS*	00000000 mipi_camera_config.c
00024780 l     O .rodata	00000774 MipiCameraReg
00000000 l    df *ABS*	00000000 mipi_setup.c
00000000 l    df *ABS*	00000000 support.c
000253fc l     O .bss	00000040 observation_buf.3676
000253d8 l     O .bss	00000004 count.3730
00000000 l    df *ABS*	00000000 lib2-divmod.c
00000000 l    df *ABS*	00000000 malloc.c
00000000 l    df *ABS*	00000000 nano-mallocr.c
00000000 l    df *ABS*	00000000 nano-mallocr.c
00000000 l    df *ABS*	00000000 printf.c
00000000 l    df *ABS*	00000000 putchar.c
00000000 l    df *ABS*	00000000 puts.c
00000000 l    df *ABS*	00000000 sbrkr.c
00000000 l    df *ABS*	00000000 sprintf.c
00000000 l    df *ABS*	00000000 strlen.c
00000000 l    df *ABS*	00000000 vfprintf.c
00022e68 l     F .text	0000006c print_repeat
00000000 l    df *ABS*	00000000 vfprintf.c
00023414 l     F .text	0000006c print_repeat
00000000 l    df *ABS*	00000000 fvwrite_small_dev.c
00000000 l    df *ABS*	00000000 fvwrite_small_str.c
00000000 l    df *ABS*	00000000 impure.c
000250d0 l     O .rwdata	000000e0 impure_data
00000000 l    df *ABS*	00000000 int_errno.c
00000000 l    df *ABS*	00000000 memmove.c
00000000 l    df *ABS*	00000000 putc.c
00000000 l    df *ABS*	00000000 writer.c
00000000 l    df *ABS*	00000000 alt_fcntl.c
00000000 l    df *ABS*	00000000 alt_getchar.c
00000000 l    df *ABS*	00000000 alt_load.c
00000000 l    df *ABS*	00000000 alt_main.c
00000000 l    df *ABS*	00000000 alt_printf.c
00000000 l    df *ABS*	00000000 alt_putchar.c
00000000 l    df *ABS*	00000000 alt_sbrk.c
00025224 l     O .rwdata	00000004 heap_end
00000000 l    df *ABS*	00000000 alt_tick.c
00000000 l    df *ABS*	00000000 alt_usleep.c
00000000 l    df *ABS*	00000000 alt_write.c
00000000 l    df *ABS*	00000000 alt_sys_init.c
00000000 l    df *ABS*	00000000 altera_avalon_jtag_uart_read.c
00000000 l    df *ABS*	00000000 altera_avalon_jtag_uart_write.c
00000000 l    df *ABS*	00000000 alt_busy_sleep.c
00000000 l    df *ABS*	00000000 alt_dcache_flush_all.c
00000000 l    df *ABS*	00000000 alt_dev.c
00024324 l     F .text	00000008 alt_dev_null_write
00000000 l    df *ABS*	00000000 alt_errno.c
00000000 l    df *ABS*	00000000 alt_icache_flush_all.c
00000000 l    df *ABS*	00000000 altera_nios2_gen2_irq.c
00000000 l    df *ABS*	00000000 alt_icache_flush.c
00022c70 g     F .text	0000001c putchar
00023e60 g     F .text	0000002c alt_main
00022c8c g     F .text	00000080 _puts_r
00020958 g     F .text	00000074 Focus_Released
000201d8 g     F .text	00000048 ACK_check
00025250 g       *ABS*	00000000 __flash_rwdata_start
00020184 g     F .text	00000054 ACK_single_check
000209cc g     F .text	00000144 Focus_Window
000215e4 g     F .text	00000038 OV8865_write_AF
000254dc g       *ABS*	00000000 __alt_heap_start
00022c1c g     F .text	0000004c printf
00021880 g     F .text	000000a0 OV8865SetRedGain
00022124 g     F .text	00000004 wait_eop
00022128 g     F .text	00000014 to_hex_code
00023b20 g     F .text	00000060 memmove
00020220 g     F .text	00000108 OC_I2C_Write
00022470 g     F .text	000000b0 auto_gain
00020874 g     F .text	000000e4 Focus_Init
00021920 g     F .text	000000a0 OV8865SetGreenGain
00025234 g     O .rwdata	00000004 jtag_uart
00024338 g     F .text	00000008 altera_nios2_gen2_irq_init
000253d4 g     O .bss	00000004 frames_elapsed
00023a78 g     F .text	000000a8 __sfvwrite_small_str
00020000 g     F .entry	0000001c __reset
00020020 g       *ABS*	00000000 __flash_exceptions_start
0002520a g     O .rwdata	00000001 focus_scal
000253e4 g     O .bss	00000004 errno
000253ec g     O .bss	00000004 alt_argv
0002d208 g       *ABS*	00000000 _gp
0002417c g     F .text	00000004 usleep
000251b0 g     O .rwdata	00000030 alt_fd_list
0002543c g     O .bss	00000050 histogram_processed
00022c68 g     F .text	00000008 _putchar_r
000200a0 g     F .text	00000090 oc_i2c_init_ex
00022d0c g     F .text	00000014 puts
00024204 g     F .text	0000005c altera_avalon_jtag_uart_read
0002297c g     F .text	00000014 malloc
00022be0 g     F .text	0000003c _printf_r
00020000 g       *ABS*	00000000 __alt_mem_onchip_memory2_0
000228c0 g     F .text	00000064 .hidden __udivsi3
00024340 g     F .text	00000038 alt_icache_flush
00021660 g     F .text	00000088 OV8865_FOCUS_Move_to
00021038 g     F .text	00000110 print_image
00022d20 g     F .text	00000050 _sbrk_r
0002520c g     O .rwdata	00000002 focus_height
00025238 g     O .rwdata	00000004 alt_max_fd
000215ac g     F .text	00000038 OV8865_write_cmos_sensor_8
000253d0 g     O .bss	00000004 observations
0002521c g     O .rwdata	00000004 _global_impure_ptr
000254dc g       *ABS*	00000000 __bss_end
00023d3c g     F .text	00000044 alt_getchar
000240c4 g     F .text	000000b8 alt_tick
00022118 g     F .text	0000000c wait_sop
00025210 g     O .rwdata	00000002 video_h
00021e2c g     F .text	000000ac mipi_clear_error
000205b0 g     F .text	00000134 OC_I2CL_Write
00024090 g     F .text	00000034 alt_alarm_stop
00020328 g     F .text	00000034 ACK_judge_for_read
00021788 g     F .text	000000a0 OV8865SetGain
000251e0 g     O .rwdata	00000028 alt_dev_null
0002006c g     F .text	00000018 Write32_Data
0002430c g     F .text	00000018 alt_dcache_flush_all
00025209 g     O .rwdata	00000001 focus_scal_f
00025250 g       *ABS*	00000000 __ram_rwdata_end
00020edc g     F .text	00000098 fir_load_inv_sobel
0002523c g     O .rwdata	00000008 alt_dev_list
00024180 g     F .text	00000060 write
00023bd4 g     F .text	00000058 _putc_r
000250d0 g       *ABS*	00000000 __ram_rodata_end
00022924 g     F .text	00000058 .hidden __umodsi3
00021f6c g     F .text	00000130 mipi_show_error_info_more
000254dc g       *ABS*	00000000 end
00021a60 g     F .text	00000068 OV8865ReadAvg
0003d4c0 g       *ABS*	00000000 __alt_stack_pointer
00024260 g     F .text	00000034 altera_avalon_jtag_uart_write
00023480 g     F .text	00000524 ___vfprintf_internal_r
00022d70 g     F .text	00000064 _sprintf_r
000229a4 g     F .text	000000e4 _free_r
00023e8c g     F .text	00000170 alt_printf
00020020 g     F .text	0000004c _start
000253f8 g     O .bss	00000004 _alt_tick_rate
00021828 g     F .text	00000058 enableMWB
00020f74 g     F .text	00000014 uart_rready
00020e44 g     F .text	00000098 fir_load_sobel
000253f4 g     O .bss	00000004 _alt_nticks
00024200 g     F .text	00000004 alt_sys_init
00021574 g     F .text	00000038 OV8865_read_cmos_sensor_8
00021448 g     F .text	00000038 MipiBridgeRegWrite
000250d0 g       *ABS*	00000000 __ram_rwdata_start
00024378 g       *ABS*	00000000 __ram_rodata_start
000227b8 g     F .text	00000010 wait_frame
00024294 g     F .text	00000078 alt_busy_sleep
0002213c g     F .text	00000128 initialize_observations
000254dc g       *ABS*	00000000 __alt_stack_base
00020130 g     F .text	00000014 oc_i2c_init
00022758 g     F .text	00000014 print_as_rgb
00024044 g     F .text	0000004c sbrk
00022ed4 g     F .text	00000524 ___svfprintf_internal_r
00021ce4 g     F .text	00000148 MipiCameraInit
00021434 g     F .text	00000014 nSWAP16
000239c0 g     F .text	000000b8 __sfvwrite_small_dev
000253d0 g       *ABS*	00000000 __bss_start
00021148 g     F .text	000002ec main
000253e8 g     O .bss	00000004 alt_envp
00025230 g     O .rwdata	00000004 uart_0
0002276c g     F .text	0000004c frame_isr
0003d4c0 g       *ABS*	00000000 __alt_heap_limit
00022a88 g     F .text	00000158 _malloc_r
00025218 g     O .rwdata	00000004 number_observations
0002524c g     O .rwdata	00000004 alt_errno
00023b80 g     F .text	00000054 putc
000227c8 g     F .text	00000084 .hidden __divsi3
00020144 g     F .text	00000040 oc_i2c_uninit
00020b10 g     F .text	0000020c process_input
00021b58 g     F .text	0000018c MIPI_BIN_LEVEL
00024378 g       *ABS*	00000000 __flash_rodata_start
00022520 g     F .text	00000238 auto_wb
00020db4 g     F .text	00000090 fir_load_avg
000241e0 g     F .text	00000020 alt_irq_init
000214c4 g     F .text	000000b0 MipiBridgeInit
00022dd4 g     F .text	00000078 sprintf
000219c0 g     F .text	000000a0 OV8865SetBlueGain
00023c2c g     F .text	00000058 _write_r
00025220 g     O .rwdata	00000004 _impure_ptr
000253f0 g     O .bss	00000004 alt_argc
00021480 g     F .text	00000044 MipiBridgeRegRead
00025212 g     O .rwdata	00000002 video_w
00022348 g     F .text	00000128 print_observations
00025244 g     O .rwdata	00000008 alt_fs_list
00020084 g     F .text	0000001c Read32_Data
000233f8 g     F .text	0000001c __vfprintf_internal_unused
0002035c g     F .text	00000160 OC_I2C_Read
00020020 g       *ABS*	00000000 __ram_exceptions_start
00020d1c g     F .text	00000098 fir_load_unit
00025250 g       *ABS*	00000000 _edata
000254dc g       *ABS*	00000000 _end
00021ac8 g     F .text	00000090 OV8865ReadExposure
00020020 g       *ABS*	00000000 __ram_exceptions_end
000204bc g     F .text	000000f4 OC_I2C_Read_Continue
00025208 g     O .rwdata	00000001 focus_th
0002284c g     F .text	00000074 .hidden __modsi3
0003d4c0 g       *ABS*	00000000 __alt_data_end
00021ed8 g     F .text	00000094 mipi_show_error_info
00022264 g     F .text	000000e4 merge_observations
00020f88 g     F .text	000000b0 get_building_hist
000206e4 g     F .text	00000190 OC_I2CL_Read
0002001c g       .entry	00000000 _exit
00022e4c g     F .text	0000001c strlen
00023ffc g     F .text	00000048 alt_putchar
0002548c g     O .bss	00000050 histogram
000253dc g     O .bss	00000004 __malloc_sbrk_start
0002432c g     F .text	0000000c alt_icache_flush_all
000216e8 g     F .text	000000a0 OV8865SetExposure
0002520e g     O .rwdata	00000002 focus_width
000253e0 g     O .bss	00000004 __malloc_free_list
000239a4 g     F .text	0000001c __vfprintf_internal
0002209c g     F .text	0000007c MIPI_Init
00023c84 g     F .text	000000b8 fcntl
00025228 g     O .rwdata	00000008 alt_alarm_list
0002161c g     F .text	00000044 OV8865_read_AF
00023d80 g     F .text	000000e0 alt_load
00022990 g     F .text	00000014 free



Disassembly of section .entry:

00020000 <__reset>:
#if NIOS2_ICACHE_SIZE > 0 && defined(ALT_ALLOW_CODE_AT_RESET) && (!defined(ALT_SIM_OPTIMIZE) || defined(NIOS2_ECC_PRESENT))
    /* Assume the instruction cache size is always a power of two. */
#if NIOS2_ICACHE_SIZE > 0x8000
    movhi r2, %hi(NIOS2_ICACHE_SIZE)
#else
    movui r2, NIOS2_ICACHE_SIZE
   20000:	00840014 	movui	r2,4096
#endif

0:
    initi r2
   20004:	1001483a 	initi	r2
    addi r2, r2, -NIOS2_ICACHE_LINE_SIZE
   20008:	10bff804 	addi	r2,r2,-32
    bgt r2, zero, 0b
   2000c:	00bffd16 	blt	zero,r2,20004 <__alt_data_end+0xfffe2b44>
 * Jump to the _start entry point in the .text section if reset code
 * is allowed or if optimizing for RTL simulation.
 */
#if defined(ALT_ALLOW_CODE_AT_RESET) || defined(ALT_SIM_OPTIMIZE)
    /* Jump to the _start entry point in the .text section. */
    movhi r1, %hi(_start)
   20010:	004000b4 	movhi	at,2
    ori r1, r1, %lo(_start)
   20014:	08400814 	ori	at,at,32
    jmp r1
   20018:	0800683a 	jmp	at

0002001c <_exit>:
   2001c:	00000000 	call	0 <__alt_mem_onchip_memory2_0-0x20000>

Disassembly of section .text:

00020020 <_start>:

    /* Assume the data cache size is always a power of two. */
#if NIOS2_DCACHE_SIZE > 0x8000
    movhi r2, %hi(NIOS2_DCACHE_SIZE)
#else
    movui r2, NIOS2_DCACHE_SIZE
   20020:	00820014 	movui	r2,2048
#endif

0:
    initd 0(r2)
   20024:	10000033 	initd	0(r2)
#ifdef NIOS2_ECC_PRESENT
    addi r2, r2, -4
#else
    addi r2, r2, -NIOS2_DCACHE_LINE_SIZE
   20028:	10bff804 	addi	r2,r2,-32
#endif
    bgt r2, zero, 0b
   2002c:	00bffd16 	blt	zero,r2,20024 <__alt_data_end+0xfffe2b64>

    /*
     * Now that the caches are initialized, set up the stack pointer and global pointer.
     * The values provided by the linker are assumed to be correctly aligned.
     */
    movhi sp, %hi(__alt_stack_pointer)
   20030:	06c000f4 	movhi	sp,3
    ori sp, sp, %lo(__alt_stack_pointer)
   20034:	def53014 	ori	sp,sp,54464
    movhi gp, %hi(_gp)
   20038:	068000b4 	movhi	gp,2
    ori gp, gp, %lo(_gp)
   2003c:	d6b48214 	ori	gp,gp,53768
 */
#ifndef ALT_SIM_OPTIMIZE
    /* Log that the BSS is about to be cleared. */
    ALT_LOG_PUTS(alt_log_msg_bss)

    movhi r2, %hi(__bss_start)
   20040:	008000b4 	movhi	r2,2
    ori r2, r2, %lo(__bss_start)
   20044:	1094f414 	ori	r2,r2,21456

    movhi r3, %hi(__bss_end)
   20048:	00c000b4 	movhi	r3,2
    ori r3, r3, %lo(__bss_end)
   2004c:	18d53714 	ori	r3,r3,21724

    beq r2, r3, 1f
   20050:	10c00326 	beq	r2,r3,20060 <_start+0x40>

0:
    stw zero, (r2)
   20054:	10000015 	stw	zero,0(r2)
    addi r2, r2, 4
   20058:	10800104 	addi	r2,r2,4
    bltu r2, r3, 0b
   2005c:	10fffd36 	bltu	r2,r3,20054 <__alt_data_end+0xfffe2b94>
     * section aren't defined until alt_load() has been called).
     */
    mov   et, zero
#endif

    call alt_load
   20060:	0023d800 	call	23d80 <alt_load>

    /* Log that alt_main is about to be called. */
    ALT_LOG_PUTS(alt_log_msg_alt_main)

    /* Call the C entry point. It should never return. */
    call alt_main
   20064:	0023e600 	call	23e60 <alt_main>

00020068 <alt_after_alt_main>:

    /* Wait in infinite loop in case alt_main does return. */
alt_after_alt_main:
    br alt_after_alt_main
   20068:	003fff06 	br	20068 <__alt_data_end+0xfffe2ba8>

0002006c <Write32_Data>:
#define TRUE 1
#define FALSE 0

bool Write32_Data(alt_32 base_address, alt_32 offset_address, alt_32 Data){
	bool bPass;
    IOWR(base_address, offset_address,Data);
   2006c:	294b883a 	add	r5,r5,r5
   20070:	294b883a 	add	r5,r5,r5
   20074:	2909883a 	add	r4,r5,r4
   20078:	21800035 	stwio	r6,0(r4)
    bPass=TRUE;
    return bPass;
}
   2007c:	00800044 	movi	r2,1
   20080:	f800283a 	ret

00020084 <Read32_Data>:



bool  Read32_Data(alt_32 base_address, alt_32 offset_address, alt_32 *pData32){
	bool bPass;
	*pData32 =IORD(base_address ,offset_address  );
   20084:	294b883a 	add	r5,r5,r5
   20088:	294b883a 	add	r5,r5,r5
   2008c:	2909883a 	add	r4,r5,r4
   20090:	20800037 	ldwio	r2,0(r4)
   20094:	30800015 	stw	r2,0(r6)
	bPass=TRUE;
    return bPass;
}
   20098:	00800044 	movi	r2,1
   2009c:	f800283a 	ret

000200a0 <oc_i2c_init_ex>:

	return bSuccess;
}

bool  oc_i2c_init_ex(alt_32 i2c_base, alt_32 ref_clk, alt_32 i2c_clk)
{
   200a0:	defffe04 	addi	sp,sp,-8
   200a4:	dc000015 	stw	r16,0(sp)
   200a8:	2021883a 	mov	r16,r4
   200ac:	2809883a 	mov	r4,r5
	const alt_u8 ControlValue = 0x80;

    // I2c sysclock =50M hz
	// i2c scl max 400k
	//scl =sysclock/(prescale*5)
	prescale = (ref_clk/(5*i2c_clk))-1;
   200b0:	31400164 	muli	r5,r6,5

	return bSuccess;
}

bool  oc_i2c_init_ex(alt_32 i2c_base, alt_32 ref_clk, alt_32 i2c_clk)
{
   200b4:	dfc00115 	stw	ra,4(sp)
	const alt_u8 ControlValue = 0x80;

    // I2c sysclock =50M hz
	// i2c scl max 400k
	//scl =sysclock/(prescale*5)
	prescale = (ref_clk/(5*i2c_clk))-1;
   200b8:	00227c80 	call	227c8 <__divsi3>
   200bc:	10bfffc4 	addi	r2,r2,-1
   200c0:	11c03fcc 	andi	r7,r2,255
	prescale_low = prescale & 0xFF;
	prescale_high = (prescale >> 8) & 0xFF;

   IOWR(i2c_base, 0, prescale_low);//write low byte of  prescale (reg 0)
   200c4:	81c00035 	stwio	r7,0(r16)
   200c8:	1005d23a 	srai	r2,r2,8
   IOWR(i2c_base, 1, prescale_high);//write high byte of prescale (reg 1)
   200cc:	81800104 	addi	r6,r16,4
   200d0:	10803fcc 	andi	r2,r2,255
   200d4:	30800035 	stwio	r2,0(r6)

   //enable the I2C core, but disable the IRQ
   IOWR( i2c_base, 2, ControlValue);
   200d8:	81400204 	addi	r5,r16,8
   200dc:	01002004 	movi	r4,128
   200e0:	29000035 	stwio	r4,0(r5)


    // check prescale low byte
    if (bSuccess){
    	read_data =IORD(i2c_base, 0);
   200e4:	80c00037 	ldwio	r3,0(r16)
        if( (read_data & 0x00ff) != prescale_low ){
   200e8:	18c03fcc 	andi	r3,r3,255
   200ec:	38c0031e 	bne	r7,r3,200fc <oc_i2c_init_ex+0x5c>
        }
    }

    // check prescale high byte
    if (bSuccess){
    	read_data =IORD(i2c_base, 1);
   200f0:	30c00037 	ldwio	r3,0(r6)
        if( (read_data & 0x00ff) != prescale_high ){
   200f4:	18c03fcc 	andi	r3,r3,255
   200f8:	10c00526 	beq	r2,r3,20110 <oc_i2c_init_ex+0x70>

   if (bSuccess){
//       printf("\nI2C core is enabled! \r\n");
   }
   else
       printf("\nI2C core is not enabled successfully! \r\n");
   200fc:	010000b4 	movhi	r4,2
   20100:	2110de04 	addi	r4,r4,17272
   20104:	0022d0c0 	call	22d0c <puts>
   20108:	0005883a 	mov	r2,zero
   2010c:	00000406 	br	20120 <oc_i2c_init_ex+0x80>
        }
    }

    // check control
    if (bSuccess){
    	read_data =IORD(i2c_base, 2);
   20110:	28800037 	ldwio	r2,0(r5)
        if( (read_data & 0x00ff) != ControlValue ){
   20114:	10803fcc 	andi	r2,r2,255
   20118:	113ff81e 	bne	r2,r4,200fc <__alt_data_end+0xfffe2c3c>
   2011c:	00800044 	movi	r2,1
   else
       printf("\nI2C core is not enabled successfully! \r\n");

   return bSuccess;

}
   20120:	dfc00117 	ldw	ra,4(sp)
   20124:	dc000017 	ldw	r16,0(sp)
   20128:	dec00204 	addi	sp,sp,8
   2012c:	f800283a 	ret

00020130 <oc_i2c_init>:
bool oc_i2c_init(alt_32 i2c_base){
	bool bSuccess;
	const alt_32 ref_clk = 50*1000*1000; // 50MHz
	const alt_32 i2c_clk = 400*1000; // 400KHz

	bSuccess = oc_i2c_init_ex(i2c_base, ref_clk, i2c_clk);
   20130:	018001b4 	movhi	r6,6
   20134:	0140bef4 	movhi	r5,763
   20138:	3186a004 	addi	r6,r6,6784
   2013c:	297c2004 	addi	r5,r5,-3968
   20140:	00200a01 	jmpi	200a0 <oc_i2c_init_ex>

00020144 <oc_i2c_uninit>:
{
	bool bSuccess=TRUE;
	alt_32 read_data;
	const alt_u8 ControlValue = 0x00;

    IOWR( i2c_base, 2, ControlValue);
   20144:	21000204 	addi	r4,r4,8
   20148:	20000035 	stwio	zero,0(r4)
   	read_data =IORD(i2c_base, 2);
   2014c:	20800037 	ldwio	r2,0(r4)
	if( (read_data & 0x00ff) != ControlValue ){
   20150:	10803fcc 	andi	r2,r2,255
   20154:	1000021e 	bne	r2,zero,20160 <oc_i2c_uninit+0x1c>

}

bool oc_i2c_uninit(alt_32 i2c_base)
{
	bool bSuccess=TRUE;
   20158:	00800044 	movi	r2,1
   else
       printf("\I2C core is failed to disable! \r\n");

   return bSuccess;

}
   2015c:	f800283a 	ret

   if (bSuccess){
//       printf("\I2C core  is disabled! \r\n");
   }
   else
       printf("\I2C core is failed to disable! \r\n");
   20160:	010000b4 	movhi	r4,2
   return bSuccess;

}

bool oc_i2c_uninit(alt_32 i2c_base)
{
   20164:	deffff04 	addi	sp,sp,-4

   if (bSuccess){
//       printf("\I2C core  is disabled! \r\n");
   }
   else
       printf("\I2C core is failed to disable! \r\n");
   20168:	2110e904 	addi	r4,r4,17316
   return bSuccess;

}

bool oc_i2c_uninit(alt_32 i2c_base)
{
   2016c:	dfc00015 	stw	ra,0(sp)

   if (bSuccess){
//       printf("\I2C core  is disabled! \r\n");
   }
   else
       printf("\I2C core is failed to disable! \r\n");
   20170:	0022d0c0 	call	22d0c <puts>
	const alt_u8 ControlValue = 0x00;

    IOWR( i2c_base, 2, ControlValue);
   	read_data =IORD(i2c_base, 2);
	if( (read_data & 0x00ff) != ControlValue ){
            bSuccess = FALSE;
   20174:	0005883a 	mov	r2,zero
   else
       printf("\I2C core is failed to disable! \r\n");

   return bSuccess;

}
   20178:	dfc00017 	ldw	ra,0(sp)
   2017c:	dec00104 	addi	sp,sp,4
   20180:	f800283a 	ret

00020184 <ACK_single_check>:




bool  ACK_single_check(alt_32 i2c_base)
{
   20184:	defffe04 	addi	sp,sp,-8
   20188:	dc000015 	stw	r16,0(sp)
   2018c:	2021883a 	mov	r16,r4
	bool bSuccess=TRUE;
	alt_32 read_data;

    usleep(ACK_SLEEP_TIME);
   20190:	01003e84 	movi	r4,250




bool  ACK_single_check(alt_32 i2c_base)
{
   20194:	dfc00115 	stw	ra,4(sp)
	bool bSuccess=TRUE;
	alt_32 read_data;

    usleep(ACK_SLEEP_TIME);
    read_data =IORD(i2c_base, 4);
   20198:	84000404 	addi	r16,r16,16
bool  ACK_single_check(alt_32 i2c_base)
{
	bool bSuccess=TRUE;
	alt_32 read_data;

    usleep(ACK_SLEEP_TIME);
   2019c:	002417c0 	call	2417c <usleep>
    read_data =IORD(i2c_base, 4);
   201a0:	80800037 	ldwio	r2,0(r16)
    if(read_data & 0x02)
   201a4:	1080008c 	andi	r2,r2,2
   201a8:	10000226 	beq	r2,zero,201b4 <ACK_single_check+0x30>
   201ac:	0005883a 	mov	r2,zero
   201b0:	00000506 	br	201c8 <ACK_single_check+0x44>
            bSuccess = FALSE;
     if (bSuccess){
            usleep(ACK_SLEEP_TIME);
   201b4:	01003e84 	movi	r4,250
   201b8:	002417c0 	call	2417c <usleep>
            read_data =IORD(i2c_base, 4);
   201bc:	80800037 	ldwio	r2,0(r16)
   201c0:	1080200c 	andi	r2,r2,128
   201c4:	1005003a 	cmpeq	r2,r2,zero
                if(read_data & 0x80)
                    bSuccess = FALSE;
     }
    return bSuccess;
}
   201c8:	dfc00117 	ldw	ra,4(sp)
   201cc:	dc000017 	ldw	r16,0(sp)
   201d0:	dec00204 	addi	sp,sp,8
   201d4:	f800283a 	ret

000201d8 <ACK_check>:


bool  ACK_check(alt_32 i2c_base){
   201d8:	defffd04 	addi	sp,sp,-12
   201dc:	dc400115 	stw	r17,4(sp)
   201e0:	dc000015 	stw	r16,0(sp)
   201e4:	dfc00215 	stw	ra,8(sp)
   201e8:	2023883a 	mov	r17,r4
   201ec:	040002c4 	movi	r16,11
   201f0:	843fffc4 	addi	r16,r16,-1
    bool bSuccess = FALSE;
    int i=0;

    while(!bSuccess && i++ < 10){
   201f4:	80000426 	beq	r16,zero,20208 <ACK_check+0x30>
        bSuccess = ACK_single_check(i2c_base);
   201f8:	8809883a 	mov	r4,r17
   201fc:	00201840 	call	20184 <ACK_single_check>

bool  ACK_check(alt_32 i2c_base){
    bool bSuccess = FALSE;
    int i=0;

    while(!bSuccess && i++ < 10){
   20200:	103ffb26 	beq	r2,zero,201f0 <__alt_data_end+0xfffe2d30>
   20204:	00000106 	br	2020c <ACK_check+0x34>
   20208:	0005883a 	mov	r2,zero
        bSuccess = ACK_single_check(i2c_base);
    }

    return bSuccess;
}
   2020c:	dfc00217 	ldw	ra,8(sp)
   20210:	dc400117 	ldw	r17,4(sp)
   20214:	dc000017 	ldw	r16,0(sp)
   20218:	dec00304 	addi	sp,sp,12
   2021c:	f800283a 	ret

00020220 <OC_I2C_Write>:

bool  OC_I2C_Write(alt_32 i2c_base,alt_u8 device_address,alt_u8 sub_address, alt_u8 *pData, int nWriteLength)
{
   20220:	defff804 	addi	sp,sp,-32
   20224:	dd800615 	stw	r22,24(sp)
   20228:	dd400515 	stw	r21,20(sp)
   2022c:	dcc00315 	stw	r19,12(sp)
   20230:	dc400115 	stw	r17,4(sp)
   20234:	dfc00715 	stw	ra,28(sp)
   20238:	dd000415 	stw	r20,16(sp)
   2023c:	dc800215 	stw	r18,8(sp)
   20240:	dc000015 	stw	r16,0(sp)
   20244:	2027883a 	mov	r19,r4
   20248:	3023883a 	mov	r17,r6
   2024c:	382d883a 	mov	r22,r7
#define TRUE 1
#define FALSE 0

bool Write32_Data(alt_32 base_address, alt_32 offset_address, alt_32 Data){
	bool bPass;
    IOWR(base_address, offset_address,Data);
   20250:	25400304 	addi	r21,r4,12
   20254:	29403fcc 	andi	r5,r5,255
   20258:	a9400035 	stwio	r5,0(r21)
   2025c:	24800404 	addi	r18,r4,16
   20260:	00802404 	movi	r2,144
   20264:	90800035 	stwio	r2,0(r18)
       printf("OC_I2C_Write error[1]\r\n");
       return FALSE;
   }

   //wait TIP bit go to 0 to end Tx
    if(!ACK_check( i2c_base)){
   20268:	00201d80 	call	201d8 <ACK_check>
   2026c:	1000041e 	bne	r2,zero,20280 <OC_I2C_Write+0x60>
        printf("OC_I2C_Write error[2]\r\n");
   20270:	010000b4 	movhi	r4,2
   20274:	1021883a 	mov	r16,r2
   20278:	2110f204 	addi	r4,r4,17352
   2027c:	00001806 	br	202e0 <OC_I2C_Write+0xc0>
#define TRUE 1
#define FALSE 0

bool Write32_Data(alt_32 base_address, alt_32 offset_address, alt_32 Data){
	bool bPass;
    IOWR(base_address, offset_address,Data);
   20280:	8c403fcc 	andi	r17,r17,255
   20284:	ac400035 	stwio	r17,0(r21)
   20288:	05000404 	movi	r20,16
   2028c:	95000035 	stwio	r20,0(r18)
        printf("OC_I2C_Write error[4]\r\n");
        return FALSE;
    }

   //wait TIP bit go to 0 to end Tx
    if(!ACK_check( i2c_base)){
   20290:	9809883a 	mov	r4,r19
   20294:	00201d80 	call	201d8 <ACK_check>
   20298:	1021883a 	mov	r16,r2
   2029c:	1000031e 	bne	r2,zero,202ac <OC_I2C_Write+0x8c>
        printf("OC_I2C_Write error[5]\r\n");
   202a0:	010000b4 	movhi	r4,2
   202a4:	2110f804 	addi	r4,r4,17376
   202a8:	00000d06 	br	202e0 <OC_I2C_Write+0xc0>
        return FALSE;
    }
 //  printf("\n receive ACK-reg address! \n");

#if 1
        for( i=nWriteLength-1;i>=0;i--){
   202ac:	dc400817 	ldw	r17,32(sp)
   202b0:	8c7fffc4 	addi	r17,r17,-1
   202b4:	88000c16 	blt	r17,zero,202e8 <OC_I2C_Write+0xc8>
        //set the txr reg data with the data
          if (!Write32_Data( i2c_base, 3,*(pData+i))){
   202b8:	b445883a 	add	r2,r22,r17
#define TRUE 1
#define FALSE 0

bool Write32_Data(alt_32 base_address, alt_32 offset_address, alt_32 Data){
	bool bPass;
    IOWR(base_address, offset_address,Data);
   202bc:	10800003 	ldbu	r2,0(r2)
   202c0:	a8800035 	stwio	r2,0(r21)
   202c4:	95000035 	stwio	r20,0(r18)
             printf("OC_I2C_Write error[7]\r\n");
              return FALSE;
         }

         //wait TIP bit go to 0 to end Tx
          if(!ACK_check( i2c_base)){
   202c8:	9809883a 	mov	r4,r19
   202cc:	00201d80 	call	201d8 <ACK_check>
   202d0:	1021883a 	mov	r16,r2
   202d4:	103ff61e 	bne	r2,zero,202b0 <__alt_data_end+0xfffe2df0>
              printf("OC_I2C_Write error[8]\r\n");
   202d8:	010000b4 	movhi	r4,2
   202dc:	2110fe04 	addi	r4,r4,17400
   202e0:	0022d0c0 	call	22d0c <puts>
              return FALSE;
   202e4:	00000506 	br	202fc <OC_I2C_Write+0xdc>
#define TRUE 1
#define FALSE 0

bool Write32_Data(alt_32 base_address, alt_32 offset_address, alt_32 Data){
	bool bPass;
    IOWR(base_address, offset_address,Data);
   202e8:	00801004 	movi	r2,64
   202ec:	90800035 	stwio	r2,0(r18)
         printf("OC_I2C_Write error[9]\r\n");
         return FALSE;
     }
         //Sleep(10);
     //OS_msleep(1);
     usleep(SLEEP_TIME);
   202f0:	01003e84 	movi	r4,250
   202f4:	002417c0 	call	2417c <usleep>

  // printf("\n receive ACK-data! \n");

     return TRUE;
   202f8:	04000044 	movi	r16,1

}
   202fc:	8005883a 	mov	r2,r16
   20300:	dfc00717 	ldw	ra,28(sp)
   20304:	dd800617 	ldw	r22,24(sp)
   20308:	dd400517 	ldw	r21,20(sp)
   2030c:	dd000417 	ldw	r20,16(sp)
   20310:	dcc00317 	ldw	r19,12(sp)
   20314:	dc800217 	ldw	r18,8(sp)
   20318:	dc400117 	ldw	r17,4(sp)
   2031c:	dc000017 	ldw	r16,0(sp)
   20320:	dec00804 	addi	sp,sp,32
   20324:	f800283a 	ret

00020328 <ACK_judge_for_read>:


bool ACK_judge_for_read(alt_32 i2c_base)
{
   20328:	defffe04 	addi	sp,sp,-8
   2032c:	dc000015 	stw	r16,0(sp)
   20330:	2021883a 	mov	r16,r4
	bool bSuccess;
    alt_32 this_data;

   // OS_msleep( SLEEP_TIME );
     usleep(ACK_SLEEP_TIME);
   20334:	01003e84 	movi	r4,250

}


bool ACK_judge_for_read(alt_32 i2c_base)
{
   20338:	dfc00115 	stw	ra,4(sp)
	bool bSuccess;
    alt_32 this_data;

   // OS_msleep( SLEEP_TIME );
     usleep(ACK_SLEEP_TIME);
   2033c:	002417c0 	call	2417c <usleep>



bool  Read32_Data(alt_32 base_address, alt_32 offset_address, alt_32 *pData32){
	bool bPass;
	*pData32 =IORD(base_address ,offset_address  );
   20340:	80800437 	ldwio	r2,16(r16)
        if(this_data & 0x02)
            bSuccess = FALSE;
    }
   //wait the rx ACK signal 0-valid

    return bSuccess;
   20344:	1080008c 	andi	r2,r2,2

}
   20348:	1005003a 	cmpeq	r2,r2,zero
   2034c:	dfc00117 	ldw	ra,4(sp)
   20350:	dc000017 	ldw	r16,0(sp)
   20354:	dec00204 	addi	sp,sp,8
   20358:	f800283a 	ret

0002035c <OC_I2C_Read>:

bool  OC_I2C_Read(alt_32 i2c_base,alt_u8 device_address,alt_u8 sub_address, alt_u8 *pData8, int nReadLength){
   2035c:	defff604 	addi	sp,sp,-40
   20360:	dd800615 	stw	r22,24(sp)
   20364:	dd800a17 	ldw	r22,40(sp)
   20368:	df000815 	stw	fp,32(sp)
   2036c:	dd400515 	stw	r21,20(sp)
   20370:	dd000415 	stw	r20,16(sp)
   20374:	dcc00315 	stw	r19,12(sp)
   20378:	dc400115 	stw	r17,4(sp)
   2037c:	dfc00915 	stw	ra,36(sp)
   20380:	ddc00715 	stw	r23,28(sp)
   20384:	dc800215 	stw	r18,8(sp)
   20388:	dc000015 	stw	r16,0(sp)
   2038c:	2029883a 	mov	r20,r4
   20390:	2823883a 	mov	r17,r5
   20394:	3039883a 	mov	fp,r6
   20398:	3827883a 	mov	r19,r7
    //BYTE data = 0x0;
    alt_32 Data32;
    int i;

   //set the tx reg audio chip dev address with write bit
   IOWR( i2c_base, 3,device_address);
   2039c:	25400304 	addi	r21,r4,12
   203a0:	28803fcc 	andi	r2,r5,255
   203a4:	a8800035 	stwio	r2,0(r21)
   //set STA and WR bits(bit7 and bit4)
   IOWR( i2c_base, 4,0x90);
   203a8:	24800404 	addi	r18,r4,16
   203ac:	05c02404 	movi	r23,144
   203b0:	95c00035 	stwio	r23,0(r18)
   //wait TIP bit go to 0 to end Tx
   if (!ACK_check( i2c_base)){
   203b4:	00201d80 	call	201d8 <ACK_check>
   203b8:	1000041e 	bne	r2,zero,203cc <OC_I2C_Read+0x70>
       printf("OC_I2C_Read error[2]\r\n");
   203bc:	010000b4 	movhi	r4,2
   203c0:	1021883a 	mov	r16,r2
   203c4:	21110404 	addi	r4,r4,17424
   203c8:	00000a06 	br	203f4 <OC_I2C_Read+0x98>
       return FALSE;
   }
   IOWR(i2c_base, 3,sub_address);
   203cc:	e7003fcc 	andi	fp,fp,255
   203d0:	af000035 	stwio	fp,0(r21)

   //set WR bits(bit4)
   IOWR( i2c_base, 4,0x10);
   203d4:	00800404 	movi	r2,16
   203d8:	90800035 	stwio	r2,0(r18)
   //wait TIP bit go to 0 to end Tx
    if (!ACK_check( i2c_base)){
   203dc:	a009883a 	mov	r4,r20
   203e0:	00201d80 	call	201d8 <ACK_check>
   203e4:	1021883a 	mov	r16,r2
   203e8:	1000041e 	bne	r2,zero,203fc <OC_I2C_Read+0xa0>
        printf("OC_I2C_Read error[5]\r\n");
   203ec:	010000b4 	movhi	r4,2
   203f0:	21110a04 	addi	r4,r4,17448
   203f4:	0022d0c0 	call	22d0c <puts>
        return FALSE;
   203f8:	00002306 	br	20488 <OC_I2C_Read+0x12c>
  // printf("\n read receive ACK-reg address! \n");

   //read
    //set the tx reg audio chip dev address with read bit 1

    IOWR(i2c_base, 3,device_address|0x01);
   203fc:	8c400054 	ori	r17,r17,1
   20400:	8c403fcc 	andi	r17,r17,255
   20404:	ac400035 	stwio	r17,0(r21)

   //set STA and WR bits(bit7 and bit4)
    IOWR( i2c_base, 4,0x90);
   20408:	95c00035 	stwio	r23,0(r18)

   //wait TIP bit go to 0 to end Tx
    if (!ACK_check( i2c_base)){
   2040c:	a009883a 	mov	r4,r20
   20410:	00201d80 	call	201d8 <ACK_check>
   20414:	1021883a 	mov	r16,r2
   20418:	10000226 	beq	r2,zero,20424 <OC_I2C_Read+0xc8>
   2041c:	0023883a 	mov	r17,zero
   20420:	00000606 	br	2043c <OC_I2C_Read+0xe0>
        printf("OC_I2C_Read error[8]\r\n");
   20424:	010000b4 	movhi	r4,2
   20428:	21111004 	addi	r4,r4,17472
   2042c:	003ff106 	br	203f4 <__alt_data_end+0xfffe2f34>
            printf("OC_I2C_Read error[10]\r\n");
            return FALSE;
        }
   // printf("\n read receive ACK-device address(read)! \n");

        Data32=IORD( i2c_base, 3);
   20430:	a8800037 	ldwio	r2,0(r21)
        *(pData8+i) =  Data32 & 0xff;
   20434:	98800005 	stb	r2,0(r19)
   20438:	9cc00044 	addi	r19,r19,1
    if (!ACK_check( i2c_base)){
        printf("OC_I2C_Read error[8]\r\n");
        return FALSE;
    }

    for(i=0;i<nReadLength;i++){
   2043c:	8d800d0e 	bge	r17,r22,20474 <OC_I2C_Read+0x118>
  // printf("\n read receive ACK-device address(read)! \n");
   //set the RD and ACK bit(bit5 and bit3)
    	IOWR( i2c_base, 4,((i+1) == nReadLength)?0x28:0x20);
   20440:	8c400044 	addi	r17,r17,1
   20444:	b4400226 	beq	r22,r17,20450 <OC_I2C_Read+0xf4>
   20448:	00800804 	movi	r2,32
   2044c:	00000106 	br	20454 <OC_I2C_Read+0xf8>
   20450:	00800a04 	movi	r2,40
   20454:	90800035 	stwio	r2,0(r18)

        if (!ACK_judge_for_read( i2c_base)){
   20458:	a009883a 	mov	r4,r20
   2045c:	00203280 	call	20328 <ACK_judge_for_read>
   20460:	1021883a 	mov	r16,r2
   20464:	103ff21e 	bne	r2,zero,20430 <__alt_data_end+0xfffe2f70>
            printf("OC_I2C_Read error[10]\r\n");
   20468:	010000b4 	movhi	r4,2
   2046c:	21111604 	addi	r4,r4,17496
   20470:	003fe006 	br	203f4 <__alt_data_end+0xfffe2f34>

        Data32=IORD( i2c_base, 3);
        *(pData8+i) =  Data32 & 0xff;
    }

    IOWR( i2c_base, 4,0x40);
   20474:	00801004 	movi	r2,64
   20478:	90800035 	stwio	r2,0(r18)

  // Sleep(10);
   //OS_msleep(1);
    usleep(SLEEP_TIME);
   2047c:	01003e84 	movi	r4,250
   20480:	002417c0 	call	2417c <usleep>
 //  printf(" Read  [%02X] = %02Xh\r\n", sub_address, data);


   return TRUE;
   20484:	04000044 	movi	r16,1

}
   20488:	8005883a 	mov	r2,r16
   2048c:	dfc00917 	ldw	ra,36(sp)
   20490:	df000817 	ldw	fp,32(sp)
   20494:	ddc00717 	ldw	r23,28(sp)
   20498:	dd800617 	ldw	r22,24(sp)
   2049c:	dd400517 	ldw	r21,20(sp)
   204a0:	dd000417 	ldw	r20,16(sp)
   204a4:	dcc00317 	ldw	r19,12(sp)
   204a8:	dc800217 	ldw	r18,8(sp)
   204ac:	dc400117 	ldw	r17,4(sp)
   204b0:	dc000017 	ldw	r16,0(sp)
   204b4:	dec00a04 	addi	sp,sp,40
   204b8:	f800283a 	ret

000204bc <OC_I2C_Read_Continue>:


bool  OC_I2C_Read_Continue(alt_32 i2c_base,alt_u8 device_address, alt_u8 *pData8, int nReadLength){
   204bc:	defff804 	addi	sp,sp,-32
	int i;
	alt_u32 Data32;

    IOWR(i2c_base, 3,device_address|0x01);
   204c0:	29400054 	ori	r5,r5,1
   return TRUE;

}


bool  OC_I2C_Read_Continue(alt_32 i2c_base,alt_u8 device_address, alt_u8 *pData8, int nReadLength){
   204c4:	dd800615 	stw	r22,24(sp)
   204c8:	dd400515 	stw	r21,20(sp)
   204cc:	dd000415 	stw	r20,16(sp)
   204d0:	dc400115 	stw	r17,4(sp)
   204d4:	dfc00715 	stw	ra,28(sp)
   204d8:	dcc00315 	stw	r19,12(sp)
   204dc:	dc800215 	stw	r18,8(sp)
   204e0:	dc000015 	stw	r16,0(sp)
   204e4:	2029883a 	mov	r20,r4
   204e8:	3023883a 	mov	r17,r6
   204ec:	382d883a 	mov	r22,r7
	int i;
	alt_u32 Data32;

    IOWR(i2c_base, 3,device_address|0x01);
   204f0:	25400304 	addi	r21,r4,12
   204f4:	29403fcc 	andi	r5,r5,255
   204f8:	a9400035 	stwio	r5,0(r21)

   //set STA and WR bits(bit7 and bit4)
    IOWR( i2c_base, 4,0x90);
   204fc:	24c00404 	addi	r19,r4,16
   20500:	00802404 	movi	r2,144
   20504:	98800035 	stwio	r2,0(r19)
//usleep(5*1000);
   //wait TIP bit go to 0 to end Tx
    if (!ACK_check( i2c_base)){
   20508:	00201d80 	call	201d8 <ACK_check>
   2050c:	10000226 	beq	r2,zero,20518 <OC_I2C_Read_Continue+0x5c>
   20510:	0025883a 	mov	r18,zero
   20514:	00000706 	br	20534 <OC_I2C_Read_Continue+0x78>
        printf("OC_I2C_Read error[8]\r\n");
   20518:	010000b4 	movhi	r4,2
   2051c:	1021883a 	mov	r16,r2
   20520:	21111004 	addi	r4,r4,17472
   20524:	00000e06 	br	20560 <OC_I2C_Read_Continue+0xa4>
            printf("OC_I2C_Read error[10]\r\n");
            return FALSE;
        }
   // printf("\n read receive ACK-device address(read)! \n");

        Data32=IORD( i2c_base, 3);
   20528:	a8800037 	ldwio	r2,0(r21)
        *(pData8+i) =  Data32 & 0xff;
   2052c:	88800005 	stb	r2,0(r17)
   20530:	8c400044 	addi	r17,r17,1
    if (!ACK_check( i2c_base)){
        printf("OC_I2C_Read error[8]\r\n");
        return FALSE;
    }

    for(i=0;i<nReadLength;i++){
   20534:	95800e0e 	bge	r18,r22,20570 <OC_I2C_Read_Continue+0xb4>
  // printf("\n read receive ACK-device address(read)! \n");
   //set the RD and ACK bit(bit5 and bit3)
    	IOWR( i2c_base, 4,((i+1) == nReadLength)?0x28:0x20);
   20538:	94800044 	addi	r18,r18,1
   2053c:	b4800a26 	beq	r22,r18,20568 <OC_I2C_Read_Continue+0xac>
   20540:	00800804 	movi	r2,32
   20544:	98800035 	stwio	r2,0(r19)

        if (!ACK_judge_for_read( i2c_base)){
   20548:	a009883a 	mov	r4,r20
   2054c:	00203280 	call	20328 <ACK_judge_for_read>
   20550:	1021883a 	mov	r16,r2
   20554:	103ff41e 	bne	r2,zero,20528 <__alt_data_end+0xfffe3068>
            printf("OC_I2C_Read error[10]\r\n");
   20558:	010000b4 	movhi	r4,2
   2055c:	21111604 	addi	r4,r4,17496
   20560:	0022d0c0 	call	22d0c <puts>
            return FALSE;
   20564:	00000706 	br	20584 <OC_I2C_Read_Continue+0xc8>
    }

    for(i=0;i<nReadLength;i++){
  // printf("\n read receive ACK-device address(read)! \n");
   //set the RD and ACK bit(bit5 and bit3)
    	IOWR( i2c_base, 4,((i+1) == nReadLength)?0x28:0x20);
   20568:	00800a04 	movi	r2,40
   2056c:	003ff506 	br	20544 <__alt_data_end+0xfffe3084>

        Data32=IORD( i2c_base, 3);
        *(pData8+i) =  Data32 & 0xff;
    }

    IOWR( i2c_base, 4,0x40);
   20570:	00801004 	movi	r2,64
   20574:	98800035 	stwio	r2,0(r19)

  // Sleep(10);
   //OS_msleep(1);
    usleep(SLEEP_TIME);
   20578:	01003e84 	movi	r4,250
   2057c:	002417c0 	call	2417c <usleep>
 //  printf(" Read  [%02X] = %02Xh\r\n", sub_address, data);


   return TRUE;
   20580:	04000044 	movi	r16,1

}
   20584:	8005883a 	mov	r2,r16
   20588:	dfc00717 	ldw	ra,28(sp)
   2058c:	dd800617 	ldw	r22,24(sp)
   20590:	dd400517 	ldw	r21,20(sp)
   20594:	dd000417 	ldw	r20,16(sp)
   20598:	dcc00317 	ldw	r19,12(sp)
   2059c:	dc800217 	ldw	r18,8(sp)
   205a0:	dc400117 	ldw	r17,4(sp)
   205a4:	dc000017 	ldw	r16,0(sp)
   205a8:	dec00804 	addi	sp,sp,32
   205ac:	f800283a 	ret

000205b0 <OC_I2CL_Write>:


//  size > 2Kb
bool  OC_I2CL_Write(alt_32 i2c_base,alt_u8 device_address,alt_u16 sub_address,alt_u8 *pData, int nWriteLength)
    {
   205b0:	defff804 	addi	sp,sp,-32
   205b4:	dd800615 	stw	r22,24(sp)
   205b8:	dd400515 	stw	r21,20(sp)
   205bc:	dcc00315 	stw	r19,12(sp)
   205c0:	dc400115 	stw	r17,4(sp)
   205c4:	dfc00715 	stw	ra,28(sp)
   205c8:	dd000415 	stw	r20,16(sp)
   205cc:	dc800215 	stw	r18,8(sp)
   205d0:	dc000015 	stw	r16,0(sp)
   205d4:	2027883a 	mov	r19,r4
   205d8:	3023883a 	mov	r17,r6
   205dc:	382d883a 	mov	r22,r7
#define TRUE 1
#define FALSE 0

bool Write32_Data(alt_32 base_address, alt_32 offset_address, alt_32 Data){
	bool bPass;
    IOWR(base_address, offset_address,Data);
   205e0:	25400304 	addi	r21,r4,12
   205e4:	29403fcc 	andi	r5,r5,255
   205e8:	a9400035 	stwio	r5,0(r21)
   205ec:	24800404 	addi	r18,r4,16
   205f0:	00802404 	movi	r2,144
   205f4:	90800035 	stwio	r2,0(r18)
   //set STA and WR bits(bit7 and bit4)
   if (!Write32_Data( i2c_base, 4,0x90))//0x90
       return FALSE;

   //wait TIP bit go to 0 to end Tx
    if(!ACK_check( i2c_base)){
   205f8:	00201d80 	call	201d8 <ACK_check>
   205fc:	1000041e 	bne	r2,zero,20610 <OC_I2CL_Write+0x60>
        printf("OC_I2CL_Write error[0]\r\n");
   20600:	010000b4 	movhi	r4,2
   20604:	1021883a 	mov	r16,r2
   20608:	21111c04 	addi	r4,r4,17520
   2060c:	00001506 	br	20664 <OC_I2CL_Write+0xb4>
#define TRUE 1
#define FALSE 0

bool Write32_Data(alt_32 base_address, alt_32 offset_address, alt_32 Data){
	bool bPass;
    IOWR(base_address, offset_address,Data);
   20610:	88bfffcc 	andi	r2,r17,65535
   20614:	1004d23a 	srli	r2,r2,8
   20618:	a8800035 	stwio	r2,0(r21)
   2061c:	05000404 	movi	r20,16
   20620:	95000035 	stwio	r20,0(r18)
   //set WR bits(bit4)
    if (!Write32_Data( i2c_base, 4,0x10))
        return FALSE;

   //wait TIP bit go to 0 to end Tx
    if(!ACK_check( i2c_base)){
   20624:	9809883a 	mov	r4,r19
   20628:	00201d80 	call	201d8 <ACK_check>
   2062c:	1021883a 	mov	r16,r2
   20630:	1000031e 	bne	r2,zero,20640 <OC_I2CL_Write+0x90>
        printf("OC_I2CL_Write error[1]\r\n");
   20634:	010000b4 	movhi	r4,2
   20638:	21112204 	addi	r4,r4,17544
   2063c:	00000906 	br	20664 <OC_I2CL_Write+0xb4>
#define TRUE 1
#define FALSE 0

bool Write32_Data(alt_32 base_address, alt_32 offset_address, alt_32 Data){
	bool bPass;
    IOWR(base_address, offset_address,Data);
   20640:	8c403fcc 	andi	r17,r17,255
   20644:	ac400035 	stwio	r17,0(r21)
   20648:	95000035 	stwio	r20,0(r18)

   //set WR bits(bit4)
    Write32_Data( i2c_base, 4,0x10);

   //wait TIP bit go to 0 to end Tx
    if(!ACK_check( i2c_base)){
   2064c:	9809883a 	mov	r4,r19
   20650:	00201d80 	call	201d8 <ACK_check>
   20654:	1021883a 	mov	r16,r2
   20658:	1000041e 	bne	r2,zero,2066c <OC_I2CL_Write+0xbc>
        printf("OC_I2CL_Write error[2]\r\n");
   2065c:	010000b4 	movhi	r4,2
   20660:	21112804 	addi	r4,r4,17568
   20664:	0022d0c0 	call	22d0c <puts>
        return FALSE;
   20668:	00001306 	br	206b8 <OC_I2CL_Write+0x108>
    }
  //  printf("\n receive ACK-reg low address! \n");

#if 1
    for( i=nWriteLength-1;i>=0;i--){
   2066c:	dc400817 	ldw	r17,32(sp)
   20670:	8c7fffc4 	addi	r17,r17,-1
   20674:	88000b16 	blt	r17,zero,206a4 <OC_I2CL_Write+0xf4>
        //set the txr reg data with the other data 8 bit LSB
        if (!Write32_Data( i2c_base, 3,*(pData+i)))
   20678:	b445883a 	add	r2,r22,r17
#define TRUE 1
#define FALSE 0

bool Write32_Data(alt_32 base_address, alt_32 offset_address, alt_32 Data){
	bool bPass;
    IOWR(base_address, offset_address,Data);
   2067c:	10800003 	ldbu	r2,0(r2)
   20680:	a8800035 	stwio	r2,0(r21)
   20684:	95000035 	stwio	r20,0(r18)
       //set STO and WR bits(bit7 and bit4)
        if (!Write32_Data( i2c_base, 4,0x10))
            return FALSE;

        //wait TIP bit go to 0 to end Tx
         if(!ACK_check( i2c_base)){
   20688:	9809883a 	mov	r4,r19
   2068c:	00201d80 	call	201d8 <ACK_check>
   20690:	1021883a 	mov	r16,r2
   20694:	103ff61e 	bne	r2,zero,20670 <__alt_data_end+0xfffe31b0>
             printf("OC_I2CL_Write error[3]\r\n");
   20698:	010000b4 	movhi	r4,2
   2069c:	21112e04 	addi	r4,r4,17592
   206a0:	003ff006 	br	20664 <__alt_data_end+0xfffe31a4>
#define TRUE 1
#define FALSE 0

bool Write32_Data(alt_32 base_address, alt_32 offset_address, alt_32 Data){
	bool bPass;
    IOWR(base_address, offset_address,Data);
   206a4:	00801004 	movi	r2,64
   206a8:	90800035 	stwio	r2,0(r18)
#endif
    if (!Write32_Data( i2c_base, 4,0x40))
         return FALSE;

     //OS_msleep(1);
      usleep(SLEEP_TIME);
   206ac:	01003e84 	movi	r4,250
   206b0:	002417c0 	call	2417c <usleep>
  //  printf("\n receive ACK-data! \n");

     return TRUE;
   206b4:	04000044 	movi	r16,1
}
   206b8:	8005883a 	mov	r2,r16
   206bc:	dfc00717 	ldw	ra,28(sp)
   206c0:	dd800617 	ldw	r22,24(sp)
   206c4:	dd400517 	ldw	r21,20(sp)
   206c8:	dd000417 	ldw	r20,16(sp)
   206cc:	dcc00317 	ldw	r19,12(sp)
   206d0:	dc800217 	ldw	r18,8(sp)
   206d4:	dc400117 	ldw	r17,4(sp)
   206d8:	dc000017 	ldw	r16,0(sp)
   206dc:	dec00804 	addi	sp,sp,32
   206e0:	f800283a 	ret

000206e4 <OC_I2CL_Read>:

   return TRUE;

} */

bool  OC_I2CL_Read(alt_32 i2c_base,alt_u8 device_address, alt_u16 sub_address, alt_u8 *pData8, int nReadLength){
   206e4:	defff604 	addi	sp,sp,-40
   206e8:	df000815 	stw	fp,32(sp)
   206ec:	dd400515 	stw	r21,20(sp)
   206f0:	dd000415 	stw	r20,16(sp)
   206f4:	dcc00315 	stw	r19,12(sp)
   206f8:	dc800215 	stw	r18,8(sp)
   206fc:	dfc00915 	stw	ra,36(sp)
   20700:	ddc00715 	stw	r23,28(sp)
   20704:	dd800615 	stw	r22,24(sp)
   20708:	dc400115 	stw	r17,4(sp)
   2070c:	dc000015 	stw	r16,0(sp)
   20710:	2025883a 	mov	r18,r4
   20714:	2827883a 	mov	r19,r5
   20718:	3039883a 	mov	fp,r6
   2071c:	382b883a 	mov	r21,r7
#define TRUE 1
#define FALSE 0

bool Write32_Data(alt_32 base_address, alt_32 offset_address, alt_32 Data){
	bool bPass;
    IOWR(base_address, offset_address,Data);
   20720:	25000304 	addi	r20,r4,12
   20724:	28803fcc 	andi	r2,r5,255
   20728:	a0800035 	stwio	r2,0(r20)
   2072c:	24400404 	addi	r17,r4,16
   20730:	05c02404 	movi	r23,144
   20734:	8dc00035 	stwio	r23,0(r17)
   //set STA and WR bits(bit7 and bit4)
   if (!Write32_Data( i2c_base, 4,0x90))
       return FALSE;

   //wait TIP bit go to 0 to end Tx
    if(!ACK_check( i2c_base)){
   20738:	00201d80 	call	201d8 <ACK_check>
   2073c:	1000041e 	bne	r2,zero,20750 <OC_I2CL_Read+0x6c>
        printf("OC_I2CL_Read error[0]\r\n");
   20740:	010000b4 	movhi	r4,2
   20744:	1021883a 	mov	r16,r2
   20748:	21113404 	addi	r4,r4,17616
   2074c:	00002206 	br	207d8 <OC_I2CL_Read+0xf4>
#define TRUE 1
#define FALSE 0

bool Write32_Data(alt_32 base_address, alt_32 offset_address, alt_32 Data){
	bool bPass;
    IOWR(base_address, offset_address,Data);
   20750:	e0bfffcc 	andi	r2,fp,65535
   20754:	1004d23a 	srli	r2,r2,8
   20758:	a0800035 	stwio	r2,0(r20)
   2075c:	05800404 	movi	r22,16
   20760:	8d800035 	stwio	r22,0(r17)
   //set WR bits(bit4)
    if (!Write32_Data( i2c_base, 4,0x10))
        return FALSE;

   //wait TIP bit go to 0 to end Tx
    if(!ACK_check( i2c_base)){
   20764:	9009883a 	mov	r4,r18
   20768:	00201d80 	call	201d8 <ACK_check>
   2076c:	1021883a 	mov	r16,r2
   20770:	1000031e 	bne	r2,zero,20780 <OC_I2CL_Read+0x9c>
        printf("OC_I2CL_Read error[1]\r\n");
   20774:	010000b4 	movhi	r4,2
   20778:	21113a04 	addi	r4,r4,17640
   2077c:	00001606 	br	207d8 <OC_I2CL_Read+0xf4>
#define TRUE 1
#define FALSE 0

bool Write32_Data(alt_32 base_address, alt_32 offset_address, alt_32 Data){
	bool bPass;
    IOWR(base_address, offset_address,Data);
   20780:	e7003fcc 	andi	fp,fp,255
   20784:	a7000035 	stwio	fp,0(r20)
   20788:	8d800035 	stwio	r22,0(r17)
   //set WR bits(bit4)
    if (!Write32_Data( i2c_base, 4,0x10))
        return FALSE;

   //wait TIP bit go to 0 to end Tx
    if(!ACK_check( i2c_base)){
   2078c:	9009883a 	mov	r4,r18
   20790:	00201d80 	call	201d8 <ACK_check>
   20794:	1021883a 	mov	r16,r2
   20798:	1000031e 	bne	r2,zero,207a8 <OC_I2CL_Read+0xc4>
        printf("OC_I2CL_Read error[2]\r\n");
   2079c:	010000b4 	movhi	r4,2
   207a0:	21114004 	addi	r4,r4,17664
   207a4:	00000c06 	br	207d8 <OC_I2CL_Read+0xf4>
#define TRUE 1
#define FALSE 0

bool Write32_Data(alt_32 base_address, alt_32 offset_address, alt_32 Data){
	bool bPass;
    IOWR(base_address, offset_address,Data);
   207a8:	9cc00054 	ori	r19,r19,1
   207ac:	9cc03fcc 	andi	r19,r19,255
   207b0:	a4c00035 	stwio	r19,0(r20)
   207b4:	8dc00035 	stwio	r23,0(r17)
   //set STA and WR bits(bit7 and bit4)
     if (!Write32_Data( i2c_base, 4,0x90))
         return FALSE;

   //wait TIP bit go to 0 to end Tx
    if(!ACK_check( i2c_base)){
   207b8:	9009883a 	mov	r4,r18
   207bc:	00201d80 	call	201d8 <ACK_check>
   207c0:	1021883a 	mov	r16,r2
   207c4:	10000226 	beq	r2,zero,207d0 <OC_I2CL_Read+0xec>
   207c8:	0027883a 	mov	r19,zero
   207cc:	00000706 	br	207ec <OC_I2CL_Read+0x108>
        printf("OC_I2CL_Read error[3]\r\n");
   207d0:	010000b4 	movhi	r4,2
   207d4:	21114604 	addi	r4,r4,17688
   207d8:	0022d0c0 	call	22d0c <puts>
        return FALSE;
   207dc:	00001806 	br	20840 <OC_I2CL_Read+0x15c>
            printf("OC_I2CL_Read error[4]\r\n");
            return FALSE;
        }
   // printf("\n read receive ACK-device address(read)! \n");

        Data32=IORD( i2c_base, 3);
   207e0:	a0800037 	ldwio	r2,0(r20)
        *(pData8+i) =  Data32 & 0xff;
   207e4:	a8800005 	stb	r2,0(r21)
   207e8:	ad400044 	addi	r21,r21,1
//   printf("\n read receive ACK-device address(read)! \n");

       //read the rxr data

#if 1
    for(i=0;i<nReadLength;i++){
   207ec:	d8800a17 	ldw	r2,40(sp)
   207f0:	98800e0e 	bge	r19,r2,2082c <OC_I2CL_Read+0x148>
  // printf("\n read receive ACK-device address(read)! \n");
   //set the RD and ACK bit(bit5 and bit3)
    	IOWR( i2c_base, 4,((i+1) == nReadLength)?0x28:0x20);
   207f4:	d8800a17 	ldw	r2,40(sp)
   207f8:	9cc00044 	addi	r19,r19,1
   207fc:	14c00226 	beq	r2,r19,20808 <OC_I2CL_Read+0x124>
   20800:	00800804 	movi	r2,32
   20804:	00000106 	br	2080c <OC_I2CL_Read+0x128>
   20808:	00800a04 	movi	r2,40
   2080c:	88800035 	stwio	r2,0(r17)

        if (!ACK_judge_for_read( i2c_base)){
   20810:	9009883a 	mov	r4,r18
   20814:	00203280 	call	20328 <ACK_judge_for_read>
   20818:	1021883a 	mov	r16,r2
   2081c:	103ff01e 	bne	r2,zero,207e0 <__alt_data_end+0xfffe3320>
            printf("OC_I2CL_Read error[4]\r\n");
   20820:	010000b4 	movhi	r4,2
   20824:	21114c04 	addi	r4,r4,17712
   20828:	003feb06 	br	207d8 <__alt_data_end+0xfffe3318>
#define TRUE 1
#define FALSE 0

bool Write32_Data(alt_32 base_address, alt_32 offset_address, alt_32 Data){
	bool bPass;
    IOWR(base_address, offset_address,Data);
   2082c:	00801004 	movi	r2,64
   20830:	88800035 	stwio	r2,0(r17)

   if (!Write32_Data( i2c_base, 4,0x40))
       return FALSE;

   //OS_msleep(1);
    usleep(SLEEP_TIME);
   20834:	01003e84 	movi	r4,250
   20838:	002417c0 	call	2417c <usleep>

   return TRUE;
   2083c:	04000044 	movi	r16,1

}
   20840:	8005883a 	mov	r2,r16
   20844:	dfc00917 	ldw	ra,36(sp)
   20848:	df000817 	ldw	fp,32(sp)
   2084c:	ddc00717 	ldw	r23,28(sp)
   20850:	dd800617 	ldw	r22,24(sp)
   20854:	dd400517 	ldw	r21,20(sp)
   20858:	dd000417 	ldw	r20,16(sp)
   2085c:	dcc00317 	ldw	r19,12(sp)
   20860:	dc800217 	ldw	r18,8(sp)
   20864:	dc400117 	ldw	r17,4(sp)
   20868:	dc000017 	ldw	r16,0(sp)
   2086c:	dec00a04 	addi	sp,sp,40
   20870:	f800283a 	ret

00020874 <Focus_Init>:
// please observe focus performance when change the scal ,scal_f. or when change camera frame rate
alt_u8  focus_scal   =   4;  // scan 0 -> 1023 , step: SCAL , to find STEP_UP
alt_u8  focus_scal_f =   1;  //  scan STEP_UP + - SCAL/2 , step: SCAL_F
alt_u8  focus_th     =   20;

void Focus_Init(void){
   20874:	defffd04 	addi	sp,sp,-12
  // please look at TERASIC_AUTO_FOCUS IP to see register's detail.
  IOWR(TERASIC_AUTO_FOCUS_0_BASE,REG_CTRL, 0);// focus mode : 1: window-screen, 0: full-screen
   20878:	00800174 	movhi	r2,5
// please observe focus performance when change the scal ,scal_f. or when change camera frame rate
alt_u8  focus_scal   =   4;  // scan 0 -> 1023 , step: SCAL , to find STEP_UP
alt_u8  focus_scal_f =   1;  //  scan STEP_UP + - SCAL/2 , step: SCAL_F
alt_u8  focus_th     =   20;

void Focus_Init(void){
   2087c:	dc400115 	stw	r17,4(sp)
   20880:	dfc00215 	stw	ra,8(sp)
   20884:	dc000015 	stw	r16,0(sp)
  // please look at TERASIC_AUTO_FOCUS IP to see register's detail.
  IOWR(TERASIC_AUTO_FOCUS_0_BASE,REG_CTRL, 0);// focus mode : 1: window-screen, 0: full-screen
   20888:	0023883a 	mov	r17,zero
   2088c:	10868904 	addi	r2,r2,6692
   20890:	14400035 	stwio	r17,0(r2)
  IOWR(TERASIC_AUTO_FOCUS_0_BASE,REG_FOCUS_W, focus_width);// focus_width
   20894:	d0e0018b 	ldhu	r3,-32762(gp)
   20898:	00800174 	movhi	r2,5
   2089c:	10868a04 	addi	r2,r2,6696
   208a0:	10c00035 	stwio	r3,0(r2)
  IOWR(TERASIC_AUTO_FOCUS_0_BASE,REG_FOCUS_H, focus_height);// focus_height
   208a4:	d0e0010b 	ldhu	r3,-32764(gp)
   208a8:	00800174 	movhi	r2,5
   208ac:	10868b04 	addi	r2,r2,6700
   208b0:	10c00035 	stwio	r3,0(r2)
  IOWR(TERASIC_AUTO_FOCUS_0_BASE,REG_FOCUS_X_START, video_w/2-focus_width/2);//x_start
   208b4:	d0a0028b 	ldhu	r2,-32758(gp)
   208b8:	1006d07a 	srli	r3,r2,1
   208bc:	d0a0018b 	ldhu	r2,-32762(gp)
   208c0:	1004d07a 	srli	r2,r2,1
   208c4:	1885c83a 	sub	r2,r3,r2
   208c8:	00c00174 	movhi	r3,5
   208cc:	18c68c04 	addi	r3,r3,6704
   208d0:	18800035 	stwio	r2,0(r3)
  IOWR(TERASIC_AUTO_FOCUS_0_BASE,REG_FOCUS_Y_START, video_h/2-focus_height/2);// y_start
   208d4:	d0a0020b 	ldhu	r2,-32760(gp)
   208d8:	1006d07a 	srli	r3,r2,1
   208dc:	d0a0010b 	ldhu	r2,-32764(gp)
   208e0:	1004d07a 	srli	r2,r2,1
   208e4:	1885c83a 	sub	r2,r3,r2
   208e8:	00c00174 	movhi	r3,5
   208ec:	18c68d04 	addi	r3,r3,6708
   208f0:	18800035 	stwio	r2,0(r3)

  IOWR(TERASIC_AUTO_FOCUS_0_BASE,REG_SCAL, focus_scal*256 + focus_scal_f); // scan 0 -> 1023 , step: SCAL , to find STEP_UP
   208f4:	d0a00083 	ldbu	r2,-32766(gp)
   208f8:	1006923a 	slli	r3,r2,8
   208fc:	d0a00043 	ldbu	r2,-32767(gp)
   20900:	1885883a 	add	r2,r3,r2
   20904:	00c00174 	movhi	r3,5
   20908:	18c68e04 	addi	r3,r3,6712
   2090c:	18800035 	stwio	r2,0(r3)
                                                                          //  scan STEP_UP + - SCAL/2 , step: SCAL_F
  IOWR(TERASIC_AUTO_FOCUS_0_BASE,REG_TH, focus_th);
   20910:	d0e00003 	ldbu	r3,-32768(gp)
   20914:	00800174 	movhi	r2,5
   20918:	10868f04 	addi	r2,r2,6716
   2091c:	10c00035 	stwio	r3,0(r2)

  //////////// focus at initial time
  usleep(100);
   20920:	01001904 	movi	r4,100
   20924:	002417c0 	call	2417c <usleep>
  IOWR(TERASIC_AUTO_FOCUS_0_BASE,REG_GO, 1);
   20928:	04000174 	movhi	r16,5
   2092c:	84068804 	addi	r16,r16,6688
   20930:	00800044 	movi	r2,1
   20934:	80800035 	stwio	r2,0(r16)
  usleep(2);
   20938:	01000084 	movi	r4,2
   2093c:	002417c0 	call	2417c <usleep>
  IOWR(TERASIC_AUTO_FOCUS_0_BASE,REG_GO, 0);
   20940:	84400035 	stwio	r17,0(r16)
}
   20944:	dfc00217 	ldw	ra,8(sp)
   20948:	dc400117 	ldw	r17,4(sp)
   2094c:	dc000017 	ldw	r16,0(sp)
   20950:	dec00304 	addi	sp,sp,12
   20954:	f800283a 	ret

00020958 <Focus_Released>:

int Focus_Released(void){
  int Released = FALSE;
  alt_u32 TimeOut;

  TimeOut = alt_nticks() + alt_ticks_per_second()*8;
   20958:	d0a07c17 	ldw	r2,-32272(gp)
 * alt_nticks() returns the elapsed number of system clock ticks since reset.
 */

static ALT_INLINE alt_u32 ALT_ALWAYS_INLINE alt_nticks (void)
{
  return _alt_nticks;
   2095c:	d0e07b17 	ldw	r3,-32276(gp)
   }
   return end_focus;

}

int Focus_Released(void){
   20960:	defffe04 	addi	sp,sp,-8
  int Released = FALSE;
  alt_u32 TimeOut;

  TimeOut = alt_nticks() + alt_ticks_per_second()*8;
   20964:	100490fa 	slli	r2,r2,3

  while((IORD(TERASIC_AUTO_FOCUS_0_BASE,REG_STATUS)&0x8000) ==0 && alt_nticks() < TimeOut ); // waiting for VCM release I2C bus
   20968:	01000174 	movhi	r4,5
   }
   return end_focus;

}

int Focus_Released(void){
   2096c:	dfc00115 	stw	ra,4(sp)
   20970:	dc000015 	stw	r16,0(sp)
  int Released = FALSE;
  alt_u32 TimeOut;

  TimeOut = alt_nticks() + alt_ticks_per_second()*8;
   20974:	10c5883a 	add	r2,r2,r3

  while((IORD(TERASIC_AUTO_FOCUS_0_BASE,REG_STATUS)&0x8000) ==0 && alt_nticks() < TimeOut ); // waiting for VCM release I2C bus
   20978:	21068804 	addi	r4,r4,6688
   2097c:	20c00037 	ldwio	r3,0(r4)
   20980:	18e0000c 	andi	r3,r3,32768
   20984:	1800021e 	bne	r3,zero,20990 <Focus_Released+0x38>
   20988:	d0e07b17 	ldw	r3,-32276(gp)
   2098c:	18bffb36 	bltu	r3,r2,2097c <__alt_data_end+0xfffe34bc>
   20990:	d0e07b17 	ldw	r3,-32276(gp)

  if(alt_nticks() < TimeOut ) Released = TRUE;
   20994:	18800536 	bltu	r3,r2,209ac <Focus_Released+0x54>
  else printf("\n =>Released check TimeOut!\n");
   20998:	010000b4 	movhi	r4,2
   2099c:	21115204 	addi	r4,r4,17736
   209a0:	0022d0c0 	call	22d0c <puts>
   return end_focus;

}

int Focus_Released(void){
  int Released = FALSE;
   209a4:	0021883a 	mov	r16,zero
   209a8:	00000106 	br	209b0 <Focus_Released+0x58>

  TimeOut = alt_nticks() + alt_ticks_per_second()*8;

  while((IORD(TERASIC_AUTO_FOCUS_0_BASE,REG_STATUS)&0x8000) ==0 && alt_nticks() < TimeOut ); // waiting for VCM release I2C bus

  if(alt_nticks() < TimeOut ) Released = TRUE;
   209ac:	04000044 	movi	r16,1
  else printf("\n =>Released check TimeOut!\n");

  usleep(10000);
   209b0:	0109c404 	movi	r4,10000
   209b4:	002417c0 	call	2417c <usleep>

  return Released;
}
   209b8:	8005883a 	mov	r2,r16
   209bc:	dfc00117 	ldw	ra,4(sp)
   209c0:	dc000017 	ldw	r16,0(sp)
   209c4:	dec00204 	addi	sp,sp,8
   209c8:	f800283a 	ret

000209cc <Focus_Window>:
  IOWR(TERASIC_AUTO_FOCUS_0_BASE,REG_GO, 1);
  usleep(2);
  IOWR(TERASIC_AUTO_FOCUS_0_BASE,REG_GO, 0);
}

alt_u16 Focus_Window(int x,int y){
   209cc:	defffd04 	addi	sp,sp,-12
   209d0:	dc400115 	stw	r17,4(sp)
   209d4:	dc000015 	stw	r16,0(sp)
   209d8:	dfc00215 	stw	ra,8(sp)
   209dc:	2023883a 	mov	r17,r4
   209e0:	2821883a 	mov	r16,r5
   alt_u16 x_start,y_start;
   alt_u16 end_focus;

   if(Focus_Released()) { // pre focus done
   209e4:	00209580 	call	20958 <Focus_Released>
   209e8:	10004326 	beq	r2,zero,20af8 <Focus_Window+0x12c>
	   IOWR(TERASIC_AUTO_FOCUS_0_BASE,REG_CTRL, 1);// focus mode : 1: window-screen, 0: full-screen
   209ec:	00800174 	movhi	r2,5
   209f0:	10868904 	addi	r2,r2,6692
   209f4:	00c00044 	movi	r3,1
   209f8:	10c00035 	stwio	r3,0(r2)

	   if(( x -  focus_width/2) < 0 ) x_start = 0;
   209fc:	d120018b 	ldhu	r4,-32762(gp)
   20a00:	20bfffcc 	andi	r2,r4,65535
   20a04:	10c4d83a 	srl	r2,r2,r3
   20a08:	117fffcc 	andi	r5,r2,65535
   20a0c:	8947c83a 	sub	r3,r17,r5
   20a10:	18000916 	blt	r3,zero,20a38 <Focus_Window+0x6c>
	   else if(( x + focus_width/2 ) > video_w )  x_start = video_w -1 -focus_width;
   20a14:	d0e0028b 	ldhu	r3,-32758(gp)
   20a18:	2c4b883a 	add	r5,r5,r17
   20a1c:	19bfffcc 	andi	r6,r3,65535
   20a20:	3140030e 	bge	r6,r5,20a30 <Focus_Window+0x64>
   20a24:	18ffffc4 	addi	r3,r3,-1
   20a28:	1923c83a 	sub	r17,r3,r4
   20a2c:	00000306 	br	20a3c <Focus_Window+0x70>
	   else x_start = x - focus_width/2;
   20a30:	88a3c83a 	sub	r17,r17,r2
   20a34:	00000106 	br	20a3c <Focus_Window+0x70>
   alt_u16 end_focus;

   if(Focus_Released()) { // pre focus done
	   IOWR(TERASIC_AUTO_FOCUS_0_BASE,REG_CTRL, 1);// focus mode : 1: window-screen, 0: full-screen

	   if(( x -  focus_width/2) < 0 ) x_start = 0;
   20a38:	0023883a 	mov	r17,zero
	   else if(( x + focus_width/2 ) > video_w )  x_start = video_w -1 -focus_width;
	   else x_start = x - focus_width/2;

	   if(( y -  focus_height/2) < 0 ) y_start = 0;
   20a3c:	d160010b 	ldhu	r5,-32764(gp)
   20a40:	28bfffcc 	andi	r2,r5,65535
   20a44:	1004d07a 	srli	r2,r2,1
   20a48:	113fffcc 	andi	r4,r2,65535
   20a4c:	8107c83a 	sub	r3,r16,r4
   20a50:	18000916 	blt	r3,zero,20a78 <Focus_Window+0xac>
	   else if(( y + focus_height/2 ) > video_h )  y_start = video_h -1 -focus_height;
   20a54:	d0e0020b 	ldhu	r3,-32760(gp)
   20a58:	2409883a 	add	r4,r4,r16
   20a5c:	19bfffcc 	andi	r6,r3,65535
   20a60:	3100030e 	bge	r6,r4,20a70 <Focus_Window+0xa4>
   20a64:	18ffffc4 	addi	r3,r3,-1
   20a68:	1961c83a 	sub	r16,r3,r5
   20a6c:	00000306 	br	20a7c <Focus_Window+0xb0>
	   else y_start = y - focus_height/2;
   20a70:	80a1c83a 	sub	r16,r16,r2
   20a74:	00000106 	br	20a7c <Focus_Window+0xb0>

	   if(( x -  focus_width/2) < 0 ) x_start = 0;
	   else if(( x + focus_width/2 ) > video_w )  x_start = video_w -1 -focus_width;
	   else x_start = x - focus_width/2;

	   if(( y -  focus_height/2) < 0 ) y_start = 0;
   20a78:	0021883a 	mov	r16,zero
	   else if(( y + focus_height/2 ) > video_h )  y_start = video_h -1 -focus_height;
	   else y_start = y - focus_height/2;

	   printf("x_start= %d,y_start= %d\n",x_start,y_start);
   20a7c:	8c7fffcc 	andi	r17,r17,65535
   20a80:	843fffcc 	andi	r16,r16,65535
   20a84:	010000b4 	movhi	r4,2
   20a88:	800d883a 	mov	r6,r16
   20a8c:	880b883a 	mov	r5,r17
   20a90:	21115a04 	addi	r4,r4,17768
   20a94:	0022c1c0 	call	22c1c <printf>

	   IOWR(TERASIC_AUTO_FOCUS_0_BASE,REG_FOCUS_X_START, x_start);//x_start
   20a98:	00800174 	movhi	r2,5
   20a9c:	10868c04 	addi	r2,r2,6704
   20aa0:	14400035 	stwio	r17,0(r2)
	   IOWR(TERASIC_AUTO_FOCUS_0_BASE,REG_FOCUS_Y_START, y_start);//y_start
   20aa4:	00800174 	movhi	r2,5
   20aa8:	10868d04 	addi	r2,r2,6708
   20aac:	14000035 	stwio	r16,0(r2)

	   usleep(10);
   20ab0:	01000284 	movi	r4,10
   20ab4:	002417c0 	call	2417c <usleep>

	   IOWR(TERASIC_AUTO_FOCUS_0_BASE,REG_GO, 1);
   20ab8:	04000174 	movhi	r16,5
   20abc:	84068804 	addi	r16,r16,6688
   20ac0:	00800044 	movi	r2,1
   20ac4:	80800035 	stwio	r2,0(r16)
	   usleep(2);
   20ac8:	01000084 	movi	r4,2
   20acc:	002417c0 	call	2417c <usleep>
	   IOWR(TERASIC_AUTO_FOCUS_0_BASE,REG_GO, 0);
   20ad0:	80000035 	stwio	zero,0(r16)
	   Focus_Released();
   20ad4:	00209580 	call	20958 <Focus_Released>

	   end_focus = IORD(TERASIC_AUTO_FOCUS_0_BASE,REG_STATUS)&0x0FFF;
   20ad8:	84000037 	ldwio	r16,0(r16)
	   printf("end_focus = %d \n",end_focus);
   20adc:	010000b4 	movhi	r4,2
	   IOWR(TERASIC_AUTO_FOCUS_0_BASE,REG_GO, 1);
	   usleep(2);
	   IOWR(TERASIC_AUTO_FOCUS_0_BASE,REG_GO, 0);
	   Focus_Released();

	   end_focus = IORD(TERASIC_AUTO_FOCUS_0_BASE,REG_STATUS)&0x0FFF;
   20ae0:	8403ffcc 	andi	r16,r16,4095
	   printf("end_focus = %d \n",end_focus);
   20ae4:	800b883a 	mov	r5,r16
   20ae8:	21116104 	addi	r4,r4,17796
   20aec:	0022c1c0 	call	22c1c <printf>

	   return end_focus;
   20af0:	8005883a 	mov	r2,r16
   20af4:	00000106 	br	20afc <Focus_Window+0x130>

   }
   return end_focus;
   20af8:	0005883a 	mov	r2,zero

}
   20afc:	dfc00217 	ldw	ra,8(sp)
   20b00:	dc400117 	ldw	r17,4(sp)
   20b04:	dc000017 	ldw	r16,0(sp)
   20b08:	dec00304 	addi	sp,sp,12
   20b0c:	f800283a 	ret

00020b10 <process_input>:
	static alt_u16  current_focus = 300;
	alt_u32 exposureTime = EXPOSURE_INIT;
	alt_u16 gain = GAIN_INIT;

	// touch KEY0 to trigger Auto focus
		   if((IORD(KEY_BASE,0)&0x03) == 0x02){
   20b10:	00c00174 	movhi	r3,5
#include "input.h"


void process_input(){
   20b14:	defffe04 	addi	sp,sp,-8
	static alt_u16  current_focus = 300;
	alt_u32 exposureTime = EXPOSURE_INIT;
	alt_u16 gain = GAIN_INIT;

	// touch KEY0 to trigger Auto focus
		   if((IORD(KEY_BASE,0)&0x03) == 0x02){
   20b18:	18c6b404 	addi	r3,r3,6864
#include "input.h"


void process_input(){
   20b1c:	dfc00115 	stw	ra,4(sp)
   20b20:	dc000015 	stw	r16,0(sp)
	static alt_u16  current_focus = 300;
	alt_u32 exposureTime = EXPOSURE_INIT;
	alt_u16 gain = GAIN_INIT;

	// touch KEY0 to trigger Auto focus
		   if((IORD(KEY_BASE,0)&0x03) == 0x02){
   20b24:	18800037 	ldwio	r2,0(r3)
   20b28:	01400084 	movi	r5,2
   20b2c:	108000cc 	andi	r2,r2,3
   20b30:	1140051e 	bne	r2,r5,20b48 <process_input+0x38>

	    	   current_focus = Focus_Window(320,240);
   20b34:	01403c04 	movi	r5,240
   20b38:	01005004 	movi	r4,320
   20b3c:	00209cc0 	call	209cc <Focus_Window>
   20b40:	d0a0030d 	sth	r2,-32756(gp)
   20b44:	00003306 	br	20c14 <process_input+0x104>
	       }
		   // touch KEY1 with selected routine to run
		   else if ((IORD(KEY_BASE,0)&0x03) == 0x01){
   20b48:	18800037 	ldwio	r2,0(r3)
   20b4c:	00c00044 	movi	r3,1
   20b50:	108000cc 	andi	r2,r2,3
   20b54:	10c02f1e 	bne	r2,r3,20c14 <process_input+0x104>
	    	   int sw = (IORD(SW_BASE, 0)& 0x03FF);
   20b58:	00c00174 	movhi	r3,5
   20b5c:	18c6b804 	addi	r3,r3,6880
   20b60:	1c000037 	ldwio	r16,0(r3)

	    	   switch(sw){
   20b64:	00c00204 	movi	r3,8

	    	   current_focus = Focus_Window(320,240);
	       }
		   // touch KEY1 with selected routine to run
		   else if ((IORD(KEY_BASE,0)&0x03) == 0x01){
	    	   int sw = (IORD(SW_BASE, 0)& 0x03FF);
   20b68:	8400ffcc 	andi	r16,r16,1023

	    	   switch(sw){
   20b6c:	80c01726 	beq	r16,r3,20bcc <process_input+0xbc>
   20b70:	1c000716 	blt	r3,r16,20b90 <process_input+0x80>
   20b74:	81400e26 	beq	r16,r5,20bb0 <process_input+0xa0>
   20b78:	00c00104 	movi	r3,4
   20b7c:	80c01026 	beq	r16,r3,20bc0 <process_input+0xb0>
   20b80:	8080201e 	bne	r16,r2,20c04 <process_input+0xf4>
				   case 1 : {
					   auto_gain(110,2);
   20b84:	01001b84 	movi	r4,110
   20b88:	00224700 	call	22470 <auto_gain>
					   break;
   20b8c:	00001d06 	br	20c04 <process_input+0xf4>
	       }
		   // touch KEY1 with selected routine to run
		   else if ((IORD(KEY_BASE,0)&0x03) == 0x01){
	    	   int sw = (IORD(SW_BASE, 0)& 0x03FF);

	    	   switch(sw){
   20b90:	00800804 	movi	r2,32
   20b94:	80801826 	beq	r16,r2,20bf8 <process_input+0xe8>
   20b98:	00801004 	movi	r2,64
   20b9c:	80801826 	beq	r16,r2,20c00 <process_input+0xf0>
   20ba0:	00800404 	movi	r2,16
   20ba4:	8080171e 	bne	r16,r2,20c04 <process_input+0xf4>
				   }case 8: {
					   IOWR(COLOR_FILTER_0_BASE, APPLY_MASK, ~IORD(COLOR_FILTER_0_BASE, APPLY_MASK));
					   IOWR(COM_COUNTER_0_BASE, THRESH_ENABLED, ~IORD(COM_COUNTER_0_BASE, THRESH_ENABLED));
					   break;
				   }case 16: {
					   fir_load_unit();
   20ba8:	0020d1c0 	call	20d1c <fir_load_unit>
					   break;
   20bac:	00001506 	br	20c04 <process_input+0xf4>
	    	   switch(sw){
				   case 1 : {
					   auto_gain(110,2);
					   break;
				   }case 2: {
					   auto_wb(127 , 3);
   20bb0:	014000c4 	movi	r5,3
   20bb4:	01001fc4 	movi	r4,127
   20bb8:	00225200 	call	22520 <auto_wb>
					   break;
   20bbc:	00001106 	br	20c04 <process_input+0xf4>
				   }case 4: {
					   IOWR(RGB_TO_HSV_BASE, HSV_ENABLED, ~IORD(RGB_TO_HSV_BASE, HSV_ENABLED));
   20bc0:	00c00174 	movhi	r3,5
   20bc4:	18c64004 	addi	r3,r3,6400
   20bc8:	00000706 	br	20be8 <process_input+0xd8>
					   break;
				   }case 8: {
					   IOWR(COLOR_FILTER_0_BASE, APPLY_MASK, ~IORD(COLOR_FILTER_0_BASE, APPLY_MASK));
   20bcc:	00c00174 	movhi	r3,5
   20bd0:	18c66204 	addi	r3,r3,6536
   20bd4:	18800037 	ldwio	r2,0(r3)
   20bd8:	0084303a 	nor	r2,zero,r2
   20bdc:	18800035 	stwio	r2,0(r3)
					   IOWR(COM_COUNTER_0_BASE, THRESH_ENABLED, ~IORD(COM_COUNTER_0_BASE, THRESH_ENABLED));
   20be0:	00c00174 	movhi	r3,5
   20be4:	18c65804 	addi	r3,r3,6496
   20be8:	18800037 	ldwio	r2,0(r3)
   20bec:	0084303a 	nor	r2,zero,r2
   20bf0:	18800035 	stwio	r2,0(r3)
					   break;
   20bf4:	00000306 	br	20c04 <process_input+0xf4>
				   }case 16: {
					   fir_load_unit();
					   break;
				   }case 32: {
					   fir_load_avg();
   20bf8:	0020db40 	call	20db4 <fir_load_avg>
					   break;
   20bfc:	00000106 	br	20c04 <process_input+0xf4>
				   }case 64: {
					   fir_load_sobel();
   20c00:	0020e440 	call	20e44 <fir_load_sobel>
					   break;
				   }
	    	   }
	    	   printf("SW: %x", sw);
   20c04:	010000b4 	movhi	r4,2
   20c08:	800b883a 	mov	r5,r16
   20c0c:	21116604 	addi	r4,r4,17816
   20c10:	0022c1c0 	call	22c1c <printf>

	       }

		   //Process input commands
		  int in = alt_getchar();
   20c14:	0023d3c0 	call	23d3c <alt_getchar>
		  switch (in) {
   20c18:	00c01984 	movi	r3,102
   20c1c:	10c02c26 	beq	r2,r3,20cd0 <process_input+0x1c0>
   20c20:	18800a16 	blt	r3,r2,20c4c <process_input+0x13c>
   20c24:	00c01904 	movi	r3,100
   20c28:	10c01626 	beq	r2,r3,20c84 <process_input+0x174>
   20c2c:	18801116 	blt	r3,r2,20c74 <process_input+0x164>
   20c30:	00c01484 	movi	r3,82
   20c34:	10c0351e 	bne	r2,r3,20d0c <process_input+0x1fc>
			   case 'R': {
				   //Process request
				   print_observations(observations);
   20c38:	d1207217 	ldw	r4,-32312(gp)
			   OV8865_FOCUS_Move_to(current_focus);
			   printf("\nFocus = %x ",current_focus);
				   break;}
		  	  };

}
   20c3c:	dfc00117 	ldw	ra,4(sp)
   20c40:	dc000017 	ldw	r16,0(sp)
   20c44:	dec00204 	addi	sp,sp,8
		   //Process input commands
		  int in = alt_getchar();
		  switch (in) {
			   case 'R': {
				   //Process request
				   print_observations(observations);
   20c48:	00223481 	jmpi	22348 <print_observations>

	       }

		   //Process input commands
		  int in = alt_getchar();
		  switch (in) {
   20c4c:	00c01c84 	movi	r3,114
   20c50:	10c01826 	beq	r2,r3,20cb4 <process_input+0x1a4>
   20c54:	00c01d04 	movi	r3,116
   20c58:	10c01026 	beq	r2,r3,20c9c <process_input+0x18c>
   20c5c:	00c019c4 	movi	r3,103
   20c60:	10c02a1e 	bne	r2,r3,20d0c <process_input+0x1fc>
				   OV8865SetGain(gain);
				   printf("\nGain = %x ", gain);
				   break;}
			   case 'g': {
				   gain -= GAIN_STEP;
				   OV8865SetGain(gain);
   20c64:	01005004 	movi	r4,320
   20c68:	00217880 	call	21788 <OV8865SetGain>
				   printf("\nGain = %x ", gain);
   20c6c:	01405004 	movi	r5,320
   20c70:	00000d06 	br	20ca8 <process_input+0x198>
				   //Process request
				   print_observations(observations);
				   break;}
			   case 'e': {
			   exposureTime += EXPOSURE_STEP;
			   OV8865SetExposure(exposureTime);
   20c74:	0108c004 	movi	r4,8960
   20c78:	00216e80 	call	216e8 <OV8865SetExposure>
			   printf("\nExposure = %x ", exposureTime);
   20c7c:	0148c004 	movi	r5,8960
   20c80:	00000306 	br	20c90 <process_input+0x180>
			   break;}
			   case 'd': {
				   exposureTime -= EXPOSURE_STEP;
				   OV8865SetExposure(exposureTime);
   20c84:	01084004 	movi	r4,8448
   20c88:	00216e80 	call	216e8 <OV8865SetExposure>
				   printf("\nExposure = %x ", exposureTime);
   20c8c:	01484004 	movi	r5,8448
   20c90:	010000b4 	movhi	r4,2
   20c94:	21116804 	addi	r4,r4,17824
   20c98:	00001806 	br	20cfc <process_input+0x1ec>
				   break;}
			   case 't': {
				   gain += GAIN_STEP;
				   OV8865SetGain(gain);
   20c9c:	01007004 	movi	r4,448
   20ca0:	00217880 	call	21788 <OV8865SetGain>
				   printf("\nGain = %x ", gain);
   20ca4:	01407004 	movi	r5,448
				   break;}
			   case 'g': {
				   gain -= GAIN_STEP;
				   OV8865SetGain(gain);
				   printf("\nGain = %x ", gain);
   20ca8:	010000b4 	movhi	r4,2
   20cac:	21116c04 	addi	r4,r4,17840
   20cb0:	00001206 	br	20cfc <process_input+0x1ec>
				   break;}
			   case 'r': {
			   current_focus += manual_focus_step;
   20cb4:	d0a0030b 	ldhu	r2,-32756(gp)
			   if(current_focus >1023) current_focus = 1023;
   20cb8:	00c0ffc4 	movi	r3,1023
				   gain -= GAIN_STEP;
				   OV8865SetGain(gain);
				   printf("\nGain = %x ", gain);
				   break;}
			   case 'r': {
			   current_focus += manual_focus_step;
   20cbc:	10800284 	addi	r2,r2,10
			   if(current_focus >1023) current_focus = 1023;
   20cc0:	113fffcc 	andi	r4,r2,65535
   20cc4:	1900072e 	bgeu	r3,r4,20ce4 <process_input+0x1d4>
   20cc8:	d0e0030d 	sth	r3,-32756(gp)
   20ccc:	00000606 	br	20ce8 <process_input+0x1d8>
			   OV8865_FOCUS_Move_to(current_focus);
			   printf("\nFocus = %x ",current_focus);
				   break;}
			   case 'f': {
			   if(current_focus > manual_focus_step) current_focus -= manual_focus_step;
   20cd0:	d0a0030b 	ldhu	r2,-32756(gp)
   20cd4:	01000284 	movi	r4,10
   20cd8:	10ffffcc 	andi	r3,r2,65535
   20cdc:	20c0022e 	bgeu	r4,r3,20ce8 <process_input+0x1d8>
   20ce0:	10bffd84 	addi	r2,r2,-10
   20ce4:	d0a0030d 	sth	r2,-32756(gp)
			   OV8865_FOCUS_Move_to(current_focus);
   20ce8:	d120030b 	ldhu	r4,-32756(gp)
   20cec:	00216600 	call	21660 <OV8865_FOCUS_Move_to>
			   printf("\nFocus = %x ",current_focus);
   20cf0:	d160030b 	ldhu	r5,-32756(gp)
   20cf4:	010000b4 	movhi	r4,2
   20cf8:	21116f04 	addi	r4,r4,17852
				   break;}
		  	  };

}
   20cfc:	dfc00117 	ldw	ra,4(sp)
   20d00:	dc000017 	ldw	r16,0(sp)
   20d04:	dec00204 	addi	sp,sp,8
			   printf("\nFocus = %x ",current_focus);
				   break;}
			   case 'f': {
			   if(current_focus > manual_focus_step) current_focus -= manual_focus_step;
			   OV8865_FOCUS_Move_to(current_focus);
			   printf("\nFocus = %x ",current_focus);
   20d08:	0022c1c1 	jmpi	22c1c <printf>
				   break;}
		  	  };

}
   20d0c:	dfc00117 	ldw	ra,4(sp)
   20d10:	dc000017 	ldw	r16,0(sp)
   20d14:	dec00204 	addi	sp,sp,8
   20d18:	f800283a 	ret

00020d1c <fir_load_unit>:


void fir_load_unit(){
	//Clear filter coefficients
	for (int i = 7; i < 7+9; i++){
		IOWR(ALT_VIP_CL_2DFIR_0_BASE, i, 0);
   20d1c:	00c00174 	movhi	r3,5
   20d20:	0005883a 	mov	r2,zero
   20d24:	18c40704 	addi	r3,r3,4124
   20d28:	18800035 	stwio	r2,0(r3)
   20d2c:	00c00174 	movhi	r3,5
   20d30:	18c40804 	addi	r3,r3,4128
   20d34:	18800035 	stwio	r2,0(r3)
   20d38:	00c00174 	movhi	r3,5
   20d3c:	18c40904 	addi	r3,r3,4132
   20d40:	18800035 	stwio	r2,0(r3)
   20d44:	00c00174 	movhi	r3,5
   20d48:	18c40a04 	addi	r3,r3,4136
   20d4c:	18800035 	stwio	r2,0(r3)
   20d50:	00c00174 	movhi	r3,5
   20d54:	18c40b04 	addi	r3,r3,4140
   20d58:	18800035 	stwio	r2,0(r3)
   20d5c:	01000174 	movhi	r4,5
   20d60:	21040c04 	addi	r4,r4,4144
   20d64:	20800035 	stwio	r2,0(r4)
   20d68:	01000174 	movhi	r4,5
   20d6c:	21040d04 	addi	r4,r4,4148
   20d70:	20800035 	stwio	r2,0(r4)
   20d74:	01000174 	movhi	r4,5
   20d78:	21040e04 	addi	r4,r4,4152
   20d7c:	20800035 	stwio	r2,0(r4)
   20d80:	01000174 	movhi	r4,5
   20d84:	21040f04 	addi	r4,r4,4156
   20d88:	20800035 	stwio	r2,0(r4)
	}
	IOWR(ALT_VIP_CL_2DFIR_0_BASE, 11, 128);
   20d8c:	00802004 	movi	r2,128
   20d90:	18800035 	stwio	r2,0(r3)
	IOWR(ALT_VIP_CL_2DFIR_0_BASE, 6, 1);
   20d94:	00c00174 	movhi	r3,5
   20d98:	00800044 	movi	r2,1
   20d9c:	18c40604 	addi	r3,r3,4120
   20da0:	18800035 	stwio	r2,0(r3)
	IOWR(ALT_VIP_CL_2DFIR_0_BASE, 0, 1);
   20da4:	00c00174 	movhi	r3,5
   20da8:	18c40004 	addi	r3,r3,4096
   20dac:	18800035 	stwio	r2,0(r3)
   20db0:	f800283a 	ret

00020db4 <fir_load_avg>:
}

void fir_load_avg(){
	for (int i = 7; i < 7+9; i++){
		IOWR(ALT_VIP_CL_2DFIR_0_BASE, i, 14);
   20db4:	00c00174 	movhi	r3,5
   20db8:	00800384 	movi	r2,14
   20dbc:	18c40704 	addi	r3,r3,4124
   20dc0:	18800035 	stwio	r2,0(r3)
   20dc4:	00c00174 	movhi	r3,5
   20dc8:	18c40804 	addi	r3,r3,4128
   20dcc:	18800035 	stwio	r2,0(r3)
   20dd0:	00c00174 	movhi	r3,5
   20dd4:	18c40904 	addi	r3,r3,4132
   20dd8:	18800035 	stwio	r2,0(r3)
   20ddc:	00c00174 	movhi	r3,5
   20de0:	18c40a04 	addi	r3,r3,4136
   20de4:	18800035 	stwio	r2,0(r3)
   20de8:	00c00174 	movhi	r3,5
   20dec:	18c40b04 	addi	r3,r3,4140
   20df0:	18800035 	stwio	r2,0(r3)
   20df4:	00c00174 	movhi	r3,5
   20df8:	18c40c04 	addi	r3,r3,4144
   20dfc:	18800035 	stwio	r2,0(r3)
   20e00:	00c00174 	movhi	r3,5
   20e04:	18c40d04 	addi	r3,r3,4148
   20e08:	18800035 	stwio	r2,0(r3)
   20e0c:	00c00174 	movhi	r3,5
   20e10:	18c40e04 	addi	r3,r3,4152
   20e14:	18800035 	stwio	r2,0(r3)
   20e18:	00c00174 	movhi	r3,5
   20e1c:	18c40f04 	addi	r3,r3,4156
   20e20:	18800035 	stwio	r2,0(r3)
	}
	IOWR(ALT_VIP_CL_2DFIR_0_BASE, 6, 1);
   20e24:	00c00174 	movhi	r3,5
   20e28:	00800044 	movi	r2,1
   20e2c:	18c40604 	addi	r3,r3,4120
   20e30:	18800035 	stwio	r2,0(r3)
	IOWR(ALT_VIP_CL_2DFIR_0_BASE, 0, 1);
   20e34:	00c00174 	movhi	r3,5
   20e38:	18c40004 	addi	r3,r3,4096
   20e3c:	18800035 	stwio	r2,0(r3)
   20e40:	f800283a 	ret

00020e44 <fir_load_sobel>:
}


void fir_load_sobel(){
	IOWR(ALT_VIP_CL_2DFIR_0_BASE, 7, -128);
   20e44:	00800174 	movhi	r2,5
   20e48:	013fe004 	movi	r4,-128
   20e4c:	10840704 	addi	r2,r2,4124
   20e50:	11000035 	stwio	r4,0(r2)
	IOWR(ALT_VIP_CL_2DFIR_0_BASE, 8, 0);
   20e54:	00800174 	movhi	r2,5
   20e58:	0007883a 	mov	r3,zero
   20e5c:	10840804 	addi	r2,r2,4128
   20e60:	10c00035 	stwio	r3,0(r2)
	IOWR(ALT_VIP_CL_2DFIR_0_BASE, 9, 128);
   20e64:	01400174 	movhi	r5,5
   20e68:	00802004 	movi	r2,128
   20e6c:	29440904 	addi	r5,r5,4132
   20e70:	28800035 	stwio	r2,0(r5)
	IOWR(ALT_VIP_CL_2DFIR_0_BASE, 10, -128);
   20e74:	01400174 	movhi	r5,5
   20e78:	29440a04 	addi	r5,r5,4136
   20e7c:	29000035 	stwio	r4,0(r5)
	IOWR(ALT_VIP_CL_2DFIR_0_BASE, 11, 0);
   20e80:	01400174 	movhi	r5,5
   20e84:	29440b04 	addi	r5,r5,4140
   20e88:	28c00035 	stwio	r3,0(r5)
	IOWR(ALT_VIP_CL_2DFIR_0_BASE, 12, 128);
   20e8c:	01400174 	movhi	r5,5
   20e90:	29440c04 	addi	r5,r5,4144
   20e94:	28800035 	stwio	r2,0(r5)
	IOWR(ALT_VIP_CL_2DFIR_0_BASE, 13, -128);
   20e98:	01400174 	movhi	r5,5
   20e9c:	29440d04 	addi	r5,r5,4148
   20ea0:	29000035 	stwio	r4,0(r5)
	IOWR(ALT_VIP_CL_2DFIR_0_BASE, 14, 0);
   20ea4:	01000174 	movhi	r4,5
   20ea8:	21040e04 	addi	r4,r4,4152
   20eac:	20c00035 	stwio	r3,0(r4)
	IOWR(ALT_VIP_CL_2DFIR_0_BASE, 15, 128);
   20eb0:	00c00174 	movhi	r3,5
   20eb4:	18c40f04 	addi	r3,r3,4156
   20eb8:	18800035 	stwio	r2,0(r3)

	IOWR(ALT_VIP_CL_2DFIR_0_BASE, 6, 1);
   20ebc:	00c00174 	movhi	r3,5
   20ec0:	00800044 	movi	r2,1
   20ec4:	18c40604 	addi	r3,r3,4120
   20ec8:	18800035 	stwio	r2,0(r3)
	IOWR(ALT_VIP_CL_2DFIR_0_BASE, 0, 1);
   20ecc:	00c00174 	movhi	r3,5
   20ed0:	18c40004 	addi	r3,r3,4096
   20ed4:	18800035 	stwio	r2,0(r3)
   20ed8:	f800283a 	ret

00020edc <fir_load_inv_sobel>:

}

void fir_load_inv_sobel(){
	IOWR(ALT_VIP_CL_2DFIR_0_BASE, 7, 128);
   20edc:	00800174 	movhi	r2,5
   20ee0:	01002004 	movi	r4,128
   20ee4:	10840704 	addi	r2,r2,4124
   20ee8:	11000035 	stwio	r4,0(r2)
	IOWR(ALT_VIP_CL_2DFIR_0_BASE, 8, 0);
   20eec:	00800174 	movhi	r2,5
   20ef0:	0007883a 	mov	r3,zero
   20ef4:	10840804 	addi	r2,r2,4128
   20ef8:	10c00035 	stwio	r3,0(r2)
	IOWR(ALT_VIP_CL_2DFIR_0_BASE, 9, -128);
   20efc:	01400174 	movhi	r5,5
   20f00:	00bfe004 	movi	r2,-128
   20f04:	29440904 	addi	r5,r5,4132
   20f08:	28800035 	stwio	r2,0(r5)
	IOWR(ALT_VIP_CL_2DFIR_0_BASE, 10, 128);
   20f0c:	01400174 	movhi	r5,5
   20f10:	29440a04 	addi	r5,r5,4136
   20f14:	29000035 	stwio	r4,0(r5)
	IOWR(ALT_VIP_CL_2DFIR_0_BASE, 11, 0);
   20f18:	01400174 	movhi	r5,5
   20f1c:	29440b04 	addi	r5,r5,4140
   20f20:	28c00035 	stwio	r3,0(r5)
	IOWR(ALT_VIP_CL_2DFIR_0_BASE, 12, -128);
   20f24:	01400174 	movhi	r5,5
   20f28:	29440c04 	addi	r5,r5,4144
   20f2c:	28800035 	stwio	r2,0(r5)
	IOWR(ALT_VIP_CL_2DFIR_0_BASE, 13, 128);
   20f30:	01400174 	movhi	r5,5
   20f34:	29440d04 	addi	r5,r5,4148
   20f38:	29000035 	stwio	r4,0(r5)
	IOWR(ALT_VIP_CL_2DFIR_0_BASE, 14, 0);
   20f3c:	01000174 	movhi	r4,5
   20f40:	21040e04 	addi	r4,r4,4152
   20f44:	20c00035 	stwio	r3,0(r4)
	IOWR(ALT_VIP_CL_2DFIR_0_BASE, 15, -128);
   20f48:	00c00174 	movhi	r3,5
   20f4c:	18c40f04 	addi	r3,r3,4156
   20f50:	18800035 	stwio	r2,0(r3)

	IOWR(ALT_VIP_CL_2DFIR_0_BASE, 6, 1);
   20f54:	00c00174 	movhi	r3,5
   20f58:	00800044 	movi	r2,1
   20f5c:	18c40604 	addi	r3,r3,4120
   20f60:	18800035 	stwio	r2,0(r3)
	IOWR(ALT_VIP_CL_2DFIR_0_BASE, 0, 1);
   20f64:	00c00174 	movhi	r3,5
   20f68:	18c40004 	addi	r3,r3,4096
   20f6c:	18800035 	stwio	r2,0(r3)
   20f70:	f800283a 	ret

00020f74 <uart_rready>:

}

int uart_rready(){
	return (IORD(UART_0_BASE,2)& 0x080);
   20f74:	00800174 	movhi	r2,5
   20f78:	10867a04 	addi	r2,r2,6632
   20f7c:	10800037 	ldwio	r2,0(r2)
}
   20f80:	1080200c 	andi	r2,r2,128
   20f84:	f800283a 	ret

00020f88 <get_building_hist>:

void get_building_hist(){
   20f88:	defffb04 	addi	sp,sp,-20
   20f8c:	dfc00415 	stw	ra,16(sp)
   20f90:	dcc00315 	stw	r19,12(sp)
   20f94:	dc800215 	stw	r18,8(sp)
   20f98:	dc400115 	stw	r17,4(sp)
   20f9c:	dc000015 	stw	r16,0(sp)
	fir_load_sobel();
   20fa0:	0020e440 	call	20e44 <fir_load_sobel>
	IOWR(COM_COUNTER_0_BASE, THRESH_Y, 64);
   20fa4:	00800174 	movhi	r2,5
   20fa8:	10865904 	addi	r2,r2,6500
   20fac:	00c01004 	movi	r3,64
   20fb0:	10c00035 	stwio	r3,0(r2)
	IOWR(COLOR_FILTER_0_BASE, APPLY_MASK, 0);
   20fb4:	00800174 	movhi	r2,5
   20fb8:	10866204 	addi	r2,r2,6536
   20fbc:	10000035 	stwio	zero,0(r2)
	wait_sop();
   20fc0:	00221180 	call	22118 <wait_sop>
   20fc4:	04c00074 	movhi	r19,1
	wait_eop();

	for (int i = 0; i<20; i++){
		histogram[i] = IORD(EDGE_BINS_0_BASE, i);
   20fc8:	04bffef4 	movhi	r18,65531
   20fcc:	044000b4 	movhi	r17,2
void get_building_hist(){
	fir_load_sobel();
	IOWR(COM_COUNTER_0_BASE, THRESH_Y, 64);
	IOWR(COLOR_FILTER_0_BASE, APPLY_MASK, 0);
	wait_sop();
	wait_eop();
   20fd0:	00221240 	call	22124 <wait_eop>

	for (int i = 0; i<20; i++){
   20fd4:	0021883a 	mov	r16,zero
   20fd8:	9cd18004 	addi	r19,r19,17920
		histogram[i] = IORD(EDGE_BINS_0_BASE, i);
   20fdc:	94ba0004 	addi	r18,r18,-6144
   20fe0:	8c552304 	addi	r17,r17,21644
   20fe4:	84c5883a 	add	r2,r16,r19
   20fe8:	1085883a 	add	r2,r2,r2
   20fec:	1085883a 	add	r2,r2,r2
   20ff0:	11800037 	ldwio	r6,0(r2)
		alt_printf("Bin %x: %x \n", i, histogram[i]);
   20ff4:	010000b4 	movhi	r4,2
	IOWR(COLOR_FILTER_0_BASE, APPLY_MASK, 0);
	wait_sop();
	wait_eop();

	for (int i = 0; i<20; i++){
		histogram[i] = IORD(EDGE_BINS_0_BASE, i);
   20ff8:	1485883a 	add	r2,r2,r18
   20ffc:	1445883a 	add	r2,r2,r17
   21000:	11800015 	stw	r6,0(r2)
		alt_printf("Bin %x: %x \n", i, histogram[i]);
   21004:	800b883a 	mov	r5,r16
   21008:	21117304 	addi	r4,r4,17868
   2100c:	0023e8c0 	call	23e8c <alt_printf>
	IOWR(COM_COUNTER_0_BASE, THRESH_Y, 64);
	IOWR(COLOR_FILTER_0_BASE, APPLY_MASK, 0);
	wait_sop();
	wait_eop();

	for (int i = 0; i<20; i++){
   21010:	84000044 	addi	r16,r16,1
   21014:	00800504 	movi	r2,20
   21018:	80bff21e 	bne	r16,r2,20fe4 <__alt_data_end+0xfffe3b24>
		alt_printf("Bin %x: %x \n", i, histogram[i]);
	}

	//fir_load_avg();
	return;
}
   2101c:	dfc00417 	ldw	ra,16(sp)
   21020:	dcc00317 	ldw	r19,12(sp)
   21024:	dc800217 	ldw	r18,8(sp)
   21028:	dc400117 	ldw	r17,4(sp)
   2102c:	dc000017 	ldw	r16,0(sp)
   21030:	dec00504 	addi	sp,sp,20
   21034:	f800283a 	ret

00021038 <print_image>:

void print_image(int dest){
   21038:	defff604 	addi	sp,sp,-40
   2103c:	dcc00315 	stw	r19,12(sp)
   21040:	dc800215 	stw	r18,8(sp)
	int x = 0;
	int y = 0;
	int burst = 0;

	for(int i = 0; i <60*80; i++){
		IOWR(PIXEL_BUFFER_0_BASE, 5000, 1);
   21044:	04c00134 	movhi	r19,4
   21048:	04800044 	movi	r18,1

	//fir_load_avg();
	return;
}

void print_image(int dest){
   2104c:	ddc00715 	stw	r23,28(sp)
   21050:	dd800615 	stw	r22,24(sp)
   21054:	dd400515 	stw	r21,20(sp)
   21058:	dd000415 	stw	r20,16(sp)
   2105c:	dc400115 	stw	r17,4(sp)
   21060:	dc000015 	stw	r16,0(sp)
   21064:	dfc00915 	stw	ra,36(sp)
   21068:	df000815 	stw	fp,32(sp)
   2106c:	0444b004 	movi	r17,4800
	int x = 0;
	int y = 0;
	int burst = 0;
   21070:	002f883a 	mov	r23,zero
	return;
}

void print_image(int dest){
	int x = 0;
	int y = 0;
   21074:	0021883a 	mov	r16,zero
	//fir_load_avg();
	return;
}

void print_image(int dest){
	int x = 0;
   21078:	002d883a 	mov	r22,zero
	int y = 0;
	int burst = 0;

	for(int i = 0; i <60*80; i++){
		IOWR(PIXEL_BUFFER_0_BASE, 5000, 1);
   2107c:	9cd38804 	addi	r19,r19,20000
		alt_u32 pixel =(IORD(PIXEL_BUFFER_0_BASE, 64*x + y));
   21080:	05000134 	movhi	r20,4
   21084:	902b883a 	mov	r21,r18
	int x = 0;
	int y = 0;
	int burst = 0;

	for(int i = 0; i <60*80; i++){
		IOWR(PIXEL_BUFFER_0_BASE, 5000, 1);
   21088:	9c800035 	stwio	r18,0(r19)
		alt_u32 pixel =(IORD(PIXEL_BUFFER_0_BASE, 64*x + y));
   2108c:	b00491ba 	slli	r2,r22,6
   21090:	1405883a 	add	r2,r2,r16
   21094:	1085883a 	add	r2,r2,r2
   21098:	1085883a 	add	r2,r2,r2
   2109c:	1505883a 	add	r2,r2,r20
   210a0:	17000037 	ldwio	fp,0(r2)
		char upper = (pixel & 0xf0)>>4;
		char lower = (pixel & 0x0f);

		alt_putchar(97 + upper);
   210a4:	e1003c0c 	andi	r4,fp,240
   210a8:	2008d13a 	srli	r4,r4,4
		alt_putchar(97 + lower);

		burst++;
   210ac:	bdc00044 	addi	r23,r23,1
		IOWR(PIXEL_BUFFER_0_BASE, 5000, 1);
		alt_u32 pixel =(IORD(PIXEL_BUFFER_0_BASE, 64*x + y));
		char upper = (pixel & 0xf0)>>4;
		char lower = (pixel & 0x0f);

		alt_putchar(97 + upper);
   210b0:	21001844 	addi	r4,r4,97
   210b4:	0023ffc0 	call	23ffc <alt_putchar>
		alt_putchar(97 + lower);
   210b8:	e10003cc 	andi	r4,fp,15
   210bc:	21001844 	addi	r4,r4,97
   210c0:	0023ffc0 	call	23ffc <alt_putchar>

		burst++;
		if (burst == 30){
   210c4:	00800784 	movi	r2,30
   210c8:	b8800c1e 	bne	r23,r2,210fc <print_image+0xc4>
			burst = 0;
			if (y == 59 && x > 50){
   210cc:	00800ec4 	movi	r2,59
   210d0:	8080041e 	bne	r16,r2,210e4 <print_image+0xac>
   210d4:	00800c84 	movi	r2,50
   210d8:	1580020e 	bge	r2,r22,210e4 <print_image+0xac>
				alt_putchar('\n');
   210dc:	01000284 	movi	r4,10
   210e0:	00000106 	br	210e8 <print_image+0xb0>
			}else {
				alt_putchar(',');
   210e4:	01000b04 	movi	r4,44
   210e8:	0023ffc0 	call	23ffc <alt_putchar>
			}
//			while(alt_getchar() != 'A'){
//				usleep(10);
//			}
			IOWR(PIXEL_BUFFER_0_BASE, 5000, 1);
   210ec:	00800134 	movhi	r2,4
   210f0:	10938804 	addi	r2,r2,20000
   210f4:	15400035 	stwio	r21,0(r2)
		alt_putchar(97 + upper);
		alt_putchar(97 + lower);

		burst++;
		if (burst == 30){
			burst = 0;
   210f8:	002f883a 	mov	r23,zero
		}



		//XY indexing
		x = x+1;
   210fc:	b5800044 	addi	r22,r22,1
		if (x == 80){
   21100:	00801404 	movi	r2,80
   21104:	b080021e 	bne	r22,r2,21110 <print_image+0xd8>
			x = 0;
			y = y + 1;
   21108:	84000044 	addi	r16,r16,1


		//XY indexing
		x = x+1;
		if (x == 80){
			x = 0;
   2110c:	002d883a 	mov	r22,zero
   21110:	8c7fffc4 	addi	r17,r17,-1
void print_image(int dest){
	int x = 0;
	int y = 0;
	int burst = 0;

	for(int i = 0; i <60*80; i++){
   21114:	883fdc1e 	bne	r17,zero,21088 <__alt_data_end+0xfffe3bc8>
			x = 0;
			y = y + 1;
		}
	}
	return;
}
   21118:	dfc00917 	ldw	ra,36(sp)
   2111c:	df000817 	ldw	fp,32(sp)
   21120:	ddc00717 	ldw	r23,28(sp)
   21124:	dd800617 	ldw	r22,24(sp)
   21128:	dd400517 	ldw	r21,20(sp)
   2112c:	dd000417 	ldw	r20,16(sp)
   21130:	dcc00317 	ldw	r19,12(sp)
   21134:	dc800217 	ldw	r18,8(sp)
   21138:	dc400117 	ldw	r17,4(sp)
   2113c:	dc000017 	ldw	r16,0(sp)
   21140:	dec00a04 	addi	sp,sp,40
   21144:	f800283a 	ret

00021148 <main>:


int main()
{
   21148:	defff604 	addi	sp,sp,-40
	int rgb, hsv;
	//Sets stdin to nonblocking
	fcntl(STDIN_FILENO, F_SETFL, O_NONBLOCK);
   2114c:	01900004 	movi	r6,16384
   21150:	01400104 	movi	r5,4
   21154:	0009883a 	mov	r4,zero
	return;
}


int main()
{
   21158:	dfc00915 	stw	ra,36(sp)
   2115c:	dc800215 	stw	r18,8(sp)
   21160:	df000815 	stw	fp,32(sp)
   21164:	ddc00715 	stw	r23,28(sp)
   21168:	dd800615 	stw	r22,24(sp)
   2116c:	dd400515 	stw	r21,20(sp)
   21170:	dd000415 	stw	r20,16(sp)
   21174:	dcc00315 	stw	r19,12(sp)
   21178:	dc400115 	stw	r17,4(sp)
   2117c:	dc000015 	stw	r16,0(sp)
	int rgb, hsv;
	//Sets stdin to nonblocking
	fcntl(STDIN_FILENO, F_SETFL, O_NONBLOCK);
   21180:	0023c840 	call	23c84 <fcntl>

  printf("Imperial College EEE2 Project version\n");
   21184:	010000b4 	movhi	r4,2
   21188:	21117704 	addi	r4,r4,17884
  IOWR(MIPI_PWDN_N_BASE, 0x00, 0x00);
   2118c:	04800174 	movhi	r18,5
{
	int rgb, hsv;
	//Sets stdin to nonblocking
	fcntl(STDIN_FILENO, F_SETFL, O_NONBLOCK);

  printf("Imperial College EEE2 Project version\n");
   21190:	0022d0c0 	call	22d0c <puts>
  IOWR(MIPI_PWDN_N_BASE, 0x00, 0x00);
   21194:	9486ac04 	addi	r18,r18,6832
   21198:	90000035 	stwio	zero,0(r18)
  IOWR(MIPI_RESET_N_BASE, 0x00, 0x00);
   2119c:	04000174 	movhi	r16,5
   211a0:	8406b004 	addi	r16,r16,6848
   211a4:	80000035 	stwio	zero,0(r16)

  usleep(2000);
   211a8:	0101f404 	movi	r4,2000
   211ac:	002417c0 	call	2417c <usleep>
  IOWR(MIPI_PWDN_N_BASE, 0x00, 0xFF);
   211b0:	04403fc4 	movi	r17,255
   211b4:	94400035 	stwio	r17,0(r18)
  usleep(2000);
   211b8:	0101f404 	movi	r4,2000
   211bc:	002417c0 	call	2417c <usleep>
  IOWR(MIPI_RESET_N_BASE, 0x00, 0xFF);
   211c0:	84400035 	stwio	r17,0(r16)

  usleep(2000);
   211c4:	0101f404 	movi	r4,2000
   211c8:	002417c0 	call	2417c <usleep>


  // MIPI Init
   if (!MIPI_Init()){
   211cc:	002209c0 	call	2209c <MIPI_Init>
   211d0:	1000031e 	bne	r2,zero,211e0 <main+0x98>
	  printf("MIPI_Init Init failed!\r\n");
   211d4:	010000b4 	movhi	r4,2
   211d8:	21118104 	addi	r4,r4,17924
   211dc:	00000206 	br	211e8 <main+0xa0>
  }else{
	  printf("MIPI_Init Init successfully!\r\n");
   211e0:	010000b4 	movhi	r4,2
   211e4:	21118704 	addi	r4,r4,17948
   211e8:	0022d0c0 	call	22d0c <puts>
  }

	mipi_clear_error();
   211ec:	0021e2c0 	call	21e2c <mipi_clear_error>
	usleep(50*1000);
   211f0:	0130d414 	movui	r4,50000
   211f4:	002417c0 	call	2417c <usleep>
	mipi_clear_error();
   211f8:	0021e2c0 	call	21e2c <mipi_clear_error>
	usleep(1000*1000);
   211fc:	010003f4 	movhi	r4,15
   21200:	21109004 	addi	r4,r4,16960
   21204:	002417c0 	call	2417c <usleep>
	mipi_show_error_info();
   21208:	0021ed80 	call	21ed8 <mipi_show_error_info>
	printf("\n");
   2120c:	01000284 	movi	r4,10
   21210:	0022c700 	call	22c70 <putchar>

//Camera parameters initialization
//////////////////////////////////////////////////////////

	OV8865SetExposure(EXPOSURE_INIT);
   21214:	01088004 	movi	r4,8704
   21218:	00216e80 	call	216e8 <OV8865SetExposure>

	//Manual calibration
	OV8865SetGain(926);
   2121c:	0100e784 	movi	r4,926
   21220:	00217880 	call	21788 <OV8865SetGain>
	OV8865SetRedGain(930);
   21224:	0100e884 	movi	r4,930
   21228:	00218800 	call	21880 <OV8865SetRedGain>
	OV8865SetGreenGain(800);
   2122c:	0100c804 	movi	r4,800
   21230:	00219200 	call	21920 <OV8865SetGreenGain>
	OV8865SetBlueGain(1222);
   21234:	01013184 	movi	r4,1222


////////////////////////////////////////////////////////////////

	//Apply HSV transform
	IOWR(RGB_TO_HSV_BASE, HSV_ENABLED, 0x0);
   21238:	04800174 	movhi	r18,5

	//Manual calibration
	OV8865SetGain(926);
	OV8865SetRedGain(930);
	OV8865SetGreenGain(800);
	OV8865SetBlueGain(1222);
   2123c:	00219c00 	call	219c0 <OV8865SetBlueGain>


////////////////////////////////////////////////////////////////

	//Apply HSV transform
	IOWR(RGB_TO_HSV_BASE, HSV_ENABLED, 0x0);
   21240:	94864004 	addi	r18,r18,6400
   21244:	90000035 	stwio	zero,0(r18)

	//Color filter setup
	IOWR(COLOR_FILTER_0_BASE, APPLY_MASK, 0);
   21248:	04000174 	movhi	r16,5
   2124c:	84066204 	addi	r16,r16,6536
   21250:	80000035 	stwio	zero,0(r16)

	//COM counter setup
	IOWR(COM_COUNTER_0_BASE, THRESH_ENABLED, 0);
   21254:	04c00174 	movhi	r19,5
   21258:	9cc65804 	addi	r19,r19,6496
   2125c:	98000035 	stwio	zero,0(r19)
	IOWR(COM_COUNTER_0_BASE, THRESH_Y, 200);
   21260:	05000174 	movhi	r20,5
   21264:	a5065904 	addi	r20,r20,6500
   21268:	00803204 	movi	r2,200
   2126c:	a0800035 	stwio	r2,0(r20)

	//Force disable center dots
	IOWR(PIXEL_GRABBER_HSV_BASE, GRAB_INDICATOR, 0);
   21270:	00800174 	movhi	r2,5
   21274:	10862204 	addi	r2,r2,6280
   21278:	10000035 	stwio	zero,0(r2)
	IOWR(PIXEL_GRABBER_RGB_BASE, GRAB_INDICATOR, 0);
   2127c:	00800174 	movhi	r2,5
   21280:	10863204 	addi	r2,r2,6344
   21284:	10000035 	stwio	zero,0(r2)

	fir_load_unit();
   21288:	0020d1c0 	call	20d1c <fir_load_unit>
	//fir_load_avg();
	//fir_load_sobel();

	usleep(100000);
   2128c:	010000b4 	movhi	r4,2
   21290:	2121a804 	addi	r4,r4,-31072
   21294:	002417c0 	call	2417c <usleep>
	print_image(0);
   21298:	0009883a 	mov	r4,zero
   2129c:	00210380 	call	21038 <print_image>

	get_building_hist();
   212a0:	0020f880 	call	20f88 <get_building_hist>




	//Initialize observation data structures
	observations = initialize_observations();
   212a4:	002213c0 	call	2213c <initialize_observations>



  while(1){
	   //Read Pixel Grab
	   rgb = IORD(PIXEL_GRABBER_RGB_BASE, GRAB_VALUE);
   212a8:	05400174 	movhi	r21,5
	   hsv = IORD(PIXEL_GRABBER_HSV_BASE, GRAB_VALUE);
   212ac:	05800174 	movhi	r22,5
	   	//Apply HSV transform
	   	IOWR(RGB_TO_HSV_BASE, HSV_ENABLED, 0x1);

		//Color filter setup
		IOWR(COLOR_FILTER_0_BASE, APPLY_MASK, 1);
		IOWR(COLOR_FILTER_0_BASE, THRESHOLD_LOW, observations[observation_idx].mask_bottom);
   212b0:	05c00174 	movhi	r23,5
		IOWR(COLOR_FILTER_0_BASE, THRESHOLD_HIGH, observations[observation_idx].mask_top);
   212b4:	07000174 	movhi	fp,5




	//Initialize observation data structures
	observations = initialize_observations();
   212b8:	d0a07215 	stw	r2,-32312(gp)
	int observation_idx = 2;
   212bc:	04400084 	movi	r17,2



  while(1){
	   //Read Pixel Grab
	   rgb = IORD(PIXEL_GRABBER_RGB_BASE, GRAB_VALUE);
   212c0:	ad463104 	addi	r21,r21,6340
	   hsv = IORD(PIXEL_GRABBER_HSV_BASE, GRAB_VALUE);
   212c4:	b5862104 	addi	r22,r22,6276
	   	//Apply HSV transform
	   	IOWR(RGB_TO_HSV_BASE, HSV_ENABLED, 0x1);

		//Color filter setup
		IOWR(COLOR_FILTER_0_BASE, APPLY_MASK, 1);
		IOWR(COLOR_FILTER_0_BASE, THRESHOLD_LOW, observations[observation_idx].mask_bottom);
   212c8:	bdc66004 	addi	r23,r23,6528
		IOWR(COLOR_FILTER_0_BASE, THRESHOLD_HIGH, observations[observation_idx].mask_top);
   212cc:	e7066104 	addi	fp,fp,6532



  while(1){
	   //Read Pixel Grab
	   rgb = IORD(PIXEL_GRABBER_RGB_BASE, GRAB_VALUE);
   212d0:	a9000037 	ldwio	r4,0(r21)
	   hsv = IORD(PIXEL_GRABBER_HSV_BASE, GRAB_VALUE);
	   print_as_rgb(rgb, hsv);
   212d4:	b1400037 	ldwio	r5,0(r22)
	   //Update observation parameters

	   	printf("Collecting %c \n", observations[observation_idx].code );

	   	//Apply HSV transform
	   	IOWR(RGB_TO_HSV_BASE, HSV_ENABLED, 0x1);
   212d8:	04800044 	movi	r18,1

  while(1){
	   //Read Pixel Grab
	   rgb = IORD(PIXEL_GRABBER_RGB_BASE, GRAB_VALUE);
	   hsv = IORD(PIXEL_GRABBER_HSV_BASE, GRAB_VALUE);
	   print_as_rgb(rgb, hsv);
   212dc:	00227580 	call	22758 <print_as_rgb>



	   //Update observation parameters

	   	printf("Collecting %c \n", observations[observation_idx].code );
   212e0:	8c000b24 	muli	r16,r17,44
   212e4:	d0a07217 	ldw	r2,-32312(gp)
   212e8:	010000b4 	movhi	r4,2
   212ec:	21118f04 	addi	r4,r4,17980
   212f0:	1405883a 	add	r2,r2,r16
   212f4:	11400007 	ldb	r5,0(r2)
   212f8:	0022c1c0 	call	22c1c <printf>

	   	//Apply HSV transform
	   	IOWR(RGB_TO_HSV_BASE, HSV_ENABLED, 0x1);
   212fc:	00800174 	movhi	r2,5
   21300:	10864004 	addi	r2,r2,6400
   21304:	14800035 	stwio	r18,0(r2)

		//Color filter setup
		IOWR(COLOR_FILTER_0_BASE, APPLY_MASK, 1);
   21308:	00800174 	movhi	r2,5
   2130c:	10866204 	addi	r2,r2,6536
   21310:	14800035 	stwio	r18,0(r2)
		IOWR(COLOR_FILTER_0_BASE, THRESHOLD_LOW, observations[observation_idx].mask_bottom);
   21314:	d0a07217 	ldw	r2,-32312(gp)
   21318:	1405883a 	add	r2,r2,r16
   2131c:	10800117 	ldw	r2,4(r2)
   21320:	b8800035 	stwio	r2,0(r23)
		IOWR(COLOR_FILTER_0_BASE, THRESHOLD_HIGH, observations[observation_idx].mask_top);
   21324:	d0a07217 	ldw	r2,-32312(gp)
   21328:	1405883a 	add	r2,r2,r16
   2132c:	10800217 	ldw	r2,8(r2)
   21330:	e0800035 	stwio	r2,0(fp)

		//Load filter
		if (observations[observation_idx].code == 'W' ){
   21334:	d0a07217 	ldw	r2,-32312(gp)
   21338:	00c015c4 	movi	r3,87
   2133c:	1405883a 	add	r2,r2,r16
   21340:	10800007 	ldb	r2,0(r2)
   21344:	10c0021e 	bne	r2,r3,21350 <main+0x208>
			fir_load_sobel();
   21348:	0020e440 	call	20e44 <fir_load_sobel>
   2134c:	00000506 	br	21364 <main+0x21c>
		}else if (observations[observation_idx].code == 'X'){
   21350:	00c01604 	movi	r3,88
   21354:	10c0021e 	bne	r2,r3,21360 <main+0x218>
			fir_load_inv_sobel();
   21358:	0020edc0 	call	20edc <fir_load_inv_sobel>
   2135c:	00000106 	br	21364 <main+0x21c>
		} else {
			fir_load_avg();
   21360:	0020db40 	call	20db4 <fir_load_avg>
		}

		//COM counter setup
		IOWR(COM_COUNTER_0_BASE, THRESH_ENABLED, 1);
   21364:	9c800035 	stwio	r18,0(r19)
		IOWR(COM_COUNTER_0_BASE, THRESH_Y, 200);
   21368:	00803204 	movi	r2,200
   2136c:	a0800035 	stwio	r2,0(r20)
		IOWR(COM_COUNTER_0_BASE, THRESHOLD_GATE, observations[observation_idx].threshold);
   21370:	d0a07217 	ldw	r2,-32312(gp)
   21374:	1405883a 	add	r2,r2,r16
   21378:	10c00317 	ldw	r3,12(r2)
   2137c:	00800174 	movhi	r2,5
   21380:	10865004 	addi	r2,r2,6464
   21384:	10c00035 	stwio	r3,0(r2)


		//Wait two frame times
		usleep(100000);
   21388:	010000b4 	movhi	r4,2
   2138c:	2121a804 	addi	r4,r4,-31072
   21390:	002417c0 	call	2417c <usleep>


		//Collect results
		observations[observation_idx].mass = IORD(COM_COUNTER_0_BASE, COM_MASS);
   21394:	d0a07217 	ldw	r2,-32312(gp)
   21398:	1421883a 	add	r16,r2,r16
   2139c:	00800174 	movhi	r2,5
   213a0:	10865304 	addi	r2,r2,6476
   213a4:	14800037 	ldwio	r18,0(r2)
		observations[observation_idx].com_x = IORD(COM_COUNTER_0_BASE, COM_X)/observations[observation_idx].mass;
   213a8:	00800174 	movhi	r2,5
   213ac:	10865104 	addi	r2,r2,6468
		//Wait two frame times
		usleep(100000);


		//Collect results
		observations[observation_idx].mass = IORD(COM_COUNTER_0_BASE, COM_MASS);
   213b0:	84800615 	stw	r18,24(r16)
		observations[observation_idx].com_x = IORD(COM_COUNTER_0_BASE, COM_X)/observations[observation_idx].mass;
   213b4:	11000037 	ldwio	r4,0(r2)
   213b8:	900b883a 	mov	r5,r18
   213bc:	00227c80 	call	227c8 <__divsi3>
   213c0:	80800415 	stw	r2,16(r16)
		observations[observation_idx].com_y = IORD(COM_COUNTER_0_BASE, COM_Y)/observations[observation_idx].mass;
   213c4:	00800174 	movhi	r2,5
   213c8:	10865204 	addi	r2,r2,6472
   213cc:	11000037 	ldwio	r4,0(r2)
   213d0:	900b883a 	mov	r5,r18
   213d4:	00227c80 	call	227c8 <__divsi3>
   213d8:	80800515 	stw	r2,20(r16)

		observations[observation_idx].bb_left = IORD(COM_COUNTER_0_BASE, BB_LOW_X);
   213dc:	00800174 	movhi	r2,5
   213e0:	10865404 	addi	r2,r2,6480
   213e4:	10800037 	ldwio	r2,0(r2)
   213e8:	80800715 	stw	r2,28(r16)
		observations[observation_idx].bb_top = IORD(COM_COUNTER_0_BASE, BB_LOW_Y);
   213ec:	00800174 	movhi	r2,5
   213f0:	10865504 	addi	r2,r2,6484
   213f4:	10800037 	ldwio	r2,0(r2)
   213f8:	80800815 	stw	r2,32(r16)
		observations[observation_idx].bb_right = IORD(COM_COUNTER_0_BASE, BB_HIGH_X);
   213fc:	00800174 	movhi	r2,5
   21400:	10865604 	addi	r2,r2,6488
   21404:	10800037 	ldwio	r2,0(r2)
   21408:	80800915 	stw	r2,36(r16)
		observations[observation_idx].bb_bottom = IORD(COM_COUNTER_0_BASE, BB_HIGH_Y);
   2140c:	00800174 	movhi	r2,5
   21410:	10865704 	addi	r2,r2,6492
   21414:	10800037 	ldwio	r2,0(r2)
   21418:	80800a15 	stw	r2,40(r16)
			//merge
		}

		//Merge together
	   observation_idx++;
	   if (observation_idx == number_observations)observation_idx = 1;
   2141c:	d0a00417 	ldw	r2,-32752(gp)
		if (observations[observation_idx].code == 'X'){
			//merge
		}

		//Merge together
	   observation_idx++;
   21420:	8c400044 	addi	r17,r17,1
	   if (observation_idx == number_observations)observation_idx = 1;
   21424:	8880011e 	bne	r17,r2,2142c <main+0x2e4>
   21428:	04400044 	movi	r17,1
//
//		   printf("Got rready\n");
//		   print_observations(fp, observations);
//	   }

	   process_input();
   2142c:	0020b100 	call	20b10 <process_input>



  }
   21430:	003fa706 	br	212d0 <__alt_data_end+0xfffe3e10>

00021434 <nSWAP16>:
	//y =  (((x) >> 8) & 0xff) | (((x) & 0xff) << 8);

//	y = x;
	y = (x >> 8) & 0x00ff;
	y |= (x << 8) & 0xff00;
	return y;
   21434:	2004923a 	slli	r2,r4,8
   21438:	213fffcc 	andi	r4,r4,65535
   2143c:	2008d23a 	srli	r4,r4,8
}
   21440:	1104b03a 	or	r2,r2,r4
   21444:	f800283a 	ret

00021448 <MipiBridgeRegWrite>:


void MipiBridgeRegWrite(alt_u16 Addr, alt_u16 Value){
   21448:	defffd04 	addi	sp,sp,-12
	const alt_u8 device_address = MIPI_BRIDGE_I2C_ADDR;
	OC_I2CL_Write(I2C_OPENCORES_MIPI_BASE, device_address, Addr, (alt_u8 *)&Value, sizeof(Value));
   2144c:	21bfffcc 	andi	r6,r4,65535
   21450:	00800084 	movi	r2,2
   21454:	01000174 	movhi	r4,5
	y |= (x << 8) & 0xff00;
	return y;
}


void MipiBridgeRegWrite(alt_u16 Addr, alt_u16 Value){
   21458:	d940010d 	sth	r5,4(sp)
	const alt_u8 device_address = MIPI_BRIDGE_I2C_ADDR;
	OC_I2CL_Write(I2C_OPENCORES_MIPI_BASE, device_address, Addr, (alt_u8 *)&Value, sizeof(Value));
   2145c:	d8800015 	stw	r2,0(sp)
   21460:	d9c00104 	addi	r7,sp,4
   21464:	01400704 	movi	r5,28
   21468:	21069804 	addi	r4,r4,6752
	y |= (x << 8) & 0xff00;
	return y;
}


void MipiBridgeRegWrite(alt_u16 Addr, alt_u16 Value){
   2146c:	dfc00215 	stw	ra,8(sp)
	const alt_u8 device_address = MIPI_BRIDGE_I2C_ADDR;
	OC_I2CL_Write(I2C_OPENCORES_MIPI_BASE, device_address, Addr, (alt_u8 *)&Value, sizeof(Value));
   21470:	00205b00 	call	205b0 <OC_I2CL_Write>
}
   21474:	dfc00217 	ldw	ra,8(sp)
   21478:	dec00304 	addi	sp,sp,12
   2147c:	f800283a 	ret

00021480 <MipiBridgeRegRead>:

alt_u16 MipiBridgeRegRead(alt_u16 Addr){
   21480:	defffd04 	addi	sp,sp,-12
	alt_u16 Value,tValue;
	const alt_u8 device_address = MIPI_BRIDGE_I2C_ADDR;

	OC_I2CL_Read(I2C_OPENCORES_MIPI_BASE,device_address, Addr,(alt_u8 *)&Value,sizeof(Value));
   21484:	21bfffcc 	andi	r6,r4,65535
   21488:	00800084 	movi	r2,2
   2148c:	01000174 	movhi	r4,5
   21490:	d8800015 	stw	r2,0(sp)
   21494:	d9c00104 	addi	r7,sp,4
   21498:	01400704 	movi	r5,28
   2149c:	21069804 	addi	r4,r4,6752
void MipiBridgeRegWrite(alt_u16 Addr, alt_u16 Value){
	const alt_u8 device_address = MIPI_BRIDGE_I2C_ADDR;
	OC_I2CL_Write(I2C_OPENCORES_MIPI_BASE, device_address, Addr, (alt_u8 *)&Value, sizeof(Value));
}

alt_u16 MipiBridgeRegRead(alt_u16 Addr){
   214a0:	dfc00215 	stw	ra,8(sp)
	alt_u16 Value,tValue;
	const alt_u8 device_address = MIPI_BRIDGE_I2C_ADDR;

	OC_I2CL_Read(I2C_OPENCORES_MIPI_BASE,device_address, Addr,(alt_u8 *)&Value,sizeof(Value));
   214a4:	00206e40 	call	206e4 <OC_I2CL_Read>

	tValue = nSWAP16(Value);

	return (tValue);
   214a8:	d8c0010b 	ldhu	r3,4(sp)
   214ac:	1804923a 	slli	r2,r3,8
   214b0:	1806d23a 	srli	r3,r3,8
}
   214b4:	10c4b03a 	or	r2,r2,r3
   214b8:	dfc00217 	ldw	ra,8(sp)
   214bc:	dec00304 	addi	sp,sp,12
   214c0:	f800283a 	ret

000214c4 <MipiBridgeInit>:
void MipiBridgeInit(void){

	alt_u16 data;
    int i, num;

	printf("\nStart MipiBridgeInit!\n");
   214c4:	010000b4 	movhi	r4,2
}




void MipiBridgeInit(void){
   214c8:	defffa04 	addi	sp,sp,-24

	alt_u16 data;
    int i, num;

	printf("\nStart MipiBridgeInit!\n");
   214cc:	21119304 	addi	r4,r4,17996
}




void MipiBridgeInit(void){
   214d0:	dfc00515 	stw	ra,20(sp)
   214d4:	dd000415 	stw	r20,16(sp)
   214d8:	dcc00315 	stw	r19,12(sp)
   214dc:	dc800215 	stw	r18,8(sp)
   214e0:	dc400115 	stw	r17,4(sp)
   214e4:	dc000015 	stw	r16,0(sp)

	alt_u16 data;
    int i, num;

	printf("\nStart MipiBridgeInit!\n");
   214e8:	0022d0c0 	call	22d0c <puts>

	data = MipiBridgeRegRead(0x0000); // read chip and revision id;
   214ec:	0009883a 	mov	r4,zero
   214f0:	00214800 	call	21480 <MipiBridgeRegRead>

	printf("Chip and Revision ID is 0x%04xh(expected: 0x4401);\n",data);
   214f4:	010000b4 	movhi	r4,2
   214f8:	040000b4 	movhi	r16,2
   214fc:	117fffcc 	andi	r5,r2,65535
   21500:	21119904 	addi	r4,r4,18020
   21504:	8411ac04 	addi	r16,r16,18096
   21508:	0022c1c0 	call	22c1c <printf>
   2150c:	0023883a 	mov	r17,zero


    num = sizeof(MipiBridgeReg)/sizeof(MipiBridgeReg[0]);

    for(i=0;i<num;i++){
   	 if (MipiBridgeReg[i].Addr == 0xFFFF)   usleep(MipiBridgeReg[i].Data*1000);
   21510:	84ffff84 	addi	r19,r16,-2
   21514:	053fffd4 	movui	r20,65535
	printf("Chip and Revision ID is 0x%04xh(expected: 0x4401);\n",data);


    num = sizeof(MipiBridgeReg)/sizeof(MipiBridgeReg[0]);

    for(i=0;i<num;i++){
   21518:	04800d04 	movi	r18,52
   	 if (MipiBridgeReg[i].Addr == 0xFFFF)   usleep(MipiBridgeReg[i].Data*1000);
   2151c:	8cc5883a 	add	r2,r17,r19
   21520:	1100000b 	ldhu	r4,0(r2)
   21524:	2500041e 	bne	r4,r20,21538 <MipiBridgeInit+0x74>
   21528:	8100000b 	ldhu	r4,0(r16)
   2152c:	2100fa24 	muli	r4,r4,1000
   21530:	002417c0 	call	2417c <usleep>
   21534:	00000206 	br	21540 <MipiBridgeInit+0x7c>
        else MipiBridgeRegWrite(MipiBridgeReg[i].Addr,  MipiBridgeReg[i].Data);
   21538:	8140000b 	ldhu	r5,0(r16)
   2153c:	00214480 	call	21448 <MipiBridgeRegWrite>
   21540:	8c400104 	addi	r17,r17,4
   21544:	84000104 	addi	r16,r16,4
	printf("Chip and Revision ID is 0x%04xh(expected: 0x4401);\n",data);


    num = sizeof(MipiBridgeReg)/sizeof(MipiBridgeReg[0]);

    for(i=0;i<num;i++){
   21548:	8cbff41e 	bne	r17,r18,2151c <__alt_data_end+0xfffe405c>
//     MipiBridgeRegWrite(0x005A,((cap<<6) + (HsRxRs<<4) + ClkDly_data));
//     MipiBridgeRegWrite(0x005C,((cap<<6) + (HsRxRs<<4) + ClkDly_data));
//     MipiBridgeRegWrite(0x005E,((cap<<6) + (HsRxRs<<4) + ClkDly_data));
//

    printf("End MipiBridgeInit!\n\n");
   2154c:	010000b4 	movhi	r4,2
   21550:	2111a604 	addi	r4,r4,18072

}
   21554:	dfc00517 	ldw	ra,20(sp)
   21558:	dd000417 	ldw	r20,16(sp)
   2155c:	dcc00317 	ldw	r19,12(sp)
   21560:	dc800217 	ldw	r18,8(sp)
   21564:	dc400117 	ldw	r17,4(sp)
   21568:	dc000017 	ldw	r16,0(sp)
   2156c:	dec00604 	addi	sp,sp,24
//     MipiBridgeRegWrite(0x005A,((cap<<6) + (HsRxRs<<4) + ClkDly_data));
//     MipiBridgeRegWrite(0x005C,((cap<<6) + (HsRxRs<<4) + ClkDly_data));
//     MipiBridgeRegWrite(0x005E,((cap<<6) + (HsRxRs<<4) + ClkDly_data));
//

    printf("End MipiBridgeInit!\n\n");
   21570:	0022d0c1 	jmpi	22d0c <puts>

00021574 <OV8865_read_cmos_sensor_8>:
   };




alt_u8 OV8865_read_cmos_sensor_8(alt_u16 Addr){
   21574:	defffd04 	addi	sp,sp,-12
	const alt_u8 device_address = MIPI_I2C_ADDR;
	alt_u8 Value;

	//OC_I2CL_Write(I2C_OPENCORES_CAMERA_BASE, device_address, SWAP16(Addr), (alt_u8 *)&Value, sizeof(Value));
	OC_I2CL_Read(I2C_OPENCORES_CAMERA_BASE, device_address, Addr, (alt_u8 *)&Value, sizeof(Value));
   21578:	21bfffcc 	andi	r6,r4,65535
   2157c:	00800044 	movi	r2,1
   21580:	01000174 	movhi	r4,5
   21584:	d8800015 	stw	r2,0(sp)
   21588:	d9c00104 	addi	r7,sp,4
   2158c:	01401b04 	movi	r5,108
   21590:	21069004 	addi	r4,r4,6720
   };




alt_u8 OV8865_read_cmos_sensor_8(alt_u16 Addr){
   21594:	dfc00215 	stw	ra,8(sp)
	const alt_u8 device_address = MIPI_I2C_ADDR;
	alt_u8 Value;

	//OC_I2CL_Write(I2C_OPENCORES_CAMERA_BASE, device_address, SWAP16(Addr), (alt_u8 *)&Value, sizeof(Value));
	OC_I2CL_Read(I2C_OPENCORES_CAMERA_BASE, device_address, Addr, (alt_u8 *)&Value, sizeof(Value));
   21598:	00206e40 	call	206e4 <OC_I2CL_Read>

	return (Value);
}
   2159c:	d8800103 	ldbu	r2,4(sp)
   215a0:	dfc00217 	ldw	ra,8(sp)
   215a4:	dec00304 	addi	sp,sp,12
   215a8:	f800283a 	ret

000215ac <OV8865_write_cmos_sensor_8>:


void OV8865_write_cmos_sensor_8(alt_u16 Addr, alt_u8 Value){
   215ac:	defffd04 	addi	sp,sp,-12
	const alt_u8 device_address = MIPI_I2C_ADDR;
	//OC_I2CL_Write(I2C_OPENCORES_CAMERA_BASE, device_address, SWAP16(Addr), (alt_u8 *)&Value, sizeof(Value));
	OC_I2CL_Write(I2C_OPENCORES_CAMERA_BASE, device_address, Addr, (alt_u8 *)&Value, sizeof(Value));
   215b0:	21bfffcc 	andi	r6,r4,65535
   215b4:	00800044 	movi	r2,1
   215b8:	01000174 	movhi	r4,5

	return (Value);
}


void OV8865_write_cmos_sensor_8(alt_u16 Addr, alt_u8 Value){
   215bc:	d9400105 	stb	r5,4(sp)
	const alt_u8 device_address = MIPI_I2C_ADDR;
	//OC_I2CL_Write(I2C_OPENCORES_CAMERA_BASE, device_address, SWAP16(Addr), (alt_u8 *)&Value, sizeof(Value));
	OC_I2CL_Write(I2C_OPENCORES_CAMERA_BASE, device_address, Addr, (alt_u8 *)&Value, sizeof(Value));
   215c0:	d8800015 	stw	r2,0(sp)
   215c4:	d9c00104 	addi	r7,sp,4
   215c8:	01401b04 	movi	r5,108
   215cc:	21069004 	addi	r4,r4,6720

	return (Value);
}


void OV8865_write_cmos_sensor_8(alt_u16 Addr, alt_u8 Value){
   215d0:	dfc00215 	stw	ra,8(sp)
	const alt_u8 device_address = MIPI_I2C_ADDR;
	//OC_I2CL_Write(I2C_OPENCORES_CAMERA_BASE, device_address, SWAP16(Addr), (alt_u8 *)&Value, sizeof(Value));
	OC_I2CL_Write(I2C_OPENCORES_CAMERA_BASE, device_address, Addr, (alt_u8 *)&Value, sizeof(Value));
   215d4:	00205b00 	call	205b0 <OC_I2CL_Write>
}
   215d8:	dfc00217 	ldw	ra,8(sp)
   215dc:	dec00304 	addi	sp,sp,12
   215e0:	f800283a 	ret

000215e4 <OV8865_write_AF>:


void OV8865_write_AF(alt_u8 msb, alt_u8 lsb){
   215e4:	defffd04 	addi	sp,sp,-12
	// VCM149C
	const alt_u8 device_address = MIPI_AF_I2C_ADDR;
	OC_I2C_Write(I2C_OPENCORES_CAMERA_BASE, device_address, msb, (alt_u8 *)&lsb, sizeof(lsb));
   215e8:	21803fcc 	andi	r6,r4,255
   215ec:	00800044 	movi	r2,1
   215f0:	01000174 	movhi	r4,5
	//OC_I2CL_Write(I2C_OPENCORES_CAMERA_BASE, device_address, SWAP16(Addr), (alt_u8 *)&Value, sizeof(Value));
	OC_I2CL_Write(I2C_OPENCORES_CAMERA_BASE, device_address, Addr, (alt_u8 *)&Value, sizeof(Value));
}


void OV8865_write_AF(alt_u8 msb, alt_u8 lsb){
   215f4:	d9400105 	stb	r5,4(sp)
	// VCM149C
	const alt_u8 device_address = MIPI_AF_I2C_ADDR;
	OC_I2C_Write(I2C_OPENCORES_CAMERA_BASE, device_address, msb, (alt_u8 *)&lsb, sizeof(lsb));
   215f8:	d8800015 	stw	r2,0(sp)
   215fc:	d9c00104 	addi	r7,sp,4
   21600:	01400604 	movi	r5,24
   21604:	21069004 	addi	r4,r4,6720
	//OC_I2CL_Write(I2C_OPENCORES_CAMERA_BASE, device_address, SWAP16(Addr), (alt_u8 *)&Value, sizeof(Value));
	OC_I2CL_Write(I2C_OPENCORES_CAMERA_BASE, device_address, Addr, (alt_u8 *)&Value, sizeof(Value));
}


void OV8865_write_AF(alt_u8 msb, alt_u8 lsb){
   21608:	dfc00215 	stw	ra,8(sp)
	// VCM149C
	const alt_u8 device_address = MIPI_AF_I2C_ADDR;
	OC_I2C_Write(I2C_OPENCORES_CAMERA_BASE, device_address, msb, (alt_u8 *)&lsb, sizeof(lsb));
   2160c:	00202200 	call	20220 <OC_I2C_Write>
}
   21610:	dfc00217 	ldw	ra,8(sp)
   21614:	dec00304 	addi	sp,sp,12
   21618:	f800283a 	ret

0002161c <OV8865_read_AF>:

void OV8865_read_AF(void){
   2161c:	defffe04 	addi	sp,sp,-8
	// VCM149C
	const alt_u8 device_address = MIPI_AF_I2C_ADDR;
	alt_u8 szData8[2];
	bool bSuccess;

		bSuccess = OC_I2C_Read_Continue(I2C_OPENCORES_CAMERA_BASE, device_address, szData8, sizeof(szData8));
   21620:	01000174 	movhi	r4,5
   21624:	01c00084 	movi	r7,2
   21628:	d80d883a 	mov	r6,sp
   2162c:	01400604 	movi	r5,24
   21630:	21069004 	addi	r4,r4,6720
	// VCM149C
	const alt_u8 device_address = MIPI_AF_I2C_ADDR;
	OC_I2C_Write(I2C_OPENCORES_CAMERA_BASE, device_address, msb, (alt_u8 *)&lsb, sizeof(lsb));
}

void OV8865_read_AF(void){
   21634:	dfc00115 	stw	ra,4(sp)
	// VCM149C
	const alt_u8 device_address = MIPI_AF_I2C_ADDR;
	alt_u8 szData8[2];
	bool bSuccess;

		bSuccess = OC_I2C_Read_Continue(I2C_OPENCORES_CAMERA_BASE, device_address, szData8, sizeof(szData8));
   21638:	00204bc0 	call	204bc <OC_I2C_Read_Continue>
		if (bSuccess)
   2163c:	10000526 	beq	r2,zero,21654 <OV8865_read_AF+0x38>
			printf("Read MSB=%xh, LSB=%xh\r\n", szData8[0], szData8[1]);
   21640:	d9800043 	ldbu	r6,1(sp)
   21644:	d9400003 	ldbu	r5,0(sp)
   21648:	010000b4 	movhi	r4,2
   2164c:	2111b904 	addi	r4,r4,18148
   21650:	0022c1c0 	call	22c1c <printf>
}
   21654:	dfc00117 	ldw	ra,4(sp)
   21658:	dec00204 	addi	sp,sp,8
   2165c:	f800283a 	ret

00021660 <OV8865_FOCUS_Move_to>:


void OV8865_FOCUS_Move_to(alt_u16 a_u2MovePosition)
{
   21660:	defffe04 	addi	sp,sp,-8
   21664:	dc000015 	stw	r16,0(sp)
   21668:	dfc00115 	stw	ra,4(sp)
   2166c:	2021883a 	mov	r16,r4
   21670:	0080ffc4 	movi	r2,1023
   21674:	213fffcc 	andi	r4,r4,65535
   21678:	1100012e 	bgeu	r2,r4,21680 <OV8865_FOCUS_Move_to+0x20>
   2167c:	1021883a 	mov	r16,r2
  if (a_u2MovePosition > 1023)   {a_u2MovePosition = 1023;}
  if (a_u2MovePosition < 0)     {a_u2MovePosition = 0;}
  int bSuccess;

  Focus_Released(); // waiting for VCM release I2C bus
   21680:	00209580 	call	20958 <Focus_Released>

	bSuccess = oc_i2c_init_ex(I2C_OPENCORES_CAMERA_BASE, 50*1000*1000,400*1000); //I2C: 400K
   21684:	018001b4 	movhi	r6,6
   21688:	0140bef4 	movhi	r5,763
   2168c:	01000174 	movhi	r4,5
   21690:	3186a004 	addi	r6,r6,6784
   21694:	297c2004 	addi	r5,r5,-3968
   21698:	21069004 	addi	r4,r4,6720
   2169c:	00200a00 	call	200a0 <oc_i2c_init_ex>
	if (!bSuccess)
   216a0:	1000031e 	bne	r2,zero,216b0 <OV8865_FOCUS_Move_to+0x50>
		printf("failed to init MIPI- Camera i2c\r\n");
   216a4:	010000b4 	movhi	r4,2
   216a8:	2111bf04 	addi	r4,r4,18172
   216ac:	0022d0c0 	call	22d0c <puts>
  alt_u8 msb,lsb;
  msb = (a_u2MovePosition >> 4)&0x00FF;
  lsb = (a_u2MovePosition << 4 )&0x00F0;
  lsb += 0x06;
//	printf("Write MSB=%xh, LSB=%xh\r\n", msb, lsb);
	OV8865_write_AF(msb, lsb+0x6);
   216b0:	813fffcc 	andi	r4,r16,65535
   216b4:	200a913a 	slli	r5,r4,4
   216b8:	2008d13a 	srli	r4,r4,4
   216bc:	29400304 	addi	r5,r5,12
   216c0:	29403fcc 	andi	r5,r5,255
   216c4:	00215e40 	call	215e4 <OV8865_write_AF>
	usleep(1000);
   216c8:	0100fa04 	movi	r4,1000
   216cc:	002417c0 	call	2417c <usleep>
//	OV8865_read_AF();

	oc_i2c_uninit(I2C_OPENCORES_CAMERA_BASE);  // Release I2C bus , due to two I2C master shared!
   216d0:	01000174 	movhi	r4,5
   216d4:	21069004 	addi	r4,r4,6720

}
   216d8:	dfc00117 	ldw	ra,4(sp)
   216dc:	dc000017 	ldw	r16,0(sp)
   216e0:	dec00204 	addi	sp,sp,8
//	printf("Write MSB=%xh, LSB=%xh\r\n", msb, lsb);
	OV8865_write_AF(msb, lsb+0x6);
	usleep(1000);
//	OV8865_read_AF();

	oc_i2c_uninit(I2C_OPENCORES_CAMERA_BASE);  // Release I2C bus , due to two I2C master shared!
   216e4:	00201441 	jmpi	20144 <oc_i2c_uninit>

000216e8 <OV8865SetExposure>:

}

void OV8865SetExposure(alt_u32 exposure){
   216e8:	defffe04 	addi	sp,sp,-8
   216ec:	dc000015 	stw	r16,0(sp)
   216f0:	dfc00115 	stw	ra,4(sp)
   216f4:	2021883a 	mov	r16,r4

	Focus_Released(); // waiting for VCM release I2C bus
   216f8:	00209580 	call	20958 <Focus_Released>

	int bSuccess = oc_i2c_init_ex(I2C_OPENCORES_CAMERA_BASE, 50*1000*1000,400*1000); //I2C: 400K
   216fc:	018001b4 	movhi	r6,6
   21700:	0140bef4 	movhi	r5,763
   21704:	01000174 	movhi	r4,5
   21708:	3186a004 	addi	r6,r6,6784
   2170c:	297c2004 	addi	r5,r5,-3968
   21710:	21069004 	addi	r4,r4,6720
   21714:	00200a00 	call	200a0 <oc_i2c_init_ex>
	if (!bSuccess)
   21718:	1000031e 	bne	r2,zero,21728 <OV8865SetExposure+0x40>
		printf("failed to init MIPI- Camera i2c\r\n");
   2171c:	010000b4 	movhi	r4,2
   21720:	2111bf04 	addi	r4,r4,18172
   21724:	0022d0c0 	call	22d0c <puts>

	if (exposure > 0xFFFFF) exposure = 0xFFFFF;
   21728:	00800434 	movhi	r2,16
   2172c:	10bfffc4 	addi	r2,r2,-1
   21730:	14000436 	bltu	r2,r16,21744 <OV8865SetExposure+0x5c>
	if (exposure < 0x20) exposure = 0x20;
   21734:	008007c4 	movi	r2,31
   21738:	14000336 	bltu	r2,r16,21748 <OV8865SetExposure+0x60>
   2173c:	04000804 	movi	r16,32
   21740:	00000106 	br	21748 <OV8865SetExposure+0x60>

	int bSuccess = oc_i2c_init_ex(I2C_OPENCORES_CAMERA_BASE, 50*1000*1000,400*1000); //I2C: 400K
	if (!bSuccess)
		printf("failed to init MIPI- Camera i2c\r\n");

	if (exposure > 0xFFFFF) exposure = 0xFFFFF;
   21744:	1021883a 	mov	r16,r2
	if (exposure < 0x20) exposure = 0x20;

	OV8865_write_cmos_sensor_8(0x3500, (exposure >> 16) & 0x0F);
   21748:	800ad43a 	srli	r5,r16,16
   2174c:	010d4004 	movi	r4,13568
   21750:	00215ac0 	call	215ac <OV8865_write_cmos_sensor_8>
	OV8865_write_cmos_sensor_8(0x3501, (exposure >> 8) & 0xFF);
   21754:	800ad23a 	srli	r5,r16,8
   21758:	010d4044 	movi	r4,13569
   2175c:	29403fcc 	andi	r5,r5,255
   21760:	00215ac0 	call	215ac <OV8865_write_cmos_sensor_8>
	OV8865_write_cmos_sensor_8(0x3502, exposure & 0xFF);
   21764:	81403fcc 	andi	r5,r16,255
   21768:	010d4084 	movi	r4,13570
   2176c:	00215ac0 	call	215ac <OV8865_write_cmos_sensor_8>


	oc_i2c_uninit(I2C_OPENCORES_CAMERA_BASE);
   21770:	01000174 	movhi	r4,5
   21774:	21069004 	addi	r4,r4,6720
}
   21778:	dfc00117 	ldw	ra,4(sp)
   2177c:	dc000017 	ldw	r16,0(sp)
   21780:	dec00204 	addi	sp,sp,8
	OV8865_write_cmos_sensor_8(0x3500, (exposure >> 16) & 0x0F);
	OV8865_write_cmos_sensor_8(0x3501, (exposure >> 8) & 0xFF);
	OV8865_write_cmos_sensor_8(0x3502, exposure & 0xFF);


	oc_i2c_uninit(I2C_OPENCORES_CAMERA_BASE);
   21784:	00201441 	jmpi	20144 <oc_i2c_uninit>

00021788 <OV8865SetGain>:
}

void OV8865SetGain(alt_u16 gain){
   21788:	defffd04 	addi	sp,sp,-12
   2178c:	dc400115 	stw	r17,4(sp)
   21790:	dc000015 	stw	r16,0(sp)
   21794:	dfc00215 	stw	ra,8(sp)
   21798:	2021883a 	mov	r16,r4
   2179c:	2023883a 	mov	r17,r4

	Focus_Released(); // waiting for VCM release I2C bus
   217a0:	00209580 	call	20958 <Focus_Released>

	int bSuccess = oc_i2c_init_ex(I2C_OPENCORES_CAMERA_BASE, 50*1000*1000,400*1000); //I2C: 400K
   217a4:	018001b4 	movhi	r6,6
   217a8:	0140bef4 	movhi	r5,763
   217ac:	01000174 	movhi	r4,5
   217b0:	3186a004 	addi	r6,r6,6784
   217b4:	297c2004 	addi	r5,r5,-3968
   217b8:	21069004 	addi	r4,r4,6720
   217bc:	00200a00 	call	200a0 <oc_i2c_init_ex>
	if (!bSuccess)
   217c0:	1000031e 	bne	r2,zero,217d0 <OV8865SetGain+0x48>
		printf("failed to init MIPI- Camera i2c\r\n");
   217c4:	010000b4 	movhi	r4,2
   217c8:	2111bf04 	addi	r4,r4,18172
   217cc:	0022d0c0 	call	22d0c <puts>

	if (gain > 0x7FF) gain = 0x7FF;
   217d0:	843fffcc 	andi	r16,r16,65535
   217d4:	0081ffc4 	movi	r2,2047
   217d8:	14000436 	bltu	r2,r16,217ec <OV8865SetGain+0x64>
	if (gain < 0x080) gain = 0x080;
   217dc:	00801fc4 	movi	r2,127
   217e0:	14000336 	bltu	r2,r16,217f0 <OV8865SetGain+0x68>
   217e4:	04402004 	movi	r17,128
   217e8:	00000106 	br	217f0 <OV8865SetGain+0x68>

	int bSuccess = oc_i2c_init_ex(I2C_OPENCORES_CAMERA_BASE, 50*1000*1000,400*1000); //I2C: 400K
	if (!bSuccess)
		printf("failed to init MIPI- Camera i2c\r\n");

	if (gain > 0x7FF) gain = 0x7FF;
   217ec:	1023883a 	mov	r17,r2
	if (gain < 0x080) gain = 0x080;

	OV8865_write_cmos_sensor_8(0x3508, (gain >> 8) & 0x0F);
   217f0:	897fffcc 	andi	r5,r17,65535
   217f4:	280ad23a 	srli	r5,r5,8
   217f8:	010d4204 	movi	r4,13576
   217fc:	00215ac0 	call	215ac <OV8865_write_cmos_sensor_8>
	OV8865_write_cmos_sensor_8(0x3509, gain & 0xFF);
   21800:	89403fcc 	andi	r5,r17,255
   21804:	010d4244 	movi	r4,13577
   21808:	00215ac0 	call	215ac <OV8865_write_cmos_sensor_8>


	oc_i2c_uninit(I2C_OPENCORES_CAMERA_BASE);
   2180c:	01000174 	movhi	r4,5
   21810:	21069004 	addi	r4,r4,6720
}
   21814:	dfc00217 	ldw	ra,8(sp)
   21818:	dc400117 	ldw	r17,4(sp)
   2181c:	dc000017 	ldw	r16,0(sp)
   21820:	dec00304 	addi	sp,sp,12

	OV8865_write_cmos_sensor_8(0x3508, (gain >> 8) & 0x0F);
	OV8865_write_cmos_sensor_8(0x3509, gain & 0xFF);


	oc_i2c_uninit(I2C_OPENCORES_CAMERA_BASE);
   21824:	00201441 	jmpi	20144 <oc_i2c_uninit>

00021828 <enableMWB>:
}

void enableMWB(){
   21828:	deffff04 	addi	sp,sp,-4
   2182c:	dfc00015 	stw	ra,0(sp)

	Focus_Released(); // waiting for VCM release I2C bus
   21830:	00209580 	call	20958 <Focus_Released>

	int bSuccess = oc_i2c_init_ex(I2C_OPENCORES_CAMERA_BASE, 50*1000*1000,400*1000); //I2C: 400K
   21834:	018001b4 	movhi	r6,6
   21838:	0140bef4 	movhi	r5,763
   2183c:	01000174 	movhi	r4,5
   21840:	3186a004 	addi	r6,r6,6784
   21844:	297c2004 	addi	r5,r5,-3968
   21848:	21069004 	addi	r4,r4,6720
   2184c:	00200a00 	call	200a0 <oc_i2c_init_ex>
	if (!bSuccess)
   21850:	1000031e 	bne	r2,zero,21860 <enableMWB+0x38>
		printf("failed to init MIPI- Camera i2c\r\n");
   21854:	010000b4 	movhi	r4,2
   21858:	2111bf04 	addi	r4,r4,18172
   2185c:	0022d0c0 	call	22d0c <puts>

	OV8865_write_cmos_sensor_8(0x501e, 0 & 0x3);
   21860:	000b883a 	mov	r5,zero
   21864:	01140784 	movi	r4,20510
   21868:	00215ac0 	call	215ac <OV8865_write_cmos_sensor_8>


	oc_i2c_uninit(I2C_OPENCORES_CAMERA_BASE);
   2186c:	01000174 	movhi	r4,5
   21870:	21069004 	addi	r4,r4,6720
}
   21874:	dfc00017 	ldw	ra,0(sp)
   21878:	dec00104 	addi	sp,sp,4
		printf("failed to init MIPI- Camera i2c\r\n");

	OV8865_write_cmos_sensor_8(0x501e, 0 & 0x3);


	oc_i2c_uninit(I2C_OPENCORES_CAMERA_BASE);
   2187c:	00201441 	jmpi	20144 <oc_i2c_uninit>

00021880 <OV8865SetRedGain>:
}

void OV8865SetRedGain(alt_u16 gain){
   21880:	defffd04 	addi	sp,sp,-12
   21884:	dc400115 	stw	r17,4(sp)
   21888:	dc000015 	stw	r16,0(sp)
   2188c:	dfc00215 	stw	ra,8(sp)
   21890:	2023883a 	mov	r17,r4
   21894:	2021883a 	mov	r16,r4

	Focus_Released(); // waiting for VCM release I2C bus
   21898:	00209580 	call	20958 <Focus_Released>

	int bSuccess = oc_i2c_init_ex(I2C_OPENCORES_CAMERA_BASE, 50*1000*1000,400*1000); //I2C: 400K
   2189c:	018001b4 	movhi	r6,6
   218a0:	0140bef4 	movhi	r5,763
   218a4:	01000174 	movhi	r4,5
   218a8:	3186a004 	addi	r6,r6,6784
   218ac:	297c2004 	addi	r5,r5,-3968
   218b0:	21069004 	addi	r4,r4,6720
   218b4:	00200a00 	call	200a0 <oc_i2c_init_ex>
	if (!bSuccess)
   218b8:	1000031e 	bne	r2,zero,218c8 <OV8865SetRedGain+0x48>
		printf("failed to init MIPI- Camera i2c\r\n");
   218bc:	010000b4 	movhi	r4,2
   218c0:	2111bf04 	addi	r4,r4,18172
   218c4:	0022d0c0 	call	22d0c <puts>

	if (gain > 0x7FF) gain = 0x7FF;
   218c8:	8c7fffcc 	andi	r17,r17,65535
   218cc:	0081ffc4 	movi	r2,2047
   218d0:	14400436 	bltu	r2,r17,218e4 <OV8865SetRedGain+0x64>
	if (gain < 0x080) gain = 0x080;
   218d4:	00801fc4 	movi	r2,127
   218d8:	14400336 	bltu	r2,r17,218e8 <OV8865SetRedGain+0x68>
   218dc:	04002004 	movi	r16,128
   218e0:	00000106 	br	218e8 <OV8865SetRedGain+0x68>

	int bSuccess = oc_i2c_init_ex(I2C_OPENCORES_CAMERA_BASE, 50*1000*1000,400*1000); //I2C: 400K
	if (!bSuccess)
		printf("failed to init MIPI- Camera i2c\r\n");

	if (gain > 0x7FF) gain = 0x7FF;
   218e4:	1021883a 	mov	r16,r2
	if (gain < 0x080) gain = 0x080;

	OV8865_write_cmos_sensor_8(0x5019, gain & 0x3F);
   218e8:	81400fcc 	andi	r5,r16,63
   218ec:	01140644 	movi	r4,20505
   218f0:	00215ac0 	call	215ac <OV8865_write_cmos_sensor_8>
	OV8865_write_cmos_sensor_8(0x5018, gain>>6 & 0xFF);
   218f4:	817fffcc 	andi	r5,r16,65535
   218f8:	280ad1ba 	srli	r5,r5,6
   218fc:	01140604 	movi	r4,20504
   21900:	00215ac0 	call	215ac <OV8865_write_cmos_sensor_8>


	oc_i2c_uninit(I2C_OPENCORES_CAMERA_BASE);
   21904:	01000174 	movhi	r4,5
   21908:	21069004 	addi	r4,r4,6720
}
   2190c:	dfc00217 	ldw	ra,8(sp)
   21910:	dc400117 	ldw	r17,4(sp)
   21914:	dc000017 	ldw	r16,0(sp)
   21918:	dec00304 	addi	sp,sp,12

	OV8865_write_cmos_sensor_8(0x5019, gain & 0x3F);
	OV8865_write_cmos_sensor_8(0x5018, gain>>6 & 0xFF);


	oc_i2c_uninit(I2C_OPENCORES_CAMERA_BASE);
   2191c:	00201441 	jmpi	20144 <oc_i2c_uninit>

00021920 <OV8865SetGreenGain>:
}
void OV8865SetGreenGain(alt_u16 gain){
   21920:	defffd04 	addi	sp,sp,-12
   21924:	dc400115 	stw	r17,4(sp)
   21928:	dc000015 	stw	r16,0(sp)
   2192c:	dfc00215 	stw	ra,8(sp)
   21930:	2023883a 	mov	r17,r4
   21934:	2021883a 	mov	r16,r4

	Focus_Released(); // waiting for VCM release I2C bus
   21938:	00209580 	call	20958 <Focus_Released>

	int bSuccess = oc_i2c_init_ex(I2C_OPENCORES_CAMERA_BASE, 50*1000*1000,400*1000); //I2C: 400K
   2193c:	018001b4 	movhi	r6,6
   21940:	0140bef4 	movhi	r5,763
   21944:	01000174 	movhi	r4,5
   21948:	3186a004 	addi	r6,r6,6784
   2194c:	297c2004 	addi	r5,r5,-3968
   21950:	21069004 	addi	r4,r4,6720
   21954:	00200a00 	call	200a0 <oc_i2c_init_ex>
	if (!bSuccess)
   21958:	1000031e 	bne	r2,zero,21968 <OV8865SetGreenGain+0x48>
		printf("failed to init MIPI- Camera i2c\r\n");
   2195c:	010000b4 	movhi	r4,2
   21960:	2111bf04 	addi	r4,r4,18172
   21964:	0022d0c0 	call	22d0c <puts>

	if (gain > 0x7FF) gain = 0x7FF;
   21968:	8c7fffcc 	andi	r17,r17,65535
   2196c:	0081ffc4 	movi	r2,2047
   21970:	14400436 	bltu	r2,r17,21984 <OV8865SetGreenGain+0x64>
	if (gain < 0x080) gain = 0x080;
   21974:	00801fc4 	movi	r2,127
   21978:	14400336 	bltu	r2,r17,21988 <OV8865SetGreenGain+0x68>
   2197c:	04002004 	movi	r16,128
   21980:	00000106 	br	21988 <OV8865SetGreenGain+0x68>

	int bSuccess = oc_i2c_init_ex(I2C_OPENCORES_CAMERA_BASE, 50*1000*1000,400*1000); //I2C: 400K
	if (!bSuccess)
		printf("failed to init MIPI- Camera i2c\r\n");

	if (gain > 0x7FF) gain = 0x7FF;
   21984:	1021883a 	mov	r16,r2
	if (gain < 0x080) gain = 0x080;

	OV8865_write_cmos_sensor_8(0x501B, (gain) & 0x0F);
   21988:	814003cc 	andi	r5,r16,15
   2198c:	011406c4 	movi	r4,20507
   21990:	00215ac0 	call	215ac <OV8865_write_cmos_sensor_8>
	OV8865_write_cmos_sensor_8(0x501A, gain>>6 & 0xFF);
   21994:	817fffcc 	andi	r5,r16,65535
   21998:	280ad1ba 	srli	r5,r5,6
   2199c:	01140684 	movi	r4,20506
   219a0:	00215ac0 	call	215ac <OV8865_write_cmos_sensor_8>


	oc_i2c_uninit(I2C_OPENCORES_CAMERA_BASE);
   219a4:	01000174 	movhi	r4,5
   219a8:	21069004 	addi	r4,r4,6720
}
   219ac:	dfc00217 	ldw	ra,8(sp)
   219b0:	dc400117 	ldw	r17,4(sp)
   219b4:	dc000017 	ldw	r16,0(sp)
   219b8:	dec00304 	addi	sp,sp,12

	OV8865_write_cmos_sensor_8(0x501B, (gain) & 0x0F);
	OV8865_write_cmos_sensor_8(0x501A, gain>>6 & 0xFF);


	oc_i2c_uninit(I2C_OPENCORES_CAMERA_BASE);
   219bc:	00201441 	jmpi	20144 <oc_i2c_uninit>

000219c0 <OV8865SetBlueGain>:
}

void OV8865SetBlueGain(alt_u16 gain){
   219c0:	defffd04 	addi	sp,sp,-12
   219c4:	dc400115 	stw	r17,4(sp)
   219c8:	dc000015 	stw	r16,0(sp)
   219cc:	dfc00215 	stw	ra,8(sp)
   219d0:	2023883a 	mov	r17,r4
   219d4:	2021883a 	mov	r16,r4

	Focus_Released(); // waiting for VCM release I2C bus
   219d8:	00209580 	call	20958 <Focus_Released>

	int bSuccess = oc_i2c_init_ex(I2C_OPENCORES_CAMERA_BASE, 50*1000*1000,400*1000); //I2C: 400K
   219dc:	018001b4 	movhi	r6,6
   219e0:	0140bef4 	movhi	r5,763
   219e4:	01000174 	movhi	r4,5
   219e8:	3186a004 	addi	r6,r6,6784
   219ec:	297c2004 	addi	r5,r5,-3968
   219f0:	21069004 	addi	r4,r4,6720
   219f4:	00200a00 	call	200a0 <oc_i2c_init_ex>
	if (!bSuccess)
   219f8:	1000031e 	bne	r2,zero,21a08 <OV8865SetBlueGain+0x48>
		printf("failed to init MIPI- Camera i2c\r\n");
   219fc:	010000b4 	movhi	r4,2
   21a00:	2111bf04 	addi	r4,r4,18172
   21a04:	0022d0c0 	call	22d0c <puts>

	if (gain > 0x7FF) gain = 0x7FF;
   21a08:	8c7fffcc 	andi	r17,r17,65535
   21a0c:	0081ffc4 	movi	r2,2047
   21a10:	14400436 	bltu	r2,r17,21a24 <OV8865SetBlueGain+0x64>
	if (gain < 0x080) gain = 0x080;
   21a14:	00801fc4 	movi	r2,127
   21a18:	14400336 	bltu	r2,r17,21a28 <OV8865SetBlueGain+0x68>
   21a1c:	04002004 	movi	r16,128
   21a20:	00000106 	br	21a28 <OV8865SetBlueGain+0x68>

	int bSuccess = oc_i2c_init_ex(I2C_OPENCORES_CAMERA_BASE, 50*1000*1000,400*1000); //I2C: 400K
	if (!bSuccess)
		printf("failed to init MIPI- Camera i2c\r\n");

	if (gain > 0x7FF) gain = 0x7FF;
   21a24:	1021883a 	mov	r16,r2
	if (gain < 0x080) gain = 0x080;

	OV8865_write_cmos_sensor_8(0x501D, (gain) & 0x3F);
   21a28:	81400fcc 	andi	r5,r16,63
   21a2c:	01140744 	movi	r4,20509
   21a30:	00215ac0 	call	215ac <OV8865_write_cmos_sensor_8>
	OV8865_write_cmos_sensor_8(0x501C, gain>>6 & 0xFF);
   21a34:	817fffcc 	andi	r5,r16,65535
   21a38:	280ad1ba 	srli	r5,r5,6
   21a3c:	01140704 	movi	r4,20508
   21a40:	00215ac0 	call	215ac <OV8865_write_cmos_sensor_8>


	oc_i2c_uninit(I2C_OPENCORES_CAMERA_BASE);
   21a44:	01000174 	movhi	r4,5
   21a48:	21069004 	addi	r4,r4,6720
}
   21a4c:	dfc00217 	ldw	ra,8(sp)
   21a50:	dc400117 	ldw	r17,4(sp)
   21a54:	dc000017 	ldw	r16,0(sp)
   21a58:	dec00304 	addi	sp,sp,12

	OV8865_write_cmos_sensor_8(0x501D, (gain) & 0x3F);
	OV8865_write_cmos_sensor_8(0x501C, gain>>6 & 0xFF);


	oc_i2c_uninit(I2C_OPENCORES_CAMERA_BASE);
   21a5c:	00201441 	jmpi	20144 <oc_i2c_uninit>

00021a60 <OV8865ReadAvg>:
}

alt_u32 OV8865ReadAvg(){
   21a60:	defffe04 	addi	sp,sp,-8
   21a64:	dfc00115 	stw	ra,4(sp)
   21a68:	dc000015 	stw	r16,0(sp)

	alt_u32 avg;

	Focus_Released(); // waiting for VCM release I2C bus
   21a6c:	00209580 	call	20958 <Focus_Released>

	int bSuccess = oc_i2c_init_ex(I2C_OPENCORES_CAMERA_BASE, 50*1000*1000,400*1000); //I2C: 400K
   21a70:	018001b4 	movhi	r6,6
   21a74:	0140bef4 	movhi	r5,763
   21a78:	01000174 	movhi	r4,5
   21a7c:	3186a004 	addi	r6,r6,6784
   21a80:	297c2004 	addi	r5,r5,-3968
   21a84:	21069004 	addi	r4,r4,6720
   21a88:	00200a00 	call	200a0 <oc_i2c_init_ex>
	if (!bSuccess)
   21a8c:	1000031e 	bne	r2,zero,21a9c <OV8865ReadAvg+0x3c>
		printf("failed to init MIPI- Camera i2c\r\n");
   21a90:	010000b4 	movhi	r4,2
   21a94:	2111bf04 	addi	r4,r4,18172
   21a98:	0022d0c0 	call	22d0c <puts>

	avg = OV8865_read_cmos_sensor_8(0x568A);
   21a9c:	0115a284 	movi	r4,22154
   21aa0:	00215740 	call	21574 <OV8865_read_cmos_sensor_8>
	oc_i2c_uninit(I2C_OPENCORES_CAMERA_BASE);
   21aa4:	01000174 	movhi	r4,5
   21aa8:	21069004 	addi	r4,r4,6720

	int bSuccess = oc_i2c_init_ex(I2C_OPENCORES_CAMERA_BASE, 50*1000*1000,400*1000); //I2C: 400K
	if (!bSuccess)
		printf("failed to init MIPI- Camera i2c\r\n");

	avg = OV8865_read_cmos_sensor_8(0x568A);
   21aac:	1021883a 	mov	r16,r2
	oc_i2c_uninit(I2C_OPENCORES_CAMERA_BASE);
   21ab0:	00201440 	call	20144 <oc_i2c_uninit>

	return avg;
}
   21ab4:	80803fcc 	andi	r2,r16,255
   21ab8:	dfc00117 	ldw	ra,4(sp)
   21abc:	dc000017 	ldw	r16,0(sp)
   21ac0:	dec00204 	addi	sp,sp,8
   21ac4:	f800283a 	ret

00021ac8 <OV8865ReadExposure>:

alt_u32 OV8865ReadExposure(){
   21ac8:	defffe04 	addi	sp,sp,-8
   21acc:	dfc00115 	stw	ra,4(sp)
   21ad0:	dc000015 	stw	r16,0(sp)

	alt_u32 exposure;

	Focus_Released(); // waiting for VCM release I2C bus
   21ad4:	00209580 	call	20958 <Focus_Released>

	int bSuccess = oc_i2c_init_ex(I2C_OPENCORES_CAMERA_BASE, 50*1000*1000,400*1000); //I2C: 400K
   21ad8:	018001b4 	movhi	r6,6
   21adc:	0140bef4 	movhi	r5,763
   21ae0:	01000174 	movhi	r4,5
   21ae4:	3186a004 	addi	r6,r6,6784
   21ae8:	297c2004 	addi	r5,r5,-3968
   21aec:	21069004 	addi	r4,r4,6720
   21af0:	00200a00 	call	200a0 <oc_i2c_init_ex>
	if (!bSuccess)
   21af4:	1000031e 	bne	r2,zero,21b04 <OV8865ReadExposure+0x3c>
		printf("failed to init MIPI- Camera i2c\r\n");
   21af8:	010000b4 	movhi	r4,2
   21afc:	2111bf04 	addi	r4,r4,18172
   21b00:	0022d0c0 	call	22d0c <puts>

	exposure = OV8865_read_cmos_sensor_8(0x3500);
   21b04:	010d4004 	movi	r4,13568
   21b08:	00215740 	call	21574 <OV8865_read_cmos_sensor_8>
	exposure = (exposure <<8) | OV8865_read_cmos_sensor_8(0x3501);
   21b0c:	10803fcc 	andi	r2,r2,255
   21b10:	1020923a 	slli	r16,r2,8
   21b14:	010d4044 	movi	r4,13569
   21b18:	00215740 	call	21574 <OV8865_read_cmos_sensor_8>
	exposure = (exposure <<8) | OV8865_read_cmos_sensor_8(0x3502);
   21b1c:	10803fcc 	andi	r2,r2,255
   21b20:	1420b03a 	or	r16,r2,r16
   21b24:	010d4084 	movi	r4,13570
   21b28:	00215740 	call	21574 <OV8865_read_cmos_sensor_8>
   21b2c:	8020923a 	slli	r16,r16,8

	oc_i2c_uninit(I2C_OPENCORES_CAMERA_BASE);
   21b30:	01000174 	movhi	r4,5
	if (!bSuccess)
		printf("failed to init MIPI- Camera i2c\r\n");

	exposure = OV8865_read_cmos_sensor_8(0x3500);
	exposure = (exposure <<8) | OV8865_read_cmos_sensor_8(0x3501);
	exposure = (exposure <<8) | OV8865_read_cmos_sensor_8(0x3502);
   21b34:	10803fcc 	andi	r2,r2,255

	oc_i2c_uninit(I2C_OPENCORES_CAMERA_BASE);
   21b38:	21069004 	addi	r4,r4,6720
	if (!bSuccess)
		printf("failed to init MIPI- Camera i2c\r\n");

	exposure = OV8865_read_cmos_sensor_8(0x3500);
	exposure = (exposure <<8) | OV8865_read_cmos_sensor_8(0x3501);
	exposure = (exposure <<8) | OV8865_read_cmos_sensor_8(0x3502);
   21b3c:	1420b03a 	or	r16,r2,r16

	oc_i2c_uninit(I2C_OPENCORES_CAMERA_BASE);
   21b40:	00201440 	call	20144 <oc_i2c_uninit>

	return exposure;
}
   21b44:	8005883a 	mov	r2,r16
   21b48:	dfc00117 	ldw	ra,4(sp)
   21b4c:	dc000017 	ldw	r16,0(sp)
   21b50:	dec00204 	addi	sp,sp,8
   21b54:	f800283a 	ret

00021b58 <MIPI_BIN_LEVEL>:




//ZOOM
void MIPI_BIN_LEVEL(alt_u8 level){
   21b58:	defffc04 	addi	sp,sp,-16
   21b5c:	dc000015 	stw	r16,0(sp)
   21b60:	dfc00315 	stw	ra,12(sp)
   21b64:	2021883a 	mov	r16,r4
   21b68:	dc800215 	stw	r18,8(sp)
   21b6c:	dc400115 	stw	r17,4(sp)
	if(level <= 1) level = 1;
   21b70:	21003fcc 	andi	r4,r4,255
   21b74:	00800044 	movi	r2,1
   21b78:	1100042e 	bgeu	r2,r4,21b8c <MIPI_BIN_LEVEL+0x34>
	if(level >= 3) level = 3;
   21b7c:	00800084 	movi	r2,2
   21b80:	20800326 	beq	r4,r2,21b90 <MIPI_BIN_LEVEL+0x38>
   21b84:	040000c4 	movi	r16,3
   21b88:	00000106 	br	21b90 <MIPI_BIN_LEVEL+0x38>



//ZOOM
void MIPI_BIN_LEVEL(alt_u8 level){
	if(level <= 1) level = 1;
   21b8c:	1021883a 	mov	r16,r2
	if(level >= 3) level = 3;

	  Focus_Released(); // waiting for VCM release I2C bus
   21b90:	00209580 	call	20958 <Focus_Released>

	  int bSuccess;
		bSuccess = oc_i2c_init_ex(I2C_OPENCORES_CAMERA_BASE, 50*1000*1000,400*1000); //I2C: 400K
   21b94:	018001b4 	movhi	r6,6
   21b98:	0140bef4 	movhi	r5,763
   21b9c:	01000174 	movhi	r4,5
   21ba0:	3186a004 	addi	r6,r6,6784
   21ba4:	297c2004 	addi	r5,r5,-3968
   21ba8:	21069004 	addi	r4,r4,6720
   21bac:	00200a00 	call	200a0 <oc_i2c_init_ex>
		if (!bSuccess)
   21bb0:	1000031e 	bne	r2,zero,21bc0 <MIPI_BIN_LEVEL+0x68>
			printf("failed to init MIPI- Camera i2c\r\n");
   21bb4:	010000b4 	movhi	r4,2
   21bb8:	2111bf04 	addi	r4,r4,18172
   21bbc:	0022d0c0 	call	22d0c <puts>


	OV8865_write_cmos_sensor_8(0x0100, 0x00);
   21bc0:	000b883a 	mov	r5,zero
   21bc4:	01004004 	movi	r4,256

	if(level == 1){
   21bc8:	84003fcc 	andi	r16,r16,255
   21bcc:	04400044 	movi	r17,1
		bSuccess = oc_i2c_init_ex(I2C_OPENCORES_CAMERA_BASE, 50*1000*1000,400*1000); //I2C: 400K
		if (!bSuccess)
			printf("failed to init MIPI- Camera i2c\r\n");


	OV8865_write_cmos_sensor_8(0x0100, 0x00);
   21bd0:	00215ac0 	call	215ac <OV8865_write_cmos_sensor_8>

	if(level == 1){
   21bd4:	8440111e 	bne	r16,r17,21c1c <MIPI_BIN_LEVEL+0xc4>

		OV8865_write_cmos_sensor_8(0x3814, 0x01);
   21bd8:	800b883a 	mov	r5,r16
   21bdc:	010e0504 	movi	r4,14356
   21be0:	00215ac0 	call	215ac <OV8865_write_cmos_sensor_8>
		OV8865_write_cmos_sensor_8(0x3815, 0x01);
   21be4:	800b883a 	mov	r5,r16
   21be8:	010e0544 	movi	r4,14357
   21bec:	00215ac0 	call	215ac <OV8865_write_cmos_sensor_8>
		OV8865_write_cmos_sensor_8(0x382a, 0x01);
   21bf0:	800b883a 	mov	r5,r16
   21bf4:	010e0a84 	movi	r4,14378
   21bf8:	00215ac0 	call	215ac <OV8865_write_cmos_sensor_8>
		OV8865_write_cmos_sensor_8(0x382b, 0x01);
   21bfc:	800b883a 	mov	r5,r16
   21c00:	010e0ac4 	movi	r4,14379
   21c04:	00215ac0 	call	215ac <OV8865_write_cmos_sensor_8>

		OV8865_write_cmos_sensor_8(0x3830, 8);
   21c08:	01400204 	movi	r5,8
   21c0c:	010e0c04 	movi	r4,14384
   21c10:	00215ac0 	call	215ac <OV8865_write_cmos_sensor_8>
		OV8865_write_cmos_sensor_8(0x3836, 2);
   21c14:	01400084 	movi	r5,2
   21c18:	00002306 	br	21ca8 <MIPI_BIN_LEVEL+0x150>
	}
	else if(level == 2){
   21c1c:	04800084 	movi	r18,2
   21c20:	8480111e 	bne	r16,r18,21c68 <MIPI_BIN_LEVEL+0x110>

		OV8865_write_cmos_sensor_8(0x3814, 0x03);
   21c24:	014000c4 	movi	r5,3
   21c28:	010e0504 	movi	r4,14356
   21c2c:	00215ac0 	call	215ac <OV8865_write_cmos_sensor_8>
		OV8865_write_cmos_sensor_8(0x3815, 0x01);
   21c30:	880b883a 	mov	r5,r17
   21c34:	010e0544 	movi	r4,14357
   21c38:	00215ac0 	call	215ac <OV8865_write_cmos_sensor_8>
		OV8865_write_cmos_sensor_8(0x382a, 0x03);
   21c3c:	014000c4 	movi	r5,3
   21c40:	010e0a84 	movi	r4,14378
   21c44:	00215ac0 	call	215ac <OV8865_write_cmos_sensor_8>
		OV8865_write_cmos_sensor_8(0x382b, 0x01);
   21c48:	880b883a 	mov	r5,r17
   21c4c:	010e0ac4 	movi	r4,14379
   21c50:	00215ac0 	call	215ac <OV8865_write_cmos_sensor_8>

		OV8865_write_cmos_sensor_8(0x3830, 4);
   21c54:	01400104 	movi	r5,4
   21c58:	010e0c04 	movi	r4,14384
   21c5c:	00215ac0 	call	215ac <OV8865_write_cmos_sensor_8>
		OV8865_write_cmos_sensor_8(0x3836, 1);
   21c60:	880b883a 	mov	r5,r17
   21c64:	00001006 	br	21ca8 <MIPI_BIN_LEVEL+0x150>

	}
	else if(level == 3){

		OV8865_write_cmos_sensor_8(0x3814, 0x07);
   21c68:	014001c4 	movi	r5,7
   21c6c:	010e0504 	movi	r4,14356
   21c70:	00215ac0 	call	215ac <OV8865_write_cmos_sensor_8>
		OV8865_write_cmos_sensor_8(0x3815, 0x01);
   21c74:	880b883a 	mov	r5,r17
   21c78:	010e0544 	movi	r4,14357
   21c7c:	00215ac0 	call	215ac <OV8865_write_cmos_sensor_8>
		OV8865_write_cmos_sensor_8(0x382a, 0x07);
   21c80:	014001c4 	movi	r5,7
   21c84:	010e0a84 	movi	r4,14378
   21c88:	00215ac0 	call	215ac <OV8865_write_cmos_sensor_8>
		OV8865_write_cmos_sensor_8(0x382b, 0x01);
   21c8c:	880b883a 	mov	r5,r17
   21c90:	010e0ac4 	movi	r4,14379
   21c94:	00215ac0 	call	215ac <OV8865_write_cmos_sensor_8>

		OV8865_write_cmos_sensor_8(0x3830, 8);
   21c98:	01400204 	movi	r5,8
   21c9c:	010e0c04 	movi	r4,14384
   21ca0:	00215ac0 	call	215ac <OV8865_write_cmos_sensor_8>
		OV8865_write_cmos_sensor_8(0x3836, 2);
   21ca4:	900b883a 	mov	r5,r18
   21ca8:	010e0d84 	movi	r4,14390
   21cac:	00215ac0 	call	215ac <OV8865_write_cmos_sensor_8>
	}
    usleep(10000);
   21cb0:	0109c404 	movi	r4,10000
   21cb4:	002417c0 	call	2417c <usleep>
	OV8865_write_cmos_sensor_8(0x0100, 0x01);
   21cb8:	01400044 	movi	r5,1
   21cbc:	01004004 	movi	r4,256
   21cc0:	00215ac0 	call	215ac <OV8865_write_cmos_sensor_8>

	oc_i2c_uninit(I2C_OPENCORES_CAMERA_BASE);  // Release I2C bus , due to two I2C master shared!
   21cc4:	01000174 	movhi	r4,5
   21cc8:	21069004 	addi	r4,r4,6720

}
   21ccc:	dfc00317 	ldw	ra,12(sp)
   21cd0:	dc800217 	ldw	r18,8(sp)
   21cd4:	dc400117 	ldw	r17,4(sp)
   21cd8:	dc000017 	ldw	r16,0(sp)
   21cdc:	dec00404 	addi	sp,sp,16
		OV8865_write_cmos_sensor_8(0x3836, 2);
	}
    usleep(10000);
	OV8865_write_cmos_sensor_8(0x0100, 0x01);

	oc_i2c_uninit(I2C_OPENCORES_CAMERA_BASE);  // Release I2C bus , due to two I2C master shared!
   21ce0:	00201441 	jmpi	20144 <oc_i2c_uninit>

00021ce4 <MipiCameraInit>:
//		OV8865_write_cmos_sensor_8(0x0100, 0x01);
//}


void MipiCameraInit(void)
{
   21ce4:	defff904 	addi	sp,sp,-28
   21ce8:	dfc00615 	stw	ra,24(sp)
   21cec:	dd400515 	stw	r21,20(sp)
   21cf0:	dd000415 	stw	r20,16(sp)
   21cf4:	dcc00315 	stw	r19,12(sp)
   21cf8:	dc800215 	stw	r18,8(sp)
   21cfc:	dc400115 	stw	r17,4(sp)
   21d00:	dc000015 	stw	r16,0(sp)

    int i, num;
    int bSuccess;

    Focus_Released(); // waiting for VCM release I2C bus
   21d04:	00209580 	call	20958 <Focus_Released>


		bSuccess = oc_i2c_init_ex(I2C_OPENCORES_CAMERA_BASE, 50*1000*1000,400*1000); //I2C: 400K
   21d08:	018001b4 	movhi	r6,6
   21d0c:	0140bef4 	movhi	r5,763
   21d10:	01000174 	movhi	r4,5
   21d14:	3186a004 	addi	r6,r6,6784
   21d18:	297c2004 	addi	r5,r5,-3968
   21d1c:	21069004 	addi	r4,r4,6720
   21d20:	00200a00 	call	200a0 <oc_i2c_init_ex>
		if (!bSuccess)
   21d24:	1000031e 	bne	r2,zero,21d34 <MipiCameraInit+0x50>
			printf("failed to init MIPI- Camera i2c\r\n");
   21d28:	010000b4 	movhi	r4,2
   21d2c:	2111bf04 	addi	r4,r4,18172
   21d30:	0022d0c0 	call	22d0c <puts>
//        usleep(10000);
//    }
//


	 OV8865DB("\nStart MipiCameraInit -OV8865!\r\n");
   21d34:	010000b4 	movhi	r4,2
   21d38:	2111c804 	addi	r4,r4,18208
   21d3c:	0022d0c0 	call	22d0c <puts>
	 OV8865DB("Write Read Test!\n");
   21d40:	010000b4 	movhi	r4,2
   21d44:	2111d004 	addi	r4,r4,18240
   21d48:	0022d0c0 	call	22d0c <puts>

	    for(i=0;i<10;i++){
   21d4c:	0021883a 	mov	r16,zero
   21d50:	04400284 	movi	r17,10
	       OV8865_write_cmos_sensor_8(0x3809,i);
   21d54:	800b883a 	mov	r5,r16
   21d58:	010e0244 	movi	r4,14345
   21d5c:	00215ac0 	call	215ac <OV8865_write_cmos_sensor_8>
	      usleep(100);
   21d60:	01001904 	movi	r4,100
   21d64:	002417c0 	call	2417c <usleep>
	        printf("%d (%d)\n",OV8865_read_cmos_sensor_8(0x3809),i);
   21d68:	010e0244 	movi	r4,14345
   21d6c:	00215740 	call	21574 <OV8865_read_cmos_sensor_8>
   21d70:	010000b4 	movhi	r4,2
   21d74:	800d883a 	mov	r6,r16
   21d78:	11403fcc 	andi	r5,r2,255
   21d7c:	2111d504 	addi	r4,r4,18260
   21d80:	0022c1c0 	call	22c1c <printf>
	      usleep(100);
   21d84:	01001904 	movi	r4,100


	 OV8865DB("\nStart MipiCameraInit -OV8865!\r\n");
	 OV8865DB("Write Read Test!\n");

	    for(i=0;i<10;i++){
   21d88:	84000044 	addi	r16,r16,1
	       OV8865_write_cmos_sensor_8(0x3809,i);
	      usleep(100);
	        printf("%d (%d)\n",OV8865_read_cmos_sensor_8(0x3809),i);
	      usleep(100);
   21d8c:	002417c0 	call	2417c <usleep>


	 OV8865DB("\nStart MipiCameraInit -OV8865!\r\n");
	 OV8865DB("Write Read Test!\n");

	    for(i=0;i<10;i++){
   21d90:	847ff01e 	bne	r16,r17,21d54 <__alt_data_end+0xfffe4894>
   21d94:	040000b4 	movhi	r16,2
   21d98:	8411e104 	addi	r16,r16,18308
   21d9c:	0023883a 	mov	r17,zero
	      usleep(100);
	    }
	 num = sizeof(MipiCameraReg)/sizeof(MipiCameraReg[0]);
     for(i=0;i<num;i++){

    	 if (MipiCameraReg[i].Type == TIME_DELAY)   usleep(MipiCameraReg[i].Data*100);
   21da0:	84bfff04 	addi	r18,r16,-4
   21da4:	04c000c4 	movi	r19,3
    	 else if(MipiCameraReg[i].Type == END_OF_SCRIPT)   break;
   21da8:	05000104 	movi	r20,4
    	 else if(MipiCameraReg[i].Type == 0x6c)   OV8865_write_cmos_sensor_8(MipiCameraReg[i].Addr, MipiCameraReg[i].Data);
   21dac:	05401b04 	movi	r21,108
	      usleep(100);
	    }
	 num = sizeof(MipiCameraReg)/sizeof(MipiCameraReg[0]);
     for(i=0;i<num;i++){

    	 if (MipiCameraReg[i].Type == TIME_DELAY)   usleep(MipiCameraReg[i].Data*100);
   21db0:	8c85883a 	add	r2,r17,r18
   21db4:	10800003 	ldbu	r2,0(r2)
   21db8:	14c0041e 	bne	r2,r19,21dcc <MipiCameraInit+0xe8>
   21dbc:	81000003 	ldbu	r4,0(r16)
   21dc0:	21001924 	muli	r4,r4,100
   21dc4:	002417c0 	call	2417c <usleep>
   21dc8:	00001306 	br	21e18 <MipiCameraInit+0x134>
    	 else if(MipiCameraReg[i].Type == END_OF_SCRIPT)   break;
   21dcc:	15000e1e 	bne	r2,r20,21e08 <MipiCameraInit+0x124>
    	 else if(MipiCameraReg[i].Type == 0x6c)   OV8865_write_cmos_sensor_8(MipiCameraReg[i].Addr, MipiCameraReg[i].Data);
     }


 	oc_i2c_uninit(I2C_OPENCORES_CAMERA_BASE);  // Release I2C bus , due to two I2C master shared!
   21dd0:	01000174 	movhi	r4,5
   21dd4:	21069004 	addi	r4,r4,6720
   21dd8:	00201440 	call	20144 <oc_i2c_uninit>



	 OV8865DB("\nEnd MipiCameraInit! -OV8865!\r\n\n");
   21ddc:	010000b4 	movhi	r4,2
   21de0:	2111d804 	addi	r4,r4,18272

}
   21de4:	dfc00617 	ldw	ra,24(sp)
   21de8:	dd400517 	ldw	r21,20(sp)
   21dec:	dd000417 	ldw	r20,16(sp)
   21df0:	dcc00317 	ldw	r19,12(sp)
   21df4:	dc800217 	ldw	r18,8(sp)
   21df8:	dc400117 	ldw	r17,4(sp)
   21dfc:	dc000017 	ldw	r16,0(sp)
   21e00:	dec00704 	addi	sp,sp,28

 	oc_i2c_uninit(I2C_OPENCORES_CAMERA_BASE);  // Release I2C bus , due to two I2C master shared!



	 OV8865DB("\nEnd MipiCameraInit! -OV8865!\r\n\n");
   21e04:	0022d0c1 	jmpi	22d0c <puts>
	 num = sizeof(MipiCameraReg)/sizeof(MipiCameraReg[0]);
     for(i=0;i<num;i++){

    	 if (MipiCameraReg[i].Type == TIME_DELAY)   usleep(MipiCameraReg[i].Data*100);
    	 else if(MipiCameraReg[i].Type == END_OF_SCRIPT)   break;
    	 else if(MipiCameraReg[i].Type == 0x6c)   OV8865_write_cmos_sensor_8(MipiCameraReg[i].Addr, MipiCameraReg[i].Data);
   21e08:	1540031e 	bne	r2,r21,21e18 <MipiCameraInit+0x134>
   21e0c:	81400003 	ldbu	r5,0(r16)
   21e10:	813fff8b 	ldhu	r4,-2(r16)
   21e14:	00215ac0 	call	215ac <OV8865_write_cmos_sensor_8>
   21e18:	8c400184 	addi	r17,r17,6
	      usleep(100);
	        printf("%d (%d)\n",OV8865_read_cmos_sensor_8(0x3809),i);
	      usleep(100);
	    }
	 num = sizeof(MipiCameraReg)/sizeof(MipiCameraReg[0]);
     for(i=0;i<num;i++){
   21e1c:	0081dd04 	movi	r2,1908
   21e20:	84000184 	addi	r16,r16,6
   21e24:	88bfe21e 	bne	r17,r2,21db0 <__alt_data_end+0xfffe48f0>
   21e28:	003fe906 	br	21dd0 <__alt_data_end+0xfffe4910>

00021e2c <mipi_clear_error>:

#include "mipi_setup.h"


void mipi_clear_error(void){
   21e2c:	defffe04 	addi	sp,sp,-8
	MipiBridgeRegWrite(MIPI_REG_CSIStatus,0x01FF); // clear error
   21e30:	01407fc4 	movi	r5,511
   21e34:	01001904 	movi	r4,100

#include "mipi_setup.h"


void mipi_clear_error(void){
   21e38:	dfc00115 	stw	ra,4(sp)
   21e3c:	dc000015 	stw	r16,0(sp)
	MipiBridgeRegWrite(MIPI_REG_CSIStatus,0x01FF); // clear error
   21e40:	00214480 	call	21448 <MipiBridgeRegWrite>
	MipiBridgeRegWrite(MIPI_REG_MDLSynErr,0x0000); // clear error
   21e44:	000b883a 	mov	r5,zero
   21e48:	01001a04 	movi	r4,104
   21e4c:	00214480 	call	21448 <MipiBridgeRegWrite>
	MipiBridgeRegWrite(MIPI_REG_FrmErrCnt,0x0000); // clear error
   21e50:	000b883a 	mov	r5,zero
   21e54:	01002004 	movi	r4,128
   21e58:	00214480 	call	21448 <MipiBridgeRegWrite>
	MipiBridgeRegWrite(MIPI_REG_MDLErrCnt, 0x0000); // clear error
   21e5c:	04002404 	movi	r16,144
   21e60:	8009883a 	mov	r4,r16
   21e64:	000b883a 	mov	r5,zero
   21e68:	00214480 	call	21448 <MipiBridgeRegWrite>

  	MipiBridgeRegWrite(0x0082,0x00);
   21e6c:	000b883a 	mov	r5,zero
   21e70:	01002084 	movi	r4,130
   21e74:	00214480 	call	21448 <MipiBridgeRegWrite>
  	MipiBridgeRegWrite(0x0084,0x00);
   21e78:	000b883a 	mov	r5,zero
   21e7c:	01002104 	movi	r4,132
   21e80:	00214480 	call	21448 <MipiBridgeRegWrite>
  	MipiBridgeRegWrite(0x0086,0x00);
   21e84:	000b883a 	mov	r5,zero
   21e88:	01002184 	movi	r4,134
   21e8c:	00214480 	call	21448 <MipiBridgeRegWrite>
  	MipiBridgeRegWrite(0x0088,0x00);
   21e90:	000b883a 	mov	r5,zero
   21e94:	01002204 	movi	r4,136
   21e98:	00214480 	call	21448 <MipiBridgeRegWrite>
  	MipiBridgeRegWrite(0x008A,0x00);
   21e9c:	000b883a 	mov	r5,zero
   21ea0:	01002284 	movi	r4,138
   21ea4:	00214480 	call	21448 <MipiBridgeRegWrite>
  	MipiBridgeRegWrite(0x008C,0x00);
   21ea8:	000b883a 	mov	r5,zero
   21eac:	01002304 	movi	r4,140
   21eb0:	00214480 	call	21448 <MipiBridgeRegWrite>
  	MipiBridgeRegWrite(0x008E,0x00);
   21eb4:	000b883a 	mov	r5,zero
   21eb8:	01002384 	movi	r4,142
   21ebc:	00214480 	call	21448 <MipiBridgeRegWrite>
  	MipiBridgeRegWrite(0x0090,0x00);
   21ec0:	000b883a 	mov	r5,zero
   21ec4:	8009883a 	mov	r4,r16
}
   21ec8:	dfc00117 	ldw	ra,4(sp)
   21ecc:	dc000017 	ldw	r16,0(sp)
   21ed0:	dec00204 	addi	sp,sp,8
  	MipiBridgeRegWrite(0x0086,0x00);
  	MipiBridgeRegWrite(0x0088,0x00);
  	MipiBridgeRegWrite(0x008A,0x00);
  	MipiBridgeRegWrite(0x008C,0x00);
  	MipiBridgeRegWrite(0x008E,0x00);
  	MipiBridgeRegWrite(0x0090,0x00);
   21ed4:	00214481 	jmpi	21448 <MipiBridgeRegWrite>

00021ed8 <mipi_show_error_info>:
}

void mipi_show_error_info(void){
   21ed8:	defff904 	addi	sp,sp,-28

	alt_u16 PHY_status, SCI_status, MDLSynErr, FrmErrCnt, MDLErrCnt;

	PHY_status = MipiBridgeRegRead(MIPI_REG_PHYSta);
   21edc:	01001884 	movi	r4,98
  	MipiBridgeRegWrite(0x008C,0x00);
  	MipiBridgeRegWrite(0x008E,0x00);
  	MipiBridgeRegWrite(0x0090,0x00);
}

void mipi_show_error_info(void){
   21ee0:	dfc00615 	stw	ra,24(sp)
   21ee4:	dcc00515 	stw	r19,20(sp)
   21ee8:	dc800415 	stw	r18,16(sp)
   21eec:	dc400315 	stw	r17,12(sp)
   21ef0:	dc000215 	stw	r16,8(sp)

	alt_u16 PHY_status, SCI_status, MDLSynErr, FrmErrCnt, MDLErrCnt;

	PHY_status = MipiBridgeRegRead(MIPI_REG_PHYSta);
   21ef4:	00214800 	call	21480 <MipiBridgeRegRead>
	SCI_status = MipiBridgeRegRead(MIPI_REG_CSIStatus);
   21ef8:	01001904 	movi	r4,100

void mipi_show_error_info(void){

	alt_u16 PHY_status, SCI_status, MDLSynErr, FrmErrCnt, MDLErrCnt;

	PHY_status = MipiBridgeRegRead(MIPI_REG_PHYSta);
   21efc:	1023883a 	mov	r17,r2
	SCI_status = MipiBridgeRegRead(MIPI_REG_CSIStatus);
   21f00:	00214800 	call	21480 <MipiBridgeRegRead>
	MDLSynErr = MipiBridgeRegRead(MIPI_REG_MDLSynErr);
   21f04:	01001a04 	movi	r4,104
void mipi_show_error_info(void){

	alt_u16 PHY_status, SCI_status, MDLSynErr, FrmErrCnt, MDLErrCnt;

	PHY_status = MipiBridgeRegRead(MIPI_REG_PHYSta);
	SCI_status = MipiBridgeRegRead(MIPI_REG_CSIStatus);
   21f08:	1025883a 	mov	r18,r2
	MDLSynErr = MipiBridgeRegRead(MIPI_REG_MDLSynErr);
   21f0c:	00214800 	call	21480 <MipiBridgeRegRead>
	FrmErrCnt = MipiBridgeRegRead(MIPI_REG_FrmErrCnt);
   21f10:	01002004 	movi	r4,128

	alt_u16 PHY_status, SCI_status, MDLSynErr, FrmErrCnt, MDLErrCnt;

	PHY_status = MipiBridgeRegRead(MIPI_REG_PHYSta);
	SCI_status = MipiBridgeRegRead(MIPI_REG_CSIStatus);
	MDLSynErr = MipiBridgeRegRead(MIPI_REG_MDLSynErr);
   21f14:	1027883a 	mov	r19,r2
	FrmErrCnt = MipiBridgeRegRead(MIPI_REG_FrmErrCnt);
   21f18:	00214800 	call	21480 <MipiBridgeRegRead>
	MDLErrCnt = MipiBridgeRegRead(MIPI_REG_MDLErrCnt);
   21f1c:	01002404 	movi	r4,144
	alt_u16 PHY_status, SCI_status, MDLSynErr, FrmErrCnt, MDLErrCnt;

	PHY_status = MipiBridgeRegRead(MIPI_REG_PHYSta);
	SCI_status = MipiBridgeRegRead(MIPI_REG_CSIStatus);
	MDLSynErr = MipiBridgeRegRead(MIPI_REG_MDLSynErr);
	FrmErrCnt = MipiBridgeRegRead(MIPI_REG_FrmErrCnt);
   21f20:	1021883a 	mov	r16,r2
	MDLErrCnt = MipiBridgeRegRead(MIPI_REG_MDLErrCnt);
   21f24:	00214800 	call	21480 <MipiBridgeRegRead>
	printf("PHY_status=%xh, CSI_status=%xh, MDLSynErr=%xh, FrmErrCnt=%xh, MDLErrCnt=%xh\r\n", PHY_status, SCI_status, MDLSynErr,FrmErrCnt, MDLErrCnt);
   21f28:	10bfffcc 	andi	r2,r2,65535
   21f2c:	843fffcc 	andi	r16,r16,65535
   21f30:	010000b4 	movhi	r4,2
   21f34:	d8800115 	stw	r2,4(sp)
   21f38:	dc000015 	stw	r16,0(sp)
   21f3c:	99ffffcc 	andi	r7,r19,65535
   21f40:	91bfffcc 	andi	r6,r18,65535
   21f44:	897fffcc 	andi	r5,r17,65535
   21f48:	2113bd04 	addi	r4,r4,20212
   21f4c:	0022c1c0 	call	22c1c <printf>
}
   21f50:	dfc00617 	ldw	ra,24(sp)
   21f54:	dcc00517 	ldw	r19,20(sp)
   21f58:	dc800417 	ldw	r18,16(sp)
   21f5c:	dc400317 	ldw	r17,12(sp)
   21f60:	dc000217 	ldw	r16,8(sp)
   21f64:	dec00704 	addi	sp,sp,28
   21f68:	f800283a 	ret

00021f6c <mipi_show_error_info_more>:

void mipi_show_error_info_more(void){
   21f6c:	deffff04 	addi	sp,sp,-4
    printf("FrmErrCnt = %d\n",MipiBridgeRegRead(0x0080));
   21f70:	01002004 	movi	r4,128
	FrmErrCnt = MipiBridgeRegRead(MIPI_REG_FrmErrCnt);
	MDLErrCnt = MipiBridgeRegRead(MIPI_REG_MDLErrCnt);
	printf("PHY_status=%xh, CSI_status=%xh, MDLSynErr=%xh, FrmErrCnt=%xh, MDLErrCnt=%xh\r\n", PHY_status, SCI_status, MDLSynErr,FrmErrCnt, MDLErrCnt);
}

void mipi_show_error_info_more(void){
   21f74:	dfc00015 	stw	ra,0(sp)
    printf("FrmErrCnt = %d\n",MipiBridgeRegRead(0x0080));
   21f78:	00214800 	call	21480 <MipiBridgeRegRead>
   21f7c:	010000b4 	movhi	r4,2
   21f80:	100b883a 	mov	r5,r2
   21f84:	2113d104 	addi	r4,r4,20292
   21f88:	0022c1c0 	call	22c1c <printf>
    printf("CRCErrCnt = %d\n",MipiBridgeRegRead(0x0082));
   21f8c:	01002084 	movi	r4,130
   21f90:	00214800 	call	21480 <MipiBridgeRegRead>
   21f94:	010000b4 	movhi	r4,2
   21f98:	100b883a 	mov	r5,r2
   21f9c:	2113d504 	addi	r4,r4,20308
   21fa0:	0022c1c0 	call	22c1c <printf>
    printf("CorErrCnt = %d\n",MipiBridgeRegRead(0x0084));
   21fa4:	01002104 	movi	r4,132
   21fa8:	00214800 	call	21480 <MipiBridgeRegRead>
   21fac:	010000b4 	movhi	r4,2
   21fb0:	100b883a 	mov	r5,r2
   21fb4:	2113d904 	addi	r4,r4,20324
   21fb8:	0022c1c0 	call	22c1c <printf>
    printf("HdrErrCnt = %d\n",MipiBridgeRegRead(0x0086));
   21fbc:	01002184 	movi	r4,134
   21fc0:	00214800 	call	21480 <MipiBridgeRegRead>
   21fc4:	010000b4 	movhi	r4,2
   21fc8:	100b883a 	mov	r5,r2
   21fcc:	2113dd04 	addi	r4,r4,20340
   21fd0:	0022c1c0 	call	22c1c <printf>
    printf("EIDErrCnt = %d\n",MipiBridgeRegRead(0x0088));
   21fd4:	01002204 	movi	r4,136
   21fd8:	00214800 	call	21480 <MipiBridgeRegRead>
   21fdc:	010000b4 	movhi	r4,2
   21fe0:	100b883a 	mov	r5,r2
   21fe4:	2113e104 	addi	r4,r4,20356
   21fe8:	0022c1c0 	call	22c1c <printf>
    printf("CtlErrCnt = %d\n",MipiBridgeRegRead(0x008A));
   21fec:	01002284 	movi	r4,138
   21ff0:	00214800 	call	21480 <MipiBridgeRegRead>
   21ff4:	010000b4 	movhi	r4,2
   21ff8:	100b883a 	mov	r5,r2
   21ffc:	2113e504 	addi	r4,r4,20372
   22000:	0022c1c0 	call	22c1c <printf>
    printf("SoTErrCnt = %d\n",MipiBridgeRegRead(0x008C));
   22004:	01002304 	movi	r4,140
   22008:	00214800 	call	21480 <MipiBridgeRegRead>
   2200c:	010000b4 	movhi	r4,2
   22010:	100b883a 	mov	r5,r2
   22014:	2113e904 	addi	r4,r4,20388
   22018:	0022c1c0 	call	22c1c <printf>
    printf("SynErrCnt = %d\n",MipiBridgeRegRead(0x008E));
   2201c:	01002384 	movi	r4,142
   22020:	00214800 	call	21480 <MipiBridgeRegRead>
   22024:	010000b4 	movhi	r4,2
   22028:	100b883a 	mov	r5,r2
   2202c:	2113ed04 	addi	r4,r4,20404
   22030:	0022c1c0 	call	22c1c <printf>
    printf("MDLErrCnt = %d\n",MipiBridgeRegRead(0x0090));
   22034:	01002404 	movi	r4,144
   22038:	00214800 	call	21480 <MipiBridgeRegRead>
   2203c:	010000b4 	movhi	r4,2
   22040:	100b883a 	mov	r5,r2
   22044:	2113f104 	addi	r4,r4,20420
   22048:	0022c1c0 	call	22c1c <printf>
    printf("FIFOSTATUS = %d\n",MipiBridgeRegRead(0x00F8));
   2204c:	01003e04 	movi	r4,248
   22050:	00214800 	call	21480 <MipiBridgeRegRead>
   22054:	010000b4 	movhi	r4,2
   22058:	100b883a 	mov	r5,r2
   2205c:	2113f504 	addi	r4,r4,20436
   22060:	0022c1c0 	call	22c1c <printf>
    printf("DataType = 0x%04x\n",MipiBridgeRegRead(0x006A));
   22064:	01001a84 	movi	r4,106
   22068:	00214800 	call	21480 <MipiBridgeRegRead>
   2206c:	010000b4 	movhi	r4,2
   22070:	100b883a 	mov	r5,r2
   22074:	2113fa04 	addi	r4,r4,20456
   22078:	0022c1c0 	call	22c1c <printf>
    printf("CSIPktLen = %d\n",MipiBridgeRegRead(0x006E));
   2207c:	01001b84 	movi	r4,110
   22080:	00214800 	call	21480 <MipiBridgeRegRead>
   22084:	010000b4 	movhi	r4,2
   22088:	100b883a 	mov	r5,r2
   2208c:	2113ff04 	addi	r4,r4,20476
}
   22090:	dfc00017 	ldw	ra,0(sp)
   22094:	dec00104 	addi	sp,sp,4
    printf("SoTErrCnt = %d\n",MipiBridgeRegRead(0x008C));
    printf("SynErrCnt = %d\n",MipiBridgeRegRead(0x008E));
    printf("MDLErrCnt = %d\n",MipiBridgeRegRead(0x0090));
    printf("FIFOSTATUS = %d\n",MipiBridgeRegRead(0x00F8));
    printf("DataType = 0x%04x\n",MipiBridgeRegRead(0x006A));
    printf("CSIPktLen = %d\n",MipiBridgeRegRead(0x006E));
   22098:	0022c1c1 	jmpi	22c1c <printf>

0002209c <MIPI_Init>:

bool MIPI_Init(void){
	bool bSuccess;


	bSuccess = oc_i2c_init_ex(I2C_OPENCORES_MIPI_BASE, 50*1000*1000,400*1000); //I2C: 400K
   2209c:	018001b4 	movhi	r6,6
   220a0:	0140bef4 	movhi	r5,763
   220a4:	01000174 	movhi	r4,5
    printf("CSIPktLen = %d\n",MipiBridgeRegRead(0x006E));
}



bool MIPI_Init(void){
   220a8:	defffe04 	addi	sp,sp,-8
	bool bSuccess;


	bSuccess = oc_i2c_init_ex(I2C_OPENCORES_MIPI_BASE, 50*1000*1000,400*1000); //I2C: 400K
   220ac:	3186a004 	addi	r6,r6,6784
   220b0:	297c2004 	addi	r5,r5,-3968
   220b4:	21069804 	addi	r4,r4,6752
    printf("CSIPktLen = %d\n",MipiBridgeRegRead(0x006E));
}



bool MIPI_Init(void){
   220b8:	dc000015 	stw	r16,0(sp)
   220bc:	dfc00115 	stw	ra,4(sp)
	bool bSuccess;


	bSuccess = oc_i2c_init_ex(I2C_OPENCORES_MIPI_BASE, 50*1000*1000,400*1000); //I2C: 400K
   220c0:	00200a00 	call	200a0 <oc_i2c_init_ex>
   220c4:	1021883a 	mov	r16,r2
	if (!bSuccess)
   220c8:	1000031e 	bne	r2,zero,220d8 <MIPI_Init+0x3c>
		printf("failed to init MIPI- Bridge i2c\r\n");
   220cc:	010000b4 	movhi	r4,2
   220d0:	21140304 	addi	r4,r4,20492
   220d4:	0022d0c0 	call	22d0c <puts>

    usleep(50*1000);
   220d8:	0130d414 	movui	r4,50000
   220dc:	002417c0 	call	2417c <usleep>
    MipiBridgeInit();
   220e0:	00214c40 	call	214c4 <MipiBridgeInit>

    usleep(500*1000);
   220e4:	01000234 	movhi	r4,8
   220e8:	21284804 	addi	r4,r4,-24288
   220ec:	002417c0 	call	2417c <usleep>

    MipiCameraInit();
   220f0:	0021ce40 	call	21ce4 <MipiCameraInit>
    MIPI_BIN_LEVEL(DEFAULT_LEVEL);
   220f4:	010000c4 	movi	r4,3
   220f8:	0021b580 	call	21b58 <MIPI_BIN_LEVEL>

 	usleep(1000);
   220fc:	0100fa04 	movi	r4,1000
   22100:	002417c0 	call	2417c <usleep>
	return bSuccess;
}
   22104:	8005883a 	mov	r2,r16
   22108:	dfc00117 	ldw	ra,4(sp)
   2210c:	dc000017 	ldw	r16,0(sp)
   22110:	dec00204 	addi	sp,sp,8
   22114:	f800283a 	ret

00022118 <wait_sop>:

void wait_eop(){
	usleep(100000);
}
void wait_sop(){
	usleep(100000);
   22118:	010000b4 	movhi	r4,2
   2211c:	2121a804 	addi	r4,r4,-31072
   22120:	002417c1 	jmpi	2417c <usleep>

00022124 <wait_eop>:
   22124:	00221181 	jmpi	22118 <wait_sop>

00022128 <to_hex_code>:
}



int to_hex_code (int r, int g, int b){
	return (r<<16) + (g<<8) +  b;
   22128:	2008943a 	slli	r4,r4,16
   2212c:	280a923a 	slli	r5,r5,8
   22130:	2145883a 	add	r2,r4,r5
}
   22134:	1185883a 	add	r2,r2,r6
   22138:	f800283a 	ret

0002213c <initialize_observations>:


struct observation* initialize_observations(){

	struct observation* arr = malloc(number_observations * sizeof(struct observation));
   2213c:	d1200417 	ldw	r4,-32752(gp)
int to_hex_code (int r, int g, int b){
	return (r<<16) + (g<<8) +  b;
}


struct observation* initialize_observations(){
   22140:	deffff04 	addi	sp,sp,-4
   22144:	dfc00015 	stw	ra,0(sp)

	struct observation* arr = malloc(number_observations * sizeof(struct observation));
   22148:	21000b24 	muli	r4,r4,44
   2214c:	002297c0 	call	2297c <malloc>
//	arr[1].mask_bottom = to_hex_code(175,140,150);
//	arr[1].mask_top = to_hex_code(180,255,250);
//	arr[1].threshold = 192;

	//Initialize lime ball parameters +
	arr[2].code = 'L';
   22150:	01401304 	movi	r5,76
   22154:	11401605 	stb	r5,88(r2)
	arr[2].mask_bottom = to_hex_code(55,60,100);
   22158:	01400df4 	movhi	r5,55
   2215c:	294f1904 	addi	r5,r5,15460
   22160:	11401715 	stw	r5,92(r2)
	arr[2].mask_top = to_hex_code(75,160,250);
   22164:	01401334 	movhi	r5,76
   22168:	29683e84 	addi	r5,r5,-24326
   2216c:	11401815 	stw	r5,96(r2)
	arr[2].threshold = 192;

	//Initialize blue ball parameters --
	arr[3].code = 'B';
   22170:	01401084 	movi	r5,66
   22174:	11402105 	stb	r5,132(r2)
	arr[3].mask_bottom = to_hex_code(105,80,50);
   22178:	01401a74 	movhi	r5,105
   2217c:	29540c84 	addi	r5,r5,20530
   22180:	11402215 	stw	r5,136(r2)
	arr[3].mask_top = to_hex_code(125,255,128);
   22184:	01401fb4 	movhi	r5,126
   22188:	297fe004 	addi	r5,r5,-128
   2218c:	11402315 	stw	r5,140(r2)
	arr[3].threshold = 192;

	//Initialize yellow ball parameters
	arr[4].code = 'Y';
   22190:	01401644 	movi	r5,89
   22194:	11402c05 	stb	r5,176(r2)
	arr[4].mask_bottom = to_hex_code(8,100,180);
   22198:	01400234 	movhi	r5,8
   2219c:	29592d04 	addi	r5,r5,25780
   221a0:	11402d15 	stw	r5,180(r2)
	arr[4].mask_top = to_hex_code(25,140,240);
   221a4:	014006b4 	movhi	r5,26
   221a8:	29633c04 	addi	r5,r5,-29456
   221ac:	11402e15 	stw	r5,184(r2)
	arr[4].threshold = 192;

	//Initialize green ball parameters
	arr[5].code = 'G';
   221b0:	014011c4 	movi	r5,71
   221b4:	11403705 	stb	r5,220(r2)
	arr[5].mask_bottom = to_hex_code(80,60,50);
   221b8:	01401434 	movhi	r5,80
   221bc:	294f0c84 	addi	r5,r5,15410
   221c0:	11403815 	stw	r5,224(r2)
	arr[5].mask_top = to_hex_code(90,128, 128);
   221c4:	014016f4 	movhi	r5,91
struct observation* initialize_observations(){

	struct observation* arr = malloc(number_observations * sizeof(struct observation));

//Initialize Red low ball parameters --
	arr[1].code = 'R';
   221c8:	01001484 	movi	r4,82
	arr[4].threshold = 192;

	//Initialize green ball parameters
	arr[5].code = 'G';
	arr[5].mask_bottom = to_hex_code(80,60,50);
	arr[5].mask_top = to_hex_code(90,128, 128);
   221cc:	29602004 	addi	r5,r5,-32640
struct observation* initialize_observations(){

	struct observation* arr = malloc(number_observations * sizeof(struct observation));

//Initialize Red low ball parameters --
	arr[1].code = 'R';
   221d0:	11000b05 	stb	r4,44(r2)
	arr[4].threshold = 192;

	//Initialize green ball parameters
	arr[5].code = 'G';
	arr[5].mask_bottom = to_hex_code(80,60,50);
	arr[5].mask_top = to_hex_code(90,128, 128);
   221d4:	11403915 	stw	r5,228(r2)

	struct observation* arr = malloc(number_observations * sizeof(struct observation));

//Initialize Red low ball parameters --
	arr[1].code = 'R';
	arr[1].mask_bottom = to_hex_code(0,140,150);
   221d8:	01232594 	movui	r4,35990
	arr[5].mask_top = to_hex_code(90,128, 128);
	arr[5].threshold = 192;


	//Initialize pink ball parameters +
	arr[6].code = 'P';
   221dc:	01401404 	movi	r5,80

	struct observation* arr = malloc(number_observations * sizeof(struct observation));

//Initialize Red low ball parameters --
	arr[1].code = 'R';
	arr[1].mask_bottom = to_hex_code(0,140,150);
   221e0:	11000c15 	stw	r4,48(r2)
	arr[5].mask_top = to_hex_code(90,128, 128);
	arr[5].threshold = 192;


	//Initialize pink ball parameters +
	arr[6].code = 'P';
   221e4:	11404205 	stb	r5,264(r2)
	struct observation* arr = malloc(number_observations * sizeof(struct observation));

//Initialize Red low ball parameters --
	arr[1].code = 'R';
	arr[1].mask_bottom = to_hex_code(0,140,150);
	arr[1].mask_top = to_hex_code(8,255,250);
   221e8:	01000274 	movhi	r4,9

	//Initialize pink ball parameters +
	arr[6].code = 'P';
//	arr[6].mask_bottom = to_hex_code(160,80,150);
//	arr[6].mask_top = to_hex_code(180,128,255);
	arr[6].mask_bottom = to_hex_code(0,80,150);
   221ec:	01542584 	movi	r5,20630
	struct observation* arr = malloc(number_observations * sizeof(struct observation));

//Initialize Red low ball parameters --
	arr[1].code = 'R';
	arr[1].mask_bottom = to_hex_code(0,140,150);
	arr[1].mask_top = to_hex_code(8,255,250);
   221f0:	213ffe84 	addi	r4,r4,-6

	//Initialize pink ball parameters +
	arr[6].code = 'P';
//	arr[6].mask_bottom = to_hex_code(160,80,150);
//	arr[6].mask_top = to_hex_code(180,128,255);
	arr[6].mask_bottom = to_hex_code(0,80,150);
   221f4:	11404315 	stw	r5,268(r2)
	arr[6].mask_top = to_hex_code(10,128,250);
   221f8:	014002f4 	movhi	r5,11
	struct observation* arr = malloc(number_observations * sizeof(struct observation));

//Initialize Red low ball parameters --
	arr[1].code = 'R';
	arr[1].mask_bottom = to_hex_code(0,140,150);
	arr[1].mask_top = to_hex_code(8,255,250);
   221fc:	11000d15 	stw	r4,52(r2)
	//Initialize pink ball parameters +
	arr[6].code = 'P';
//	arr[6].mask_bottom = to_hex_code(160,80,150);
//	arr[6].mask_top = to_hex_code(180,128,255);
	arr[6].mask_bottom = to_hex_code(0,80,150);
	arr[6].mask_top = to_hex_code(10,128,250);
   22200:	29603e84 	addi	r5,r5,-32518

//Initialize Red low ball parameters --
	arr[1].code = 'R';
	arr[1].mask_bottom = to_hex_code(0,140,150);
	arr[1].mask_top = to_hex_code(8,255,250);
	arr[1].threshold = 192;
   22204:	01003004 	movi	r4,192
   22208:	11000e15 	stw	r4,56(r2)

	//Initialize lime ball parameters +
	arr[2].code = 'L';
	arr[2].mask_bottom = to_hex_code(55,60,100);
	arr[2].mask_top = to_hex_code(75,160,250);
	arr[2].threshold = 192;
   2220c:	11001915 	stw	r4,100(r2)

	//Initialize blue ball parameters --
	arr[3].code = 'B';
	arr[3].mask_bottom = to_hex_code(105,80,50);
	arr[3].mask_top = to_hex_code(125,255,128);
	arr[3].threshold = 192;
   22210:	11002415 	stw	r4,144(r2)

	//Initialize yellow ball parameters
	arr[4].code = 'Y';
	arr[4].mask_bottom = to_hex_code(8,100,180);
	arr[4].mask_top = to_hex_code(25,140,240);
	arr[4].threshold = 192;
   22214:	11002f15 	stw	r4,188(r2)

	//Initialize green ball parameters
	arr[5].code = 'G';
	arr[5].mask_bottom = to_hex_code(80,60,50);
	arr[5].mask_top = to_hex_code(90,128, 128);
	arr[5].threshold = 192;
   22218:	11003a15 	stw	r4,232(r2)
	//Initialize pink ball parameters +
	arr[6].code = 'P';
//	arr[6].mask_bottom = to_hex_code(160,80,150);
//	arr[6].mask_top = to_hex_code(180,128,255);
	arr[6].mask_bottom = to_hex_code(0,80,150);
	arr[6].mask_top = to_hex_code(10,128,250);
   2221c:	11404415 	stw	r5,272(r2)
	arr[6].threshold = 192;
   22220:	11004515 	stw	r4,276(r2)

	//Initialize Building 1 parameters
	arr[7].code = 'W';
	arr[7].mask_bottom = to_hex_code(0,00,0);
	arr[7].mask_top = to_hex_code(255, 255, 255);
   22224:	01404034 	movhi	r5,256
	arr[6].mask_bottom = to_hex_code(0,80,150);
	arr[6].mask_top = to_hex_code(10,128,250);
	arr[6].threshold = 192;

	//Initialize Building 1 parameters
	arr[7].code = 'W';
   22228:	010015c4 	movi	r4,87
	arr[7].mask_bottom = to_hex_code(0,00,0);
	arr[7].mask_top = to_hex_code(255, 255, 255);
   2222c:	297fffc4 	addi	r5,r5,-1
	arr[6].mask_bottom = to_hex_code(0,80,150);
	arr[6].mask_top = to_hex_code(10,128,250);
	arr[6].threshold = 192;

	//Initialize Building 1 parameters
	arr[7].code = 'W';
   22230:	11004d05 	stb	r4,308(r2)
	arr[7].mask_top = to_hex_code(255, 255, 255);
	arr[7].threshold = 64;


	//Initialize Building 2 parameters --
	arr[8].code = 'X';
   22234:	01801604 	movi	r6,88

	//Initialize Building 1 parameters
	arr[7].code = 'W';
	arr[7].mask_bottom = to_hex_code(0,00,0);
	arr[7].mask_top = to_hex_code(255, 255, 255);
	arr[7].threshold = 64;
   22238:	01001004 	movi	r4,64
	arr[6].mask_top = to_hex_code(10,128,250);
	arr[6].threshold = 192;

	//Initialize Building 1 parameters
	arr[7].code = 'W';
	arr[7].mask_bottom = to_hex_code(0,00,0);
   2223c:	10004e15 	stw	zero,312(r2)
	arr[7].mask_top = to_hex_code(255, 255, 255);
   22240:	11404f15 	stw	r5,316(r2)
	arr[7].threshold = 64;
   22244:	11005015 	stw	r4,320(r2)


	//Initialize Building 2 parameters --
	arr[8].code = 'X';
   22248:	11805805 	stb	r6,352(r2)
	arr[8].mask_bottom = to_hex_code(0,0,0);
   2224c:	10005915 	stw	zero,356(r2)
	arr[8].mask_top = to_hex_code(255, 255, 255);
   22250:	11405a15 	stw	r5,360(r2)
	arr[8].threshold = 64;
   22254:	11005b15 	stw	r4,364(r2)

	return arr;
}
   22258:	dfc00017 	ldw	ra,0(sp)
   2225c:	dec00104 	addi	sp,sp,4
   22260:	f800283a 	ret

00022264 <merge_observations>:

void merge_observations (struct observation* base, struct observation* merge){
   22264:	defffa04 	addi	sp,sp,-24
	base->com_x = (base->com_x * base-> mass +  merge->com_x * merge->mass )/ (base->mass + merge->mass) ;
   22268:	28800417 	ldw	r2,16(r5)
	arr[8].threshold = 64;

	return arr;
}

void merge_observations (struct observation* base, struct observation* merge){
   2226c:	dd000415 	stw	r20,16(sp)
   22270:	dcc00315 	stw	r19,12(sp)
	base->com_x = (base->com_x * base-> mass +  merge->com_x * merge->mass )/ (base->mass + merge->mass) ;
   22274:	25000617 	ldw	r20,24(r4)
   22278:	2cc00617 	ldw	r19,24(r5)
	arr[8].threshold = 64;

	return arr;
}

void merge_observations (struct observation* base, struct observation* merge){
   2227c:	dc000015 	stw	r16,0(sp)
   22280:	2021883a 	mov	r16,r4
	base->com_x = (base->com_x * base-> mass +  merge->com_x * merge->mass )/ (base->mass + merge->mass) ;
   22284:	21000417 	ldw	r4,16(r4)
   22288:	9885383a 	mul	r2,r19,r2
	arr[8].threshold = 64;

	return arr;
}

void merge_observations (struct observation* base, struct observation* merge){
   2228c:	dc800215 	stw	r18,8(sp)
	base->com_x = (base->com_x * base-> mass +  merge->com_x * merge->mass )/ (base->mass + merge->mass) ;
   22290:	a109383a 	mul	r4,r20,r4
   22294:	a4e5883a 	add	r18,r20,r19
	arr[8].threshold = 64;

	return arr;
}

void merge_observations (struct observation* base, struct observation* merge){
   22298:	dc400115 	stw	r17,4(sp)
	base->com_x = (base->com_x * base-> mass +  merge->com_x * merge->mass )/ (base->mass + merge->mass) ;
   2229c:	2089883a 	add	r4,r4,r2
	arr[8].threshold = 64;

	return arr;
}

void merge_observations (struct observation* base, struct observation* merge){
   222a0:	2823883a 	mov	r17,r5
	base->com_x = (base->com_x * base-> mass +  merge->com_x * merge->mass )/ (base->mass + merge->mass) ;
   222a4:	900b883a 	mov	r5,r18
	arr[8].threshold = 64;

	return arr;
}

void merge_observations (struct observation* base, struct observation* merge){
   222a8:	dfc00515 	stw	ra,20(sp)
	base->com_x = (base->com_x * base-> mass +  merge->com_x * merge->mass )/ (base->mass + merge->mass) ;
   222ac:	00227c80 	call	227c8 <__divsi3>
   222b0:	80800415 	stw	r2,16(r16)
	base->com_y = (base->com_y * base-> mass +  merge->com_y * merge->mass )/ (base->mass + merge->mass) ;
   222b4:	81000517 	ldw	r4,20(r16)
   222b8:	88800517 	ldw	r2,20(r17)
   222bc:	900b883a 	mov	r5,r18
   222c0:	a109383a 	mul	r4,r20,r4
   222c4:	9885383a 	mul	r2,r19,r2
   222c8:	2089883a 	add	r4,r4,r2
   222cc:	00227c80 	call	227c8 <__divsi3>
   222d0:	80800515 	stw	r2,20(r16)
	base->mass = base->mass + merge->mass;

	base->bb_left = (base->bb_left < merge ->bb_left )? base->bb_left : merge ->bb_left;
   222d4:	80c00717 	ldw	r3,28(r16)
   222d8:	88800717 	ldw	r2,28(r17)
}

void merge_observations (struct observation* base, struct observation* merge){
	base->com_x = (base->com_x * base-> mass +  merge->com_x * merge->mass )/ (base->mass + merge->mass) ;
	base->com_y = (base->com_y * base-> mass +  merge->com_y * merge->mass )/ (base->mass + merge->mass) ;
	base->mass = base->mass + merge->mass;
   222dc:	84800615 	stw	r18,24(r16)

	base->bb_left = (base->bb_left < merge ->bb_left )? base->bb_left : merge ->bb_left;
   222e0:	1880010e 	bge	r3,r2,222e8 <merge_observations+0x84>
   222e4:	1805883a 	mov	r2,r3
   222e8:	80800715 	stw	r2,28(r16)
	base->bb_top = (base->bb_top < merge ->bb_top )? base->bb_top : merge ->bb_top;
   222ec:	80c00817 	ldw	r3,32(r16)
   222f0:	88800817 	ldw	r2,32(r17)
   222f4:	1880010e 	bge	r3,r2,222fc <merge_observations+0x98>
   222f8:	1805883a 	mov	r2,r3
   222fc:	80800815 	stw	r2,32(r16)
	base->bb_right = (base->bb_right > merge ->bb_right )? base->bb_right : merge ->bb_right;
   22300:	80c00917 	ldw	r3,36(r16)
   22304:	88800917 	ldw	r2,36(r17)
   22308:	10c0010e 	bge	r2,r3,22310 <merge_observations+0xac>
   2230c:	1805883a 	mov	r2,r3
   22310:	80800915 	stw	r2,36(r16)
	base->bb_bottom = (base->bb_bottom > merge ->bb_bottom )? base->bb_bottom : merge ->bb_bottom;
   22314:	80c00a17 	ldw	r3,40(r16)
   22318:	88800a17 	ldw	r2,40(r17)
   2231c:	10c0010e 	bge	r2,r3,22324 <merge_observations+0xc0>
   22320:	1805883a 	mov	r2,r3
   22324:	80800a15 	stw	r2,40(r16)
}
   22328:	dfc00517 	ldw	ra,20(sp)
   2232c:	dd000417 	ldw	r20,16(sp)
   22330:	dcc00317 	ldw	r19,12(sp)
   22334:	dc800217 	ldw	r18,8(sp)
   22338:	dc400117 	ldw	r17,4(sp)
   2233c:	dc000017 	ldw	r16,0(sp)
   22340:	dec00604 	addi	sp,sp,24
   22344:	f800283a 	ret

00022348 <print_observations>:


#define UART_DEBUG 1

void print_observations (struct observation* obs) {
   22348:	defff204 	addi	sp,sp,-56
   2234c:	dd400b15 	stw	r21,44(sp)
   22350:	dd000a15 	stw	r20,40(sp)
   22354:	dcc00915 	stw	r19,36(sp)
   22358:	dc800815 	stw	r18,32(sp)
   2235c:	dc400715 	stw	r17,28(sp)
   22360:	dc000615 	stw	r16,24(sp)
   22364:	dfc00d15 	stw	ra,52(sp)
   22368:	dd800c15 	stw	r22,48(sp)
   2236c:	24000b04 	addi	r16,r4,44
   22370:	24c00f04 	addi	r19,r4,60
   22374:	25001004 	addi	r20,r4,64
   22378:	25401104 	addi	r21,r4,68
   2237c:	24401204 	addi	r17,r4,72
	static char observation_buf[64];

	for (int i = 1; i < number_observations-2 ; i++){
   22380:	04800044 	movi	r18,1
   22384:	d0a00417 	ldw	r2,-32752(gp)
   22388:	10bfff84 	addi	r2,r2,-2
   2238c:	90802e0e 	bge	r18,r2,22448 <print_observations+0x100>
//				if (obs[i].code == 'R'){
//					merge_observations(&obs[i], &obs[i+1]);
//					i++;
//				}

		sprintf(observation_buf, "%c %x %x %x %x %x %x %x", obs[i].code, obs[i].com_x,
   22390:	80800a17 	ldw	r2,40(r16)
   22394:	81800007 	ldb	r6,0(r16)
   22398:	014000b4 	movhi	r5,2
   2239c:	d8800515 	stw	r2,20(sp)
   223a0:	80800917 	ldw	r2,36(r16)
   223a4:	010000b4 	movhi	r4,2
   223a8:	29540c04 	addi	r5,r5,20528
   223ac:	d8800415 	stw	r2,16(sp)
   223b0:	80800817 	ldw	r2,32(r16)
   223b4:	2114ff04 	addi	r4,r4,21500
   223b8:	d8800315 	stw	r2,12(sp)
   223bc:	88800017 	ldw	r2,0(r17)
   223c0:	d8800215 	stw	r2,8(sp)
   223c4:	a8800017 	ldw	r2,0(r21)
   223c8:	d8800115 	stw	r2,4(sp)
   223cc:	a0800017 	ldw	r2,0(r20)
   223d0:	d8800015 	stw	r2,0(sp)
   223d4:	99c00017 	ldw	r7,0(r19)
   223d8:	0022dd40 	call	22dd4 <sprintf>
				obs[i].com_y, obs[i].mass, obs[i].bb_left, obs[i].bb_top,
				obs[i].bb_right, obs[i].bb_bottom);

		if (UART_DEBUG){

			printf ("%s", observation_buf);
   223dc:	014000b4 	movhi	r5,2
   223e0:	010000b4 	movhi	r4,2
   223e4:	2954ff04 	addi	r5,r5,21500
   223e8:	21141204 	addi	r4,r4,20552
   223ec:	0022c1c0 	call	22c1c <printf>

			//Last iteration
			if(i == number_observations-3 ){
   223f0:	d0a00417 	ldw	r2,-32752(gp)
   223f4:	10bfff44 	addi	r2,r2,-3
   223f8:	9080031e 	bne	r18,r2,22408 <print_observations+0xc0>
				printf ("\n");
   223fc:	01000284 	movi	r4,10
   22400:	0022c700 	call	22c70 <putchar>
   22404:	00000306 	br	22414 <print_observations+0xcc>
			} else{
				printf (" ,");
   22408:	010000b4 	movhi	r4,2
   2240c:	21141304 	addi	r4,r4,20556
   22410:	0022c1c0 	call	22c1c <printf>

			}
			while (alt_getchar() != 'A'){
   22414:	05801044 	movi	r22,65
   22418:	0023d3c0 	call	23d3c <alt_getchar>
   2241c:	15800326 	beq	r2,r22,2242c <print_observations+0xe4>
				usleep(1);
   22420:	01000044 	movi	r4,1
   22424:	002417c0 	call	2417c <usleep>
   22428:	003ffb06 	br	22418 <__alt_data_end+0xfffe4f58>
#define UART_DEBUG 1

void print_observations (struct observation* obs) {
	static char observation_buf[64];

	for (int i = 1; i < number_observations-2 ; i++){
   2242c:	94800044 	addi	r18,r18,1
   22430:	84000b04 	addi	r16,r16,44
   22434:	9cc00b04 	addi	r19,r19,44
   22438:	a5000b04 	addi	r20,r20,44
   2243c:	ad400b04 	addi	r21,r21,44
   22440:	8c400b04 	addi	r17,r17,44
   22444:	003fcf06 	br	22384 <__alt_data_end+0xfffe4ec4>
			while (alt_getchar() != 'A'){
				usleep(1);
			}
		}
	}
}
   22448:	dfc00d17 	ldw	ra,52(sp)
   2244c:	dd800c17 	ldw	r22,48(sp)
   22450:	dd400b17 	ldw	r21,44(sp)
   22454:	dd000a17 	ldw	r20,40(sp)
   22458:	dcc00917 	ldw	r19,36(sp)
   2245c:	dc800817 	ldw	r18,32(sp)
   22460:	dc400717 	ldw	r17,28(sp)
   22464:	dc000617 	ldw	r16,24(sp)
   22468:	dec00e04 	addi	sp,sp,56
   2246c:	f800283a 	ret

00022470 <auto_gain>:

void auto_gain(int target, int epsilon){
   22470:	defffa04 	addi	sp,sp,-24
   22474:	dc800215 	stw	r18,8(sp)
   22478:	2025883a 	mov	r18,r4
	int currentgain = 0x280;
	OV8865SetGain(currentgain);
   2247c:	0100a004 	movi	r4,640
			}
		}
	}
}

void auto_gain(int target, int epsilon){
   22480:	dfc00515 	stw	ra,20(sp)
   22484:	dd000415 	stw	r20,16(sp)
   22488:	dcc00315 	stw	r19,12(sp)
   2248c:	dc400115 	stw	r17,4(sp)
   22490:	2827883a 	mov	r19,r5
   22494:	dc000015 	stw	r16,0(sp)
	int currentgain = 0x280;
	OV8865SetGain(currentgain);
   22498:	00217880 	call	21788 <OV8865SetGain>
	usleep(100000);
   2249c:	010000b4 	movhi	r4,2
   224a0:	2121a804 	addi	r4,r4,-31072
   224a4:	002417c0 	call	2417c <usleep>

	int value = OV8865ReadAvg();
   224a8:	0021a600 	call	21a60 <OV8865ReadAvg>
	int delta = target - value;
   224ac:	90a3c83a 	sub	r17,r18,r2
		}
	}
}

void auto_gain(int target, int epsilon){
	int currentgain = 0x280;
   224b0:	0400a004 	movi	r16,640

	int value = OV8865ReadAvg();
	int delta = target - value;
	int kp = 1;

	while ( delta > epsilon || delta < -epsilon){
   224b4:	04e9c83a 	sub	r20,zero,r19
   224b8:	9c40100e 	bge	r19,r17,224fc <auto_gain+0x8c>
		currentgain = currentgain + delta*kp;
   224bc:	8461883a 	add	r16,r16,r17
   224c0:	8000010e 	bge	r16,zero,224c8 <auto_gain+0x58>
   224c4:	0021883a 	mov	r16,zero
		if (currentgain < 0) currentgain = 0;
		OV8865SetGain(currentgain);
   224c8:	8009883a 	mov	r4,r16
   224cc:	00217880 	call	21788 <OV8865SetGain>
		usleep(100000);
   224d0:	010000b4 	movhi	r4,2
   224d4:	2121a804 	addi	r4,r4,-31072
   224d8:	002417c0 	call	2417c <usleep>

		value = OV8865ReadAvg();
   224dc:	0021a600 	call	21a60 <OV8865ReadAvg>
		delta = target - value;
   224e0:	90a3c83a 	sub	r17,r18,r2

		printf("Delta: %d, gain: %d\n", delta, currentgain);
   224e4:	010000b4 	movhi	r4,2
   224e8:	800d883a 	mov	r6,r16
   224ec:	880b883a 	mov	r5,r17
   224f0:	21141504 	addi	r4,r4,20564
   224f4:	0022c1c0 	call	22c1c <printf>
   224f8:	003fef06 	br	224b8 <__alt_data_end+0xfffe4ff8>

	int value = OV8865ReadAvg();
	int delta = target - value;
	int kp = 1;

	while ( delta > epsilon || delta < -epsilon){
   224fc:	8d3fef16 	blt	r17,r20,224bc <__alt_data_end+0xfffe4ffc>
		delta = target - value;

		printf("Delta: %d, gain: %d\n", delta, currentgain);
	}

}
   22500:	dfc00517 	ldw	ra,20(sp)
   22504:	dd000417 	ldw	r20,16(sp)
   22508:	dcc00317 	ldw	r19,12(sp)
   2250c:	dc800217 	ldw	r18,8(sp)
   22510:	dc400117 	ldw	r17,4(sp)
   22514:	dc000017 	ldw	r16,0(sp)
   22518:	dec00604 	addi	sp,sp,24
   2251c:	f800283a 	ret

00022520 <auto_wb>:

void auto_wb(int target, int epsilon){
   22520:	defff904 	addi	sp,sp,-28
   22524:	dc800215 	stw	r18,8(sp)
   22528:	2025883a 	mov	r18,r4
	int delay = 100000;
	int kp = 1;
	alt_u32 value2;
	//Red Balance
	int currentgain = 0x400;
	OV8865SetRedGain(currentgain);
   2252c:	01010004 	movi	r4,1024
		printf("Delta: %d, gain: %d\n", delta, currentgain);
	}

}

void auto_wb(int target, int epsilon){
   22530:	dfc00615 	stw	ra,24(sp)
   22534:	dcc00315 	stw	r19,12(sp)
   22538:	dc400115 	stw	r17,4(sp)
   2253c:	2827883a 	mov	r19,r5
   22540:	dd400515 	stw	r21,20(sp)
   22544:	dd000415 	stw	r20,16(sp)
   22548:	dc000015 	stw	r16,0(sp)
	int delay = 100000;
	int kp = 1;
	alt_u32 value2;
	//Red Balance
	int currentgain = 0x400;
	OV8865SetRedGain(currentgain);
   2254c:	00218800 	call	21880 <OV8865SetRedGain>
	usleep(delay);
   22550:	010000b4 	movhi	r4,2
   22554:	2121a804 	addi	r4,r4,-31072
	 alt_u32 value = ((IORD(PIXEL_GRABBER_RGB_BASE, GRAB_VALUE)) & 0x00FF0000) >> 16;
   22558:	04400174 	movhi	r17,5
	int kp = 1;
	alt_u32 value2;
	//Red Balance
	int currentgain = 0x400;
	OV8865SetRedGain(currentgain);
	usleep(delay);
   2255c:	002417c0 	call	2417c <usleep>
	 alt_u32 value = ((IORD(PIXEL_GRABBER_RGB_BASE, GRAB_VALUE)) & 0x00FF0000) >> 16;
   22560:	8c463104 	addi	r17,r17,6340
   22564:	8c000037 	ldwio	r16,0(r17)
void auto_wb(int target, int epsilon){
	int delay = 100000;
	int kp = 1;
	alt_u32 value2;
	//Red Balance
	int currentgain = 0x400;
   22568:	05410004 	movi	r21,1024
	OV8865SetRedGain(currentgain);
	usleep(delay);
	 alt_u32 value = ((IORD(PIXEL_GRABBER_RGB_BASE, GRAB_VALUE)) & 0x00FF0000) >> 16;
	int delta = target - value;
   2256c:	84003fec 	andhi	r16,r16,255
   22570:	8021d43a 	srai	r16,r16,16

	while ( delta > epsilon || delta < -epsilon){
   22574:	04e9c83a 	sub	r20,zero,r19
	//Red Balance
	int currentgain = 0x400;
	OV8865SetRedGain(currentgain);
	usleep(delay);
	 alt_u32 value = ((IORD(PIXEL_GRABBER_RGB_BASE, GRAB_VALUE)) & 0x00FF0000) >> 16;
	int delta = target - value;
   22578:	9421c83a 	sub	r16,r18,r16

	while ( delta > epsilon || delta < -epsilon){
   2257c:	9c001d0e 	bge	r19,r16,225f4 <auto_wb+0xd4>
		currentgain = currentgain + delta/4;
   22580:	8000010e 	bge	r16,zero,22588 <auto_wb+0x68>
   22584:	840000c4 	addi	r16,r16,3
   22588:	8021d0ba 	srai	r16,r16,2
   2258c:	856b883a 	add	r21,r16,r21
   22590:	a800010e 	bge	r21,zero,22598 <auto_wb+0x78>
   22594:	002b883a 	mov	r21,zero
		if (currentgain < 0) currentgain = 0;
		OV8865SetRedGain(currentgain);
   22598:	a809883a 	mov	r4,r21
   2259c:	00218800 	call	21880 <OV8865SetRedGain>
		usleep(delay);
   225a0:	010000b4 	movhi	r4,2
   225a4:	2121a804 	addi	r4,r4,-31072
   225a8:	002417c0 	call	2417c <usleep>

		value = ((IORD(PIXEL_GRABBER_RGB_BASE, GRAB_VALUE)) & 0x00FF0000) >> 16;
   225ac:	8c000037 	ldwio	r16,0(r17)

		usleep(delay);
   225b0:	010000b4 	movhi	r4,2
   225b4:	2121a804 	addi	r4,r4,-31072
   225b8:	002417c0 	call	2417c <usleep>

		value2 = ((IORD(PIXEL_GRABBER_RGB_BASE, GRAB_VALUE)) & 0x00FF0000) >> 16;
   225bc:	88800037 	ldwio	r2,0(r17)

		delta = target - (value+value2)/2;

		printf("Red Delta: %d, gain: %d\n", delta, currentgain);
   225c0:	010000b4 	movhi	r4,2

		usleep(delay);

		value2 = ((IORD(PIXEL_GRABBER_RGB_BASE, GRAB_VALUE)) & 0x00FF0000) >> 16;

		delta = target - (value+value2)/2;
   225c4:	84003fec 	andhi	r16,r16,255
   225c8:	10803fec 	andhi	r2,r2,255
   225cc:	8021d43a 	srai	r16,r16,16
   225d0:	1005d43a 	srai	r2,r2,16

		printf("Red Delta: %d, gain: %d\n", delta, currentgain);
   225d4:	a80d883a 	mov	r6,r21
   225d8:	21141404 	addi	r4,r4,20560

		usleep(delay);

		value2 = ((IORD(PIXEL_GRABBER_RGB_BASE, GRAB_VALUE)) & 0x00FF0000) >> 16;

		delta = target - (value+value2)/2;
   225dc:	80a1883a 	add	r16,r16,r2
   225e0:	8020d07a 	srli	r16,r16,1
   225e4:	9421c83a 	sub	r16,r18,r16

		printf("Red Delta: %d, gain: %d\n", delta, currentgain);
   225e8:	800b883a 	mov	r5,r16
   225ec:	0022c1c0 	call	22c1c <printf>
   225f0:	003fe206 	br	2257c <__alt_data_end+0xfffe50bc>
	OV8865SetRedGain(currentgain);
	usleep(delay);
	 alt_u32 value = ((IORD(PIXEL_GRABBER_RGB_BASE, GRAB_VALUE)) & 0x00FF0000) >> 16;
	int delta = target - value;

	while ( delta > epsilon || delta < -epsilon){
   225f4:	853fe216 	blt	r16,r20,22580 <__alt_data_end+0xfffe50c0>
		printf("Red Delta: %d, gain: %d\n", delta, currentgain);
	}

	//Green Balance
	currentgain = 0x400;
	OV8865SetGreenGain(currentgain);
   225f8:	01010004 	movi	r4,1024
   225fc:	00219200 	call	21920 <OV8865SetGreenGain>
	usleep(delay);
   22600:	010000b4 	movhi	r4,2
   22604:	2121a804 	addi	r4,r4,-31072
   22608:	002417c0 	call	2417c <usleep>
	value = ((IORD(PIXEL_GRABBER_RGB_BASE, GRAB_VALUE)) & 0x0000FF00) >> 8;
   2260c:	8c000037 	ldwio	r16,0(r17)

		printf("Red Delta: %d, gain: %d\n", delta, currentgain);
	}

	//Green Balance
	currentgain = 0x400;
   22610:	05410004 	movi	r21,1024
	OV8865SetGreenGain(currentgain);
	usleep(delay);
	value = ((IORD(PIXEL_GRABBER_RGB_BASE, GRAB_VALUE)) & 0x0000FF00) >> 8;
	delta = target - value;
   22614:	843fc00c 	andi	r16,r16,65280
   22618:	8021d23a 	srai	r16,r16,8
   2261c:	9421c83a 	sub	r16,r18,r16

	while ( delta > epsilon || delta < -epsilon){
   22620:	9c001d0e 	bge	r19,r16,22698 <auto_wb+0x178>
		currentgain = currentgain + delta/2;
   22624:	8004d7fa 	srli	r2,r16,31
   22628:	1421883a 	add	r16,r2,r16
   2262c:	8021d07a 	srai	r16,r16,1
   22630:	856b883a 	add	r21,r16,r21
   22634:	a800010e 	bge	r21,zero,2263c <auto_wb+0x11c>
   22638:	002b883a 	mov	r21,zero
		if (currentgain < 0) currentgain = 0;
		OV8865SetGreenGain(currentgain);
   2263c:	a809883a 	mov	r4,r21
   22640:	00219200 	call	21920 <OV8865SetGreenGain>
		usleep(delay);
   22644:	010000b4 	movhi	r4,2
   22648:	2121a804 	addi	r4,r4,-31072
   2264c:	002417c0 	call	2417c <usleep>

		value = ((IORD(PIXEL_GRABBER_RGB_BASE, GRAB_VALUE)) & 0x0000FF00) >> 8;
   22650:	8c000037 	ldwio	r16,0(r17)

		usleep(delay);
   22654:	010000b4 	movhi	r4,2
   22658:	2121a804 	addi	r4,r4,-31072
   2265c:	002417c0 	call	2417c <usleep>

		value2 = ((IORD(PIXEL_GRABBER_RGB_BASE, GRAB_VALUE)) & 0x0000FF00) >> 8;
   22660:	88800037 	ldwio	r2,0(r17)

		delta = target - (value+value2)/2;

		printf("Green Delta: %d, gain: %d\n", delta, currentgain);
   22664:	010000b4 	movhi	r4,2

		usleep(delay);

		value2 = ((IORD(PIXEL_GRABBER_RGB_BASE, GRAB_VALUE)) & 0x0000FF00) >> 8;

		delta = target - (value+value2)/2;
   22668:	843fc00c 	andi	r16,r16,65280
   2266c:	10bfc00c 	andi	r2,r2,65280
   22670:	8021d23a 	srai	r16,r16,8
   22674:	1005d23a 	srai	r2,r2,8

		printf("Green Delta: %d, gain: %d\n", delta, currentgain);
   22678:	a80d883a 	mov	r6,r21
   2267c:	21141b04 	addi	r4,r4,20588

		usleep(delay);

		value2 = ((IORD(PIXEL_GRABBER_RGB_BASE, GRAB_VALUE)) & 0x0000FF00) >> 8;

		delta = target - (value+value2)/2;
   22680:	80a1883a 	add	r16,r16,r2
   22684:	8020d07a 	srli	r16,r16,1
   22688:	9421c83a 	sub	r16,r18,r16

		printf("Green Delta: %d, gain: %d\n", delta, currentgain);
   2268c:	800b883a 	mov	r5,r16
   22690:	0022c1c0 	call	22c1c <printf>
   22694:	003fe206 	br	22620 <__alt_data_end+0xfffe5160>
	OV8865SetGreenGain(currentgain);
	usleep(delay);
	value = ((IORD(PIXEL_GRABBER_RGB_BASE, GRAB_VALUE)) & 0x0000FF00) >> 8;
	delta = target - value;

	while ( delta > epsilon || delta < -epsilon){
   22698:	853fe216 	blt	r16,r20,22624 <__alt_data_end+0xfffe5164>
		printf("Green Delta: %d, gain: %d\n", delta, currentgain);
	}

	//Blue Balance
	currentgain = 0x400;
	OV8865SetBlueGain(currentgain);
   2269c:	01010004 	movi	r4,1024
   226a0:	00219c00 	call	219c0 <OV8865SetBlueGain>
	usleep(delay);
   226a4:	010000b4 	movhi	r4,2
   226a8:	2121a804 	addi	r4,r4,-31072
   226ac:	002417c0 	call	2417c <usleep>
	value = ((IORD(PIXEL_GRABBER_RGB_BASE, GRAB_VALUE)) & 0x000000FF);
   226b0:	8c000037 	ldwio	r16,0(r17)

		printf("Green Delta: %d, gain: %d\n", delta, currentgain);
	}

	//Blue Balance
	currentgain = 0x400;
   226b4:	05410004 	movi	r21,1024
	OV8865SetBlueGain(currentgain);
	usleep(delay);
	value = ((IORD(PIXEL_GRABBER_RGB_BASE, GRAB_VALUE)) & 0x000000FF);
	delta = target - value;
   226b8:	84003fcc 	andi	r16,r16,255
   226bc:	9421c83a 	sub	r16,r18,r16

	while ( delta > epsilon || delta < -epsilon){
   226c0:	9c001b0e 	bge	r19,r16,22730 <auto_wb+0x210>
		currentgain = currentgain + delta/2;
   226c4:	8004d7fa 	srli	r2,r16,31
   226c8:	1421883a 	add	r16,r2,r16
   226cc:	8021d07a 	srai	r16,r16,1
   226d0:	856b883a 	add	r21,r16,r21
   226d4:	a800010e 	bge	r21,zero,226dc <auto_wb+0x1bc>
   226d8:	002b883a 	mov	r21,zero
		if (currentgain < 0) currentgain = 0;
		OV8865SetBlueGain(currentgain);
   226dc:	a809883a 	mov	r4,r21
   226e0:	00219c00 	call	219c0 <OV8865SetBlueGain>
		usleep(delay);
   226e4:	010000b4 	movhi	r4,2
   226e8:	2121a804 	addi	r4,r4,-31072
   226ec:	002417c0 	call	2417c <usleep>

		value = ((IORD(PIXEL_GRABBER_RGB_BASE, GRAB_VALUE)) & 0x000000FF);
   226f0:	8c000037 	ldwio	r16,0(r17)

		usleep(delay);
   226f4:	010000b4 	movhi	r4,2
   226f8:	2121a804 	addi	r4,r4,-31072
   226fc:	002417c0 	call	2417c <usleep>

		value2 = ((IORD(PIXEL_GRABBER_RGB_BASE, GRAB_VALUE)) & 0x000000FF);
   22700:	88800037 	ldwio	r2,0(r17)

		delta = target - (value+value2)/2;

		printf("Blue Delta: %d, gain: %d\n", delta, currentgain);
   22704:	010000b4 	movhi	r4,2

		usleep(delay);

		value2 = ((IORD(PIXEL_GRABBER_RGB_BASE, GRAB_VALUE)) & 0x000000FF);

		delta = target - (value+value2)/2;
   22708:	84003fcc 	andi	r16,r16,255
   2270c:	10803fcc 	andi	r2,r2,255
   22710:	80a1883a 	add	r16,r16,r2
   22714:	8020d07a 	srli	r16,r16,1

		printf("Blue Delta: %d, gain: %d\n", delta, currentgain);
   22718:	a80d883a 	mov	r6,r21
   2271c:	21142204 	addi	r4,r4,20616

		usleep(delay);

		value2 = ((IORD(PIXEL_GRABBER_RGB_BASE, GRAB_VALUE)) & 0x000000FF);

		delta = target - (value+value2)/2;
   22720:	9421c83a 	sub	r16,r18,r16

		printf("Blue Delta: %d, gain: %d\n", delta, currentgain);
   22724:	800b883a 	mov	r5,r16
   22728:	0022c1c0 	call	22c1c <printf>
   2272c:	003fe406 	br	226c0 <__alt_data_end+0xfffe5200>
	OV8865SetBlueGain(currentgain);
	usleep(delay);
	value = ((IORD(PIXEL_GRABBER_RGB_BASE, GRAB_VALUE)) & 0x000000FF);
	delta = target - value;

	while ( delta > epsilon || delta < -epsilon){
   22730:	853fe416 	blt	r16,r20,226c4 <__alt_data_end+0xfffe5204>
		delta = target - (value+value2)/2;

		printf("Blue Delta: %d, gain: %d\n", delta, currentgain);
		}

}
   22734:	dfc00617 	ldw	ra,24(sp)
   22738:	dd400517 	ldw	r21,20(sp)
   2273c:	dd000417 	ldw	r20,16(sp)
   22740:	dcc00317 	ldw	r19,12(sp)
   22744:	dc800217 	ldw	r18,8(sp)
   22748:	dc400117 	ldw	r17,4(sp)
   2274c:	dc000017 	ldw	r16,0(sp)
   22750:	dec00704 	addi	sp,sp,28
   22754:	f800283a 	ret

00022758 <print_as_rgb>:

void print_as_rgb(alt_u32 val, alt_u32 hsv){
	//printf("RGB: %d, %d, %d\n", (val>>16)&0x0000ff, (val>>8)&0x0000ff, (val>>0)&0x0000ff);
	printf("RGB: %x, HSV: %x\n", val, hsv);
   22758:	280d883a 	mov	r6,r5
   2275c:	200b883a 	mov	r5,r4
   22760:	010000b4 	movhi	r4,2
   22764:	21142904 	addi	r4,r4,20644
   22768:	0022c1c1 	jmpi	22c1c <printf>

0002276c <frame_isr>:



void frame_isr(){
	static int count = 0;
	if (count == 59){
   2276c:	d0e07417 	ldw	r3,-32304(gp)
   22770:	00800ec4 	movi	r2,59
   22774:	18800c1e 	bne	r3,r2,227a8 <frame_isr+0x3c>
		count = 0;
		printf("One second");
   22778:	010000b4 	movhi	r4,2
	printf("RGB: %x, HSV: %x\n", val, hsv);
}



void frame_isr(){
   2277c:	deffff04 	addi	sp,sp,-4
	static int count = 0;
	if (count == 59){
		count = 0;
		printf("One second");
   22780:	21142e04 	addi	r4,r4,20664
	printf("RGB: %x, HSV: %x\n", val, hsv);
}



void frame_isr(){
   22784:	dfc00015 	stw	ra,0(sp)
	static int count = 0;
	if (count == 59){
		count = 0;
   22788:	d0207415 	stw	zero,-32304(gp)
		printf("One second");
   2278c:	0022c1c0 	call	22c1c <printf>
	}
	frames_elapsed++;
   22790:	d0a07317 	ldw	r2,-32308(gp)
   22794:	10800044 	addi	r2,r2,1
   22798:	d0a07315 	stw	r2,-32308(gp)
}
   2279c:	dfc00017 	ldw	ra,0(sp)
   227a0:	dec00104 	addi	sp,sp,4
   227a4:	f800283a 	ret
	static int count = 0;
	if (count == 59){
		count = 0;
		printf("One second");
	}
	frames_elapsed++;
   227a8:	d0a07317 	ldw	r2,-32308(gp)
   227ac:	10800044 	addi	r2,r2,1
   227b0:	d0a07315 	stw	r2,-32308(gp)
   227b4:	f800283a 	ret

000227b8 <wait_frame>:
}

void wait_frame(int number){
	int current_frame = frames_elapsed;
   227b8:	d0a07317 	ldw	r2,-32308(gp)
	while(current_frame > frames_elapsed - number){}
   227bc:	1109c83a 	sub	r4,r2,r4
   227c0:	20bfff16 	blt	r4,r2,227c0 <__alt_data_end+0xfffe5300>
	return;
}
   227c4:	f800283a 	ret

000227c8 <__divsi3>:
   227c8:	20001b16 	blt	r4,zero,22838 <__divsi3+0x70>
   227cc:	000f883a 	mov	r7,zero
   227d0:	28001616 	blt	r5,zero,2282c <__divsi3+0x64>
   227d4:	200d883a 	mov	r6,r4
   227d8:	29001a2e 	bgeu	r5,r4,22844 <__divsi3+0x7c>
   227dc:	00800804 	movi	r2,32
   227e0:	00c00044 	movi	r3,1
   227e4:	00000106 	br	227ec <__divsi3+0x24>
   227e8:	10000d26 	beq	r2,zero,22820 <__divsi3+0x58>
   227ec:	294b883a 	add	r5,r5,r5
   227f0:	10bfffc4 	addi	r2,r2,-1
   227f4:	18c7883a 	add	r3,r3,r3
   227f8:	293ffb36 	bltu	r5,r4,227e8 <__alt_data_end+0xfffe5328>
   227fc:	0005883a 	mov	r2,zero
   22800:	18000726 	beq	r3,zero,22820 <__divsi3+0x58>
   22804:	0005883a 	mov	r2,zero
   22808:	31400236 	bltu	r6,r5,22814 <__divsi3+0x4c>
   2280c:	314dc83a 	sub	r6,r6,r5
   22810:	10c4b03a 	or	r2,r2,r3
   22814:	1806d07a 	srli	r3,r3,1
   22818:	280ad07a 	srli	r5,r5,1
   2281c:	183ffa1e 	bne	r3,zero,22808 <__alt_data_end+0xfffe5348>
   22820:	38000126 	beq	r7,zero,22828 <__divsi3+0x60>
   22824:	0085c83a 	sub	r2,zero,r2
   22828:	f800283a 	ret
   2282c:	014bc83a 	sub	r5,zero,r5
   22830:	39c0005c 	xori	r7,r7,1
   22834:	003fe706 	br	227d4 <__alt_data_end+0xfffe5314>
   22838:	0109c83a 	sub	r4,zero,r4
   2283c:	01c00044 	movi	r7,1
   22840:	003fe306 	br	227d0 <__alt_data_end+0xfffe5310>
   22844:	00c00044 	movi	r3,1
   22848:	003fee06 	br	22804 <__alt_data_end+0xfffe5344>

0002284c <__modsi3>:
   2284c:	20001716 	blt	r4,zero,228ac <__modsi3+0x60>
   22850:	000f883a 	mov	r7,zero
   22854:	2005883a 	mov	r2,r4
   22858:	28001216 	blt	r5,zero,228a4 <__modsi3+0x58>
   2285c:	2900162e 	bgeu	r5,r4,228b8 <__modsi3+0x6c>
   22860:	01800804 	movi	r6,32
   22864:	00c00044 	movi	r3,1
   22868:	00000106 	br	22870 <__modsi3+0x24>
   2286c:	30000a26 	beq	r6,zero,22898 <__modsi3+0x4c>
   22870:	294b883a 	add	r5,r5,r5
   22874:	31bfffc4 	addi	r6,r6,-1
   22878:	18c7883a 	add	r3,r3,r3
   2287c:	293ffb36 	bltu	r5,r4,2286c <__alt_data_end+0xfffe53ac>
   22880:	18000526 	beq	r3,zero,22898 <__modsi3+0x4c>
   22884:	1806d07a 	srli	r3,r3,1
   22888:	11400136 	bltu	r2,r5,22890 <__modsi3+0x44>
   2288c:	1145c83a 	sub	r2,r2,r5
   22890:	280ad07a 	srli	r5,r5,1
   22894:	183ffb1e 	bne	r3,zero,22884 <__alt_data_end+0xfffe53c4>
   22898:	38000126 	beq	r7,zero,228a0 <__modsi3+0x54>
   2289c:	0085c83a 	sub	r2,zero,r2
   228a0:	f800283a 	ret
   228a4:	014bc83a 	sub	r5,zero,r5
   228a8:	003fec06 	br	2285c <__alt_data_end+0xfffe539c>
   228ac:	0109c83a 	sub	r4,zero,r4
   228b0:	01c00044 	movi	r7,1
   228b4:	003fe706 	br	22854 <__alt_data_end+0xfffe5394>
   228b8:	00c00044 	movi	r3,1
   228bc:	003ff106 	br	22884 <__alt_data_end+0xfffe53c4>

000228c0 <__udivsi3>:
   228c0:	200d883a 	mov	r6,r4
   228c4:	2900152e 	bgeu	r5,r4,2291c <__udivsi3+0x5c>
   228c8:	28001416 	blt	r5,zero,2291c <__udivsi3+0x5c>
   228cc:	00800804 	movi	r2,32
   228d0:	00c00044 	movi	r3,1
   228d4:	00000206 	br	228e0 <__udivsi3+0x20>
   228d8:	10000e26 	beq	r2,zero,22914 <__udivsi3+0x54>
   228dc:	28000516 	blt	r5,zero,228f4 <__udivsi3+0x34>
   228e0:	294b883a 	add	r5,r5,r5
   228e4:	10bfffc4 	addi	r2,r2,-1
   228e8:	18c7883a 	add	r3,r3,r3
   228ec:	293ffa36 	bltu	r5,r4,228d8 <__alt_data_end+0xfffe5418>
   228f0:	18000826 	beq	r3,zero,22914 <__udivsi3+0x54>
   228f4:	0005883a 	mov	r2,zero
   228f8:	31400236 	bltu	r6,r5,22904 <__udivsi3+0x44>
   228fc:	314dc83a 	sub	r6,r6,r5
   22900:	10c4b03a 	or	r2,r2,r3
   22904:	1806d07a 	srli	r3,r3,1
   22908:	280ad07a 	srli	r5,r5,1
   2290c:	183ffa1e 	bne	r3,zero,228f8 <__alt_data_end+0xfffe5438>
   22910:	f800283a 	ret
   22914:	0005883a 	mov	r2,zero
   22918:	f800283a 	ret
   2291c:	00c00044 	movi	r3,1
   22920:	003ff406 	br	228f4 <__alt_data_end+0xfffe5434>

00022924 <__umodsi3>:
   22924:	2005883a 	mov	r2,r4
   22928:	2900122e 	bgeu	r5,r4,22974 <__umodsi3+0x50>
   2292c:	28001116 	blt	r5,zero,22974 <__umodsi3+0x50>
   22930:	01800804 	movi	r6,32
   22934:	00c00044 	movi	r3,1
   22938:	00000206 	br	22944 <__umodsi3+0x20>
   2293c:	30000c26 	beq	r6,zero,22970 <__umodsi3+0x4c>
   22940:	28000516 	blt	r5,zero,22958 <__umodsi3+0x34>
   22944:	294b883a 	add	r5,r5,r5
   22948:	31bfffc4 	addi	r6,r6,-1
   2294c:	18c7883a 	add	r3,r3,r3
   22950:	293ffa36 	bltu	r5,r4,2293c <__alt_data_end+0xfffe547c>
   22954:	18000626 	beq	r3,zero,22970 <__umodsi3+0x4c>
   22958:	1806d07a 	srli	r3,r3,1
   2295c:	11400136 	bltu	r2,r5,22964 <__umodsi3+0x40>
   22960:	1145c83a 	sub	r2,r2,r5
   22964:	280ad07a 	srli	r5,r5,1
   22968:	183ffb1e 	bne	r3,zero,22958 <__alt_data_end+0xfffe5498>
   2296c:	f800283a 	ret
   22970:	f800283a 	ret
   22974:	00c00044 	movi	r3,1
   22978:	003ff706 	br	22958 <__alt_data_end+0xfffe5498>

0002297c <malloc>:
   2297c:	008000b4 	movhi	r2,2
   22980:	10948804 	addi	r2,r2,21024
   22984:	200b883a 	mov	r5,r4
   22988:	11000017 	ldw	r4,0(r2)
   2298c:	0022a881 	jmpi	22a88 <_malloc_r>

00022990 <free>:
   22990:	008000b4 	movhi	r2,2
   22994:	10948804 	addi	r2,r2,21024
   22998:	200b883a 	mov	r5,r4
   2299c:	11000017 	ldw	r4,0(r2)
   229a0:	00229a41 	jmpi	229a4 <_free_r>

000229a4 <_free_r>:
   229a4:	28003726 	beq	r5,zero,22a84 <_free_r+0xe0>
   229a8:	28ffff17 	ldw	r3,-4(r5)
   229ac:	28bfff04 	addi	r2,r5,-4
   229b0:	1800010e 	bge	r3,zero,229b8 <_free_r+0x14>
   229b4:	10c5883a 	add	r2,r2,r3
   229b8:	014000b4 	movhi	r5,2
   229bc:	2954f804 	addi	r5,r5,21472
   229c0:	28c00017 	ldw	r3,0(r5)
   229c4:	280d883a 	mov	r6,r5
   229c8:	1800031e 	bne	r3,zero,229d8 <_free_r+0x34>
   229cc:	10000115 	stw	zero,4(r2)
   229d0:	28800015 	stw	r2,0(r5)
   229d4:	f800283a 	ret
   229d8:	10c00c2e 	bgeu	r2,r3,22a0c <_free_r+0x68>
   229dc:	11000017 	ldw	r4,0(r2)
   229e0:	110b883a 	add	r5,r2,r4
   229e4:	1940041e 	bne	r3,r5,229f8 <_free_r+0x54>
   229e8:	19400017 	ldw	r5,0(r3)
   229ec:	18c00117 	ldw	r3,4(r3)
   229f0:	2909883a 	add	r4,r5,r4
   229f4:	11000015 	stw	r4,0(r2)
   229f8:	10c00115 	stw	r3,4(r2)
   229fc:	30800015 	stw	r2,0(r6)
   22a00:	f800283a 	ret
   22a04:	11400336 	bltu	r2,r5,22a14 <_free_r+0x70>
   22a08:	2807883a 	mov	r3,r5
   22a0c:	19400117 	ldw	r5,4(r3)
   22a10:	283ffc1e 	bne	r5,zero,22a04 <__alt_data_end+0xfffe5544>
   22a14:	19c00017 	ldw	r7,0(r3)
   22a18:	19cd883a 	add	r6,r3,r7
   22a1c:	30800a1e 	bne	r6,r2,22a48 <_free_r+0xa4>
   22a20:	10800017 	ldw	r2,0(r2)
   22a24:	3885883a 	add	r2,r7,r2
   22a28:	18800015 	stw	r2,0(r3)
   22a2c:	1889883a 	add	r4,r3,r2
   22a30:	2900141e 	bne	r5,r4,22a84 <_free_r+0xe0>
   22a34:	29000017 	ldw	r4,0(r5)
   22a38:	2085883a 	add	r2,r4,r2
   22a3c:	18800015 	stw	r2,0(r3)
   22a40:	28800117 	ldw	r2,4(r5)
   22a44:	00000e06 	br	22a80 <_free_r+0xdc>
   22a48:	1180032e 	bgeu	r2,r6,22a58 <_free_r+0xb4>
   22a4c:	00800304 	movi	r2,12
   22a50:	20800015 	stw	r2,0(r4)
   22a54:	f800283a 	ret
   22a58:	11000017 	ldw	r4,0(r2)
   22a5c:	110d883a 	add	r6,r2,r4
   22a60:	2980061e 	bne	r5,r6,22a7c <_free_r+0xd8>
   22a64:	29800017 	ldw	r6,0(r5)
   22a68:	3109883a 	add	r4,r6,r4
   22a6c:	11000015 	stw	r4,0(r2)
   22a70:	29000117 	ldw	r4,4(r5)
   22a74:	11000115 	stw	r4,4(r2)
   22a78:	00000106 	br	22a80 <_free_r+0xdc>
   22a7c:	11400115 	stw	r5,4(r2)
   22a80:	18800115 	stw	r2,4(r3)
   22a84:	f800283a 	ret

00022a88 <_malloc_r>:
   22a88:	defffb04 	addi	sp,sp,-20
   22a8c:	00bfff04 	movi	r2,-4
   22a90:	dc400115 	stw	r17,4(sp)
   22a94:	2c4000c4 	addi	r17,r5,3
   22a98:	88a2703a 	and	r17,r17,r2
   22a9c:	dc800215 	stw	r18,8(sp)
   22aa0:	dfc00415 	stw	ra,16(sp)
   22aa4:	dcc00315 	stw	r19,12(sp)
   22aa8:	dc000015 	stw	r16,0(sp)
   22aac:	8c400204 	addi	r17,r17,8
   22ab0:	00800304 	movi	r2,12
   22ab4:	2025883a 	mov	r18,r4
   22ab8:	8880022e 	bgeu	r17,r2,22ac4 <_malloc_r+0x3c>
   22abc:	1023883a 	mov	r17,r2
   22ac0:	00000506 	br	22ad8 <_malloc_r+0x50>
   22ac4:	8800040e 	bge	r17,zero,22ad8 <_malloc_r+0x50>
   22ac8:	00800304 	movi	r2,12
   22acc:	90800015 	stw	r2,0(r18)
   22ad0:	0005883a 	mov	r2,zero
   22ad4:	00003b06 	br	22bc4 <_malloc_r+0x13c>
   22ad8:	897ffb36 	bltu	r17,r5,22ac8 <__alt_data_end+0xfffe5608>
   22adc:	008000b4 	movhi	r2,2
   22ae0:	1094f804 	addi	r2,r2,21472
   22ae4:	10c00017 	ldw	r3,0(r2)
   22ae8:	1009883a 	mov	r4,r2
   22aec:	1821883a 	mov	r16,r3
   22af0:	80000926 	beq	r16,zero,22b18 <_malloc_r+0x90>
   22af4:	80800017 	ldw	r2,0(r16)
   22af8:	1445c83a 	sub	r2,r2,r17
   22afc:	10001516 	blt	r2,zero,22b54 <_malloc_r+0xcc>
   22b00:	014002c4 	movi	r5,11
   22b04:	28800d2e 	bgeu	r5,r2,22b3c <_malloc_r+0xb4>
   22b08:	80800015 	stw	r2,0(r16)
   22b0c:	80a1883a 	add	r16,r16,r2
   22b10:	84400015 	stw	r17,0(r16)
   22b14:	8000221e 	bne	r16,zero,22ba0 <_malloc_r+0x118>
   22b18:	040000b4 	movhi	r16,2
   22b1c:	8414f704 	addi	r16,r16,21468
   22b20:	80800017 	ldw	r2,0(r16)
   22b24:	10000e1e 	bne	r2,zero,22b60 <_malloc_r+0xd8>
   22b28:	000b883a 	mov	r5,zero
   22b2c:	9009883a 	mov	r4,r18
   22b30:	0022d200 	call	22d20 <_sbrk_r>
   22b34:	80800015 	stw	r2,0(r16)
   22b38:	00000906 	br	22b60 <_malloc_r+0xd8>
   22b3c:	80800117 	ldw	r2,4(r16)
   22b40:	1c00021e 	bne	r3,r16,22b4c <_malloc_r+0xc4>
   22b44:	20800015 	stw	r2,0(r4)
   22b48:	00001506 	br	22ba0 <_malloc_r+0x118>
   22b4c:	18800115 	stw	r2,4(r3)
   22b50:	00001306 	br	22ba0 <_malloc_r+0x118>
   22b54:	8007883a 	mov	r3,r16
   22b58:	84000117 	ldw	r16,4(r16)
   22b5c:	003fe406 	br	22af0 <__alt_data_end+0xfffe5630>
   22b60:	880b883a 	mov	r5,r17
   22b64:	9009883a 	mov	r4,r18
   22b68:	0022d200 	call	22d20 <_sbrk_r>
   22b6c:	04ffffc4 	movi	r19,-1
   22b70:	14ffd526 	beq	r2,r19,22ac8 <__alt_data_end+0xfffe5608>
   22b74:	140000c4 	addi	r16,r2,3
   22b78:	00ffff04 	movi	r3,-4
   22b7c:	80e0703a 	and	r16,r16,r3
   22b80:	1400021e 	bne	r2,r16,22b8c <_malloc_r+0x104>
   22b84:	84400015 	stw	r17,0(r16)
   22b88:	00000506 	br	22ba0 <_malloc_r+0x118>
   22b8c:	808bc83a 	sub	r5,r16,r2
   22b90:	9009883a 	mov	r4,r18
   22b94:	0022d200 	call	22d20 <_sbrk_r>
   22b98:	14fffa1e 	bne	r2,r19,22b84 <__alt_data_end+0xfffe56c4>
   22b9c:	003fca06 	br	22ac8 <__alt_data_end+0xfffe5608>
   22ba0:	810002c4 	addi	r4,r16,11
   22ba4:	00bffe04 	movi	r2,-8
   22ba8:	80c00104 	addi	r3,r16,4
   22bac:	2084703a 	and	r2,r4,r2
   22bb0:	10c7c83a 	sub	r3,r2,r3
   22bb4:	18000326 	beq	r3,zero,22bc4 <_malloc_r+0x13c>
   22bb8:	80e1883a 	add	r16,r16,r3
   22bbc:	00c7c83a 	sub	r3,zero,r3
   22bc0:	80c00015 	stw	r3,0(r16)
   22bc4:	dfc00417 	ldw	ra,16(sp)
   22bc8:	dcc00317 	ldw	r19,12(sp)
   22bcc:	dc800217 	ldw	r18,8(sp)
   22bd0:	dc400117 	ldw	r17,4(sp)
   22bd4:	dc000017 	ldw	r16,0(sp)
   22bd8:	dec00504 	addi	sp,sp,20
   22bdc:	f800283a 	ret

00022be0 <_printf_r>:
   22be0:	defffd04 	addi	sp,sp,-12
   22be4:	dfc00015 	stw	ra,0(sp)
   22be8:	d9800115 	stw	r6,4(sp)
   22bec:	d9c00215 	stw	r7,8(sp)
   22bf0:	20c00217 	ldw	r3,8(r4)
   22bf4:	018000b4 	movhi	r6,2
   22bf8:	318e7004 	addi	r6,r6,14784
   22bfc:	19800115 	stw	r6,4(r3)
   22c00:	280d883a 	mov	r6,r5
   22c04:	21400217 	ldw	r5,8(r4)
   22c08:	d9c00104 	addi	r7,sp,4
   22c0c:	00234800 	call	23480 <___vfprintf_internal_r>
   22c10:	dfc00017 	ldw	ra,0(sp)
   22c14:	dec00304 	addi	sp,sp,12
   22c18:	f800283a 	ret

00022c1c <printf>:
   22c1c:	defffc04 	addi	sp,sp,-16
   22c20:	dfc00015 	stw	ra,0(sp)
   22c24:	d9400115 	stw	r5,4(sp)
   22c28:	d9800215 	stw	r6,8(sp)
   22c2c:	d9c00315 	stw	r7,12(sp)
   22c30:	008000b4 	movhi	r2,2
   22c34:	10948804 	addi	r2,r2,21024
   22c38:	10800017 	ldw	r2,0(r2)
   22c3c:	014000b4 	movhi	r5,2
   22c40:	294e7004 	addi	r5,r5,14784
   22c44:	10c00217 	ldw	r3,8(r2)
   22c48:	d9800104 	addi	r6,sp,4
   22c4c:	19400115 	stw	r5,4(r3)
   22c50:	200b883a 	mov	r5,r4
   22c54:	11000217 	ldw	r4,8(r2)
   22c58:	00239a40 	call	239a4 <__vfprintf_internal>
   22c5c:	dfc00017 	ldw	ra,0(sp)
   22c60:	dec00404 	addi	sp,sp,16
   22c64:	f800283a 	ret

00022c68 <_putchar_r>:
   22c68:	21800217 	ldw	r6,8(r4)
   22c6c:	0023bd41 	jmpi	23bd4 <_putc_r>

00022c70 <putchar>:
   22c70:	008000b4 	movhi	r2,2
   22c74:	10948804 	addi	r2,r2,21024
   22c78:	10800017 	ldw	r2,0(r2)
   22c7c:	200b883a 	mov	r5,r4
   22c80:	11800217 	ldw	r6,8(r2)
   22c84:	1009883a 	mov	r4,r2
   22c88:	0023bd41 	jmpi	23bd4 <_putc_r>

00022c8c <_puts_r>:
   22c8c:	defffd04 	addi	sp,sp,-12
   22c90:	dc000015 	stw	r16,0(sp)
   22c94:	2021883a 	mov	r16,r4
   22c98:	2809883a 	mov	r4,r5
   22c9c:	dfc00215 	stw	ra,8(sp)
   22ca0:	dc400115 	stw	r17,4(sp)
   22ca4:	2823883a 	mov	r17,r5
   22ca8:	0022e4c0 	call	22e4c <strlen>
   22cac:	81400217 	ldw	r5,8(r16)
   22cb0:	010000b4 	movhi	r4,2
   22cb4:	210e7004 	addi	r4,r4,14784
   22cb8:	29000115 	stw	r4,4(r5)
   22cbc:	100f883a 	mov	r7,r2
   22cc0:	880d883a 	mov	r6,r17
   22cc4:	8009883a 	mov	r4,r16
   22cc8:	00239c00 	call	239c0 <__sfvwrite_small_dev>
   22ccc:	00ffffc4 	movi	r3,-1
   22cd0:	10c00926 	beq	r2,r3,22cf8 <_puts_r+0x6c>
   22cd4:	81400217 	ldw	r5,8(r16)
   22cd8:	018000b4 	movhi	r6,2
   22cdc:	01c00044 	movi	r7,1
   22ce0:	28800117 	ldw	r2,4(r5)
   22ce4:	3193d004 	addi	r6,r6,20288
   22ce8:	8009883a 	mov	r4,r16
   22cec:	103ee83a 	callr	r2
   22cf0:	10bfffe0 	cmpeqi	r2,r2,-1
   22cf4:	0085c83a 	sub	r2,zero,r2
   22cf8:	dfc00217 	ldw	ra,8(sp)
   22cfc:	dc400117 	ldw	r17,4(sp)
   22d00:	dc000017 	ldw	r16,0(sp)
   22d04:	dec00304 	addi	sp,sp,12
   22d08:	f800283a 	ret

00022d0c <puts>:
   22d0c:	008000b4 	movhi	r2,2
   22d10:	10948804 	addi	r2,r2,21024
   22d14:	200b883a 	mov	r5,r4
   22d18:	11000017 	ldw	r4,0(r2)
   22d1c:	0022c8c1 	jmpi	22c8c <_puts_r>

00022d20 <_sbrk_r>:
   22d20:	defffd04 	addi	sp,sp,-12
   22d24:	dc000015 	stw	r16,0(sp)
   22d28:	040000b4 	movhi	r16,2
   22d2c:	dc400115 	stw	r17,4(sp)
   22d30:	8414f904 	addi	r16,r16,21476
   22d34:	2023883a 	mov	r17,r4
   22d38:	2809883a 	mov	r4,r5
   22d3c:	dfc00215 	stw	ra,8(sp)
   22d40:	80000015 	stw	zero,0(r16)
   22d44:	00240440 	call	24044 <sbrk>
   22d48:	00ffffc4 	movi	r3,-1
   22d4c:	10c0031e 	bne	r2,r3,22d5c <_sbrk_r+0x3c>
   22d50:	80c00017 	ldw	r3,0(r16)
   22d54:	18000126 	beq	r3,zero,22d5c <_sbrk_r+0x3c>
   22d58:	88c00015 	stw	r3,0(r17)
   22d5c:	dfc00217 	ldw	ra,8(sp)
   22d60:	dc400117 	ldw	r17,4(sp)
   22d64:	dc000017 	ldw	r16,0(sp)
   22d68:	dec00304 	addi	sp,sp,12
   22d6c:	f800283a 	ret

00022d70 <_sprintf_r>:
   22d70:	defff704 	addi	sp,sp,-36
   22d74:	dfc00715 	stw	ra,28(sp)
   22d78:	d9c00815 	stw	r7,32(sp)
   22d7c:	00808204 	movi	r2,520
   22d80:	d880000d 	sth	r2,0(sp)
   22d84:	00a00034 	movhi	r2,32768
   22d88:	10bfffc4 	addi	r2,r2,-1
   22d8c:	d8800515 	stw	r2,20(sp)
   22d90:	d8800315 	stw	r2,12(sp)
   22d94:	00bfffc4 	movi	r2,-1
   22d98:	d880008d 	sth	r2,2(sp)
   22d9c:	008000b4 	movhi	r2,2
   22da0:	d9400415 	stw	r5,16(sp)
   22da4:	d9400215 	stw	r5,8(sp)
   22da8:	108e9e04 	addi	r2,r2,14968
   22dac:	d9c00804 	addi	r7,sp,32
   22db0:	d80b883a 	mov	r5,sp
   22db4:	d8800115 	stw	r2,4(sp)
   22db8:	d8000615 	stw	zero,24(sp)
   22dbc:	0022ed40 	call	22ed4 <___svfprintf_internal_r>
   22dc0:	d8c00417 	ldw	r3,16(sp)
   22dc4:	18000005 	stb	zero,0(r3)
   22dc8:	dfc00717 	ldw	ra,28(sp)
   22dcc:	dec00904 	addi	sp,sp,36
   22dd0:	f800283a 	ret

00022dd4 <sprintf>:
   22dd4:	defff604 	addi	sp,sp,-40
   22dd8:	dfc00715 	stw	ra,28(sp)
   22ddc:	d9800815 	stw	r6,32(sp)
   22de0:	d9c00915 	stw	r7,36(sp)
   22de4:	00808204 	movi	r2,520
   22de8:	d880000d 	sth	r2,0(sp)
   22dec:	00a00034 	movhi	r2,32768
   22df0:	10bfffc4 	addi	r2,r2,-1
   22df4:	d8800515 	stw	r2,20(sp)
   22df8:	d8800315 	stw	r2,12(sp)
   22dfc:	00bfffc4 	movi	r2,-1
   22e00:	d880008d 	sth	r2,2(sp)
   22e04:	008000b4 	movhi	r2,2
   22e08:	108e9e04 	addi	r2,r2,14968
   22e0c:	d8800115 	stw	r2,4(sp)
   22e10:	008000b4 	movhi	r2,2
   22e14:	10948804 	addi	r2,r2,21024
   22e18:	d9000415 	stw	r4,16(sp)
   22e1c:	d9000215 	stw	r4,8(sp)
   22e20:	11000017 	ldw	r4,0(r2)
   22e24:	280d883a 	mov	r6,r5
   22e28:	d9c00804 	addi	r7,sp,32
   22e2c:	d80b883a 	mov	r5,sp
   22e30:	d8000615 	stw	zero,24(sp)
   22e34:	0022ed40 	call	22ed4 <___svfprintf_internal_r>
   22e38:	d8c00417 	ldw	r3,16(sp)
   22e3c:	18000005 	stb	zero,0(r3)
   22e40:	dfc00717 	ldw	ra,28(sp)
   22e44:	dec00a04 	addi	sp,sp,40
   22e48:	f800283a 	ret

00022e4c <strlen>:
   22e4c:	2005883a 	mov	r2,r4
   22e50:	10c00007 	ldb	r3,0(r2)
   22e54:	18000226 	beq	r3,zero,22e60 <strlen+0x14>
   22e58:	10800044 	addi	r2,r2,1
   22e5c:	003ffc06 	br	22e50 <__alt_data_end+0xfffe5990>
   22e60:	1105c83a 	sub	r2,r2,r4
   22e64:	f800283a 	ret

00022e68 <print_repeat>:
   22e68:	defffb04 	addi	sp,sp,-20
   22e6c:	dc800315 	stw	r18,12(sp)
   22e70:	dc400215 	stw	r17,8(sp)
   22e74:	dc000115 	stw	r16,4(sp)
   22e78:	dfc00415 	stw	ra,16(sp)
   22e7c:	2025883a 	mov	r18,r4
   22e80:	2823883a 	mov	r17,r5
   22e84:	d9800005 	stb	r6,0(sp)
   22e88:	3821883a 	mov	r16,r7
   22e8c:	04000a0e 	bge	zero,r16,22eb8 <print_repeat+0x50>
   22e90:	88800117 	ldw	r2,4(r17)
   22e94:	01c00044 	movi	r7,1
   22e98:	d80d883a 	mov	r6,sp
   22e9c:	880b883a 	mov	r5,r17
   22ea0:	9009883a 	mov	r4,r18
   22ea4:	103ee83a 	callr	r2
   22ea8:	843fffc4 	addi	r16,r16,-1
   22eac:	103ff726 	beq	r2,zero,22e8c <__alt_data_end+0xfffe59cc>
   22eb0:	00bfffc4 	movi	r2,-1
   22eb4:	00000106 	br	22ebc <print_repeat+0x54>
   22eb8:	0005883a 	mov	r2,zero
   22ebc:	dfc00417 	ldw	ra,16(sp)
   22ec0:	dc800317 	ldw	r18,12(sp)
   22ec4:	dc400217 	ldw	r17,8(sp)
   22ec8:	dc000117 	ldw	r16,4(sp)
   22ecc:	dec00504 	addi	sp,sp,20
   22ed0:	f800283a 	ret

00022ed4 <___svfprintf_internal_r>:
   22ed4:	deffe504 	addi	sp,sp,-108
   22ed8:	d8c00804 	addi	r3,sp,32
   22edc:	df001915 	stw	fp,100(sp)
   22ee0:	ddc01815 	stw	r23,96(sp)
   22ee4:	dd801715 	stw	r22,92(sp)
   22ee8:	dd401615 	stw	r21,88(sp)
   22eec:	dd001515 	stw	r20,84(sp)
   22ef0:	dcc01415 	stw	r19,80(sp)
   22ef4:	dc801315 	stw	r18,76(sp)
   22ef8:	dc401215 	stw	r17,72(sp)
   22efc:	dc001115 	stw	r16,68(sp)
   22f00:	dfc01a15 	stw	ra,104(sp)
   22f04:	2027883a 	mov	r19,r4
   22f08:	2839883a 	mov	fp,r5
   22f0c:	382d883a 	mov	r22,r7
   22f10:	d9800f15 	stw	r6,60(sp)
   22f14:	0021883a 	mov	r16,zero
   22f18:	d8000e15 	stw	zero,56(sp)
   22f1c:	002f883a 	mov	r23,zero
   22f20:	002b883a 	mov	r21,zero
   22f24:	0025883a 	mov	r18,zero
   22f28:	0023883a 	mov	r17,zero
   22f2c:	d8000c15 	stw	zero,48(sp)
   22f30:	d8000b15 	stw	zero,44(sp)
   22f34:	0029883a 	mov	r20,zero
   22f38:	d8c00915 	stw	r3,36(sp)
   22f3c:	d8c00f17 	ldw	r3,60(sp)
   22f40:	19000003 	ldbu	r4,0(r3)
   22f44:	20803fcc 	andi	r2,r4,255
   22f48:	1080201c 	xori	r2,r2,128
   22f4c:	10bfe004 	addi	r2,r2,-128
   22f50:	10011c26 	beq	r2,zero,233c4 <___svfprintf_internal_r+0x4f0>
   22f54:	00c00044 	movi	r3,1
   22f58:	a0c01426 	beq	r20,r3,22fac <___svfprintf_internal_r+0xd8>
   22f5c:	1d000216 	blt	r3,r20,22f68 <___svfprintf_internal_r+0x94>
   22f60:	a0000626 	beq	r20,zero,22f7c <___svfprintf_internal_r+0xa8>
   22f64:	00011306 	br	233b4 <___svfprintf_internal_r+0x4e0>
   22f68:	01400084 	movi	r5,2
   22f6c:	a1401d26 	beq	r20,r5,22fe4 <___svfprintf_internal_r+0x110>
   22f70:	014000c4 	movi	r5,3
   22f74:	a1402926 	beq	r20,r5,2301c <___svfprintf_internal_r+0x148>
   22f78:	00010e06 	br	233b4 <___svfprintf_internal_r+0x4e0>
   22f7c:	01400944 	movi	r5,37
   22f80:	1140fb26 	beq	r2,r5,23370 <___svfprintf_internal_r+0x49c>
   22f84:	e0800117 	ldw	r2,4(fp)
   22f88:	d9000005 	stb	r4,0(sp)
   22f8c:	01c00044 	movi	r7,1
   22f90:	d80d883a 	mov	r6,sp
   22f94:	e00b883a 	mov	r5,fp
   22f98:	9809883a 	mov	r4,r19
   22f9c:	103ee83a 	callr	r2
   22fa0:	1000d61e 	bne	r2,zero,232fc <___svfprintf_internal_r+0x428>
   22fa4:	84000044 	addi	r16,r16,1
   22fa8:	00010206 	br	233b4 <___svfprintf_internal_r+0x4e0>
   22fac:	01400c04 	movi	r5,48
   22fb0:	1140f826 	beq	r2,r5,23394 <___svfprintf_internal_r+0x4c0>
   22fb4:	01400944 	movi	r5,37
   22fb8:	11400a1e 	bne	r2,r5,22fe4 <___svfprintf_internal_r+0x110>
   22fbc:	d8800005 	stb	r2,0(sp)
   22fc0:	e0800117 	ldw	r2,4(fp)
   22fc4:	a00f883a 	mov	r7,r20
   22fc8:	d80d883a 	mov	r6,sp
   22fcc:	e00b883a 	mov	r5,fp
   22fd0:	9809883a 	mov	r4,r19
   22fd4:	103ee83a 	callr	r2
   22fd8:	1000c81e 	bne	r2,zero,232fc <___svfprintf_internal_r+0x428>
   22fdc:	84000044 	addi	r16,r16,1
   22fe0:	0000f306 	br	233b0 <___svfprintf_internal_r+0x4dc>
   22fe4:	217ff404 	addi	r5,r4,-48
   22fe8:	29403fcc 	andi	r5,r5,255
   22fec:	00c00244 	movi	r3,9
   22ff0:	19400736 	bltu	r3,r5,23010 <___svfprintf_internal_r+0x13c>
   22ff4:	00bfffc4 	movi	r2,-1
   22ff8:	88800226 	beq	r17,r2,23004 <___svfprintf_internal_r+0x130>
   22ffc:	8c4002a4 	muli	r17,r17,10
   23000:	00000106 	br	23008 <___svfprintf_internal_r+0x134>
   23004:	0023883a 	mov	r17,zero
   23008:	2c63883a 	add	r17,r5,r17
   2300c:	0000e206 	br	23398 <___svfprintf_internal_r+0x4c4>
   23010:	01400b84 	movi	r5,46
   23014:	1140e426 	beq	r2,r5,233a8 <___svfprintf_internal_r+0x4d4>
   23018:	05000084 	movi	r20,2
   2301c:	213ff404 	addi	r4,r4,-48
   23020:	21003fcc 	andi	r4,r4,255
   23024:	00c00244 	movi	r3,9
   23028:	19000736 	bltu	r3,r4,23048 <___svfprintf_internal_r+0x174>
   2302c:	00bfffc4 	movi	r2,-1
   23030:	90800226 	beq	r18,r2,2303c <___svfprintf_internal_r+0x168>
   23034:	948002a4 	muli	r18,r18,10
   23038:	00000106 	br	23040 <___svfprintf_internal_r+0x16c>
   2303c:	0025883a 	mov	r18,zero
   23040:	24a5883a 	add	r18,r4,r18
   23044:	0000db06 	br	233b4 <___svfprintf_internal_r+0x4e0>
   23048:	00c01b04 	movi	r3,108
   2304c:	10c0d426 	beq	r2,r3,233a0 <___svfprintf_internal_r+0x4cc>
   23050:	013fffc4 	movi	r4,-1
   23054:	91000226 	beq	r18,r4,23060 <___svfprintf_internal_r+0x18c>
   23058:	d8000b15 	stw	zero,44(sp)
   2305c:	00000106 	br	23064 <___svfprintf_internal_r+0x190>
   23060:	04800044 	movi	r18,1
   23064:	01001a44 	movi	r4,105
   23068:	11001626 	beq	r2,r4,230c4 <___svfprintf_internal_r+0x1f0>
   2306c:	20800916 	blt	r4,r2,23094 <___svfprintf_internal_r+0x1c0>
   23070:	010018c4 	movi	r4,99
   23074:	11008a26 	beq	r2,r4,232a0 <___svfprintf_internal_r+0x3cc>
   23078:	01001904 	movi	r4,100
   2307c:	11001126 	beq	r2,r4,230c4 <___svfprintf_internal_r+0x1f0>
   23080:	01001604 	movi	r4,88
   23084:	1100ca1e 	bne	r2,r4,233b0 <___svfprintf_internal_r+0x4dc>
   23088:	00c00044 	movi	r3,1
   2308c:	d8c00e15 	stw	r3,56(sp)
   23090:	00001406 	br	230e4 <___svfprintf_internal_r+0x210>
   23094:	01001cc4 	movi	r4,115
   23098:	11009a26 	beq	r2,r4,23304 <___svfprintf_internal_r+0x430>
   2309c:	20800416 	blt	r4,r2,230b0 <___svfprintf_internal_r+0x1dc>
   230a0:	01001bc4 	movi	r4,111
   230a4:	1100c21e 	bne	r2,r4,233b0 <___svfprintf_internal_r+0x4dc>
   230a8:	05400204 	movi	r21,8
   230ac:	00000e06 	br	230e8 <___svfprintf_internal_r+0x214>
   230b0:	01001d44 	movi	r4,117
   230b4:	11000c26 	beq	r2,r4,230e8 <___svfprintf_internal_r+0x214>
   230b8:	01001e04 	movi	r4,120
   230bc:	11000926 	beq	r2,r4,230e4 <___svfprintf_internal_r+0x210>
   230c0:	0000bb06 	br	233b0 <___svfprintf_internal_r+0x4dc>
   230c4:	b5000104 	addi	r20,r22,4
   230c8:	b8000726 	beq	r23,zero,230e8 <___svfprintf_internal_r+0x214>
   230cc:	dd000d15 	stw	r20,52(sp)
   230d0:	b5800017 	ldw	r22,0(r22)
   230d4:	b000080e 	bge	r22,zero,230f8 <___svfprintf_internal_r+0x224>
   230d8:	05adc83a 	sub	r22,zero,r22
   230dc:	02800044 	movi	r10,1
   230e0:	00000606 	br	230fc <___svfprintf_internal_r+0x228>
   230e4:	05400404 	movi	r21,16
   230e8:	b0c00104 	addi	r3,r22,4
   230ec:	d8c00d15 	stw	r3,52(sp)
   230f0:	b5800017 	ldw	r22,0(r22)
   230f4:	002f883a 	mov	r23,zero
   230f8:	0015883a 	mov	r10,zero
   230fc:	d829883a 	mov	r20,sp
   23100:	b0001426 	beq	r22,zero,23154 <___svfprintf_internal_r+0x280>
   23104:	b009883a 	mov	r4,r22
   23108:	a80b883a 	mov	r5,r21
   2310c:	da801015 	stw	r10,64(sp)
   23110:	00228c00 	call	228c0 <__udivsi3>
   23114:	1549383a 	mul	r4,r2,r21
   23118:	00c00244 	movi	r3,9
   2311c:	da801017 	ldw	r10,64(sp)
   23120:	b12dc83a 	sub	r22,r22,r4
   23124:	1d800216 	blt	r3,r22,23130 <___svfprintf_internal_r+0x25c>
   23128:	b5800c04 	addi	r22,r22,48
   2312c:	00000506 	br	23144 <___svfprintf_internal_r+0x270>
   23130:	d8c00e17 	ldw	r3,56(sp)
   23134:	18000226 	beq	r3,zero,23140 <___svfprintf_internal_r+0x26c>
   23138:	b5800dc4 	addi	r22,r22,55
   2313c:	00000106 	br	23144 <___svfprintf_internal_r+0x270>
   23140:	b58015c4 	addi	r22,r22,87
   23144:	a5800005 	stb	r22,0(r20)
   23148:	a5000044 	addi	r20,r20,1
   2314c:	102d883a 	mov	r22,r2
   23150:	003feb06 	br	23100 <__alt_data_end+0xfffe5c40>
   23154:	a6c7c83a 	sub	r3,r20,sp
   23158:	d8c00a15 	stw	r3,40(sp)
   2315c:	90c5c83a 	sub	r2,r18,r3
   23160:	00800a0e 	bge	zero,r2,2318c <___svfprintf_internal_r+0x2b8>
   23164:	a085883a 	add	r2,r20,r2
   23168:	01400c04 	movi	r5,48
   2316c:	d8c00917 	ldw	r3,36(sp)
   23170:	a009883a 	mov	r4,r20
   23174:	a0c0032e 	bgeu	r20,r3,23184 <___svfprintf_internal_r+0x2b0>
   23178:	a5000044 	addi	r20,r20,1
   2317c:	21400005 	stb	r5,0(r4)
   23180:	a0bffa1e 	bne	r20,r2,2316c <__alt_data_end+0xfffe5cac>
   23184:	a6c7c83a 	sub	r3,r20,sp
   23188:	d8c00a15 	stw	r3,40(sp)
   2318c:	d8c00a17 	ldw	r3,40(sp)
   23190:	50d3883a 	add	r9,r10,r3
   23194:	d8c00b17 	ldw	r3,44(sp)
   23198:	8a6dc83a 	sub	r22,r17,r9
   2319c:	18001726 	beq	r3,zero,231fc <___svfprintf_internal_r+0x328>
   231a0:	50000a26 	beq	r10,zero,231cc <___svfprintf_internal_r+0x2f8>
   231a4:	00800b44 	movi	r2,45
   231a8:	d8800805 	stb	r2,32(sp)
   231ac:	e0800117 	ldw	r2,4(fp)
   231b0:	01c00044 	movi	r7,1
   231b4:	d9800804 	addi	r6,sp,32
   231b8:	e00b883a 	mov	r5,fp
   231bc:	9809883a 	mov	r4,r19
   231c0:	103ee83a 	callr	r2
   231c4:	10004d1e 	bne	r2,zero,232fc <___svfprintf_internal_r+0x428>
   231c8:	84000044 	addi	r16,r16,1
   231cc:	0580070e 	bge	zero,r22,231ec <___svfprintf_internal_r+0x318>
   231d0:	b00f883a 	mov	r7,r22
   231d4:	01800c04 	movi	r6,48
   231d8:	e00b883a 	mov	r5,fp
   231dc:	9809883a 	mov	r4,r19
   231e0:	0022e680 	call	22e68 <print_repeat>
   231e4:	1000451e 	bne	r2,zero,232fc <___svfprintf_internal_r+0x428>
   231e8:	85a1883a 	add	r16,r16,r22
   231ec:	d8c00a17 	ldw	r3,40(sp)
   231f0:	a013883a 	mov	r9,r20
   231f4:	1d2dc83a 	sub	r22,r3,r20
   231f8:	00002206 	br	23284 <___svfprintf_internal_r+0x3b0>
   231fc:	0580090e 	bge	zero,r22,23224 <___svfprintf_internal_r+0x350>
   23200:	b00f883a 	mov	r7,r22
   23204:	01800804 	movi	r6,32
   23208:	e00b883a 	mov	r5,fp
   2320c:	9809883a 	mov	r4,r19
   23210:	da801015 	stw	r10,64(sp)
   23214:	0022e680 	call	22e68 <print_repeat>
   23218:	da801017 	ldw	r10,64(sp)
   2321c:	1000371e 	bne	r2,zero,232fc <___svfprintf_internal_r+0x428>
   23220:	85a1883a 	add	r16,r16,r22
   23224:	503ff126 	beq	r10,zero,231ec <__alt_data_end+0xfffe5d2c>
   23228:	00800b44 	movi	r2,45
   2322c:	d8800805 	stb	r2,32(sp)
   23230:	e0800117 	ldw	r2,4(fp)
   23234:	01c00044 	movi	r7,1
   23238:	d9800804 	addi	r6,sp,32
   2323c:	e00b883a 	mov	r5,fp
   23240:	9809883a 	mov	r4,r19
   23244:	103ee83a 	callr	r2
   23248:	10002c1e 	bne	r2,zero,232fc <___svfprintf_internal_r+0x428>
   2324c:	84000044 	addi	r16,r16,1
   23250:	003fe606 	br	231ec <__alt_data_end+0xfffe5d2c>
   23254:	4a7fffc4 	addi	r9,r9,-1
   23258:	48800003 	ldbu	r2,0(r9)
   2325c:	01c00044 	movi	r7,1
   23260:	d9800804 	addi	r6,sp,32
   23264:	d8800805 	stb	r2,32(sp)
   23268:	e0800117 	ldw	r2,4(fp)
   2326c:	e00b883a 	mov	r5,fp
   23270:	da401015 	stw	r9,64(sp)
   23274:	9809883a 	mov	r4,r19
   23278:	103ee83a 	callr	r2
   2327c:	da401017 	ldw	r9,64(sp)
   23280:	10001e1e 	bne	r2,zero,232fc <___svfprintf_internal_r+0x428>
   23284:	8245c83a 	sub	r2,r16,r9
   23288:	4d89883a 	add	r4,r9,r22
   2328c:	a085883a 	add	r2,r20,r2
   23290:	013ff016 	blt	zero,r4,23254 <__alt_data_end+0xfffe5d94>
   23294:	1021883a 	mov	r16,r2
   23298:	dd800d17 	ldw	r22,52(sp)
   2329c:	00004406 	br	233b0 <___svfprintf_internal_r+0x4dc>
   232a0:	00800044 	movi	r2,1
   232a4:	1440080e 	bge	r2,r17,232c8 <___svfprintf_internal_r+0x3f4>
   232a8:	8d3fffc4 	addi	r20,r17,-1
   232ac:	a00f883a 	mov	r7,r20
   232b0:	01800804 	movi	r6,32
   232b4:	e00b883a 	mov	r5,fp
   232b8:	9809883a 	mov	r4,r19
   232bc:	0022e680 	call	22e68 <print_repeat>
   232c0:	10000e1e 	bne	r2,zero,232fc <___svfprintf_internal_r+0x428>
   232c4:	8521883a 	add	r16,r16,r20
   232c8:	b0800017 	ldw	r2,0(r22)
   232cc:	01c00044 	movi	r7,1
   232d0:	d80d883a 	mov	r6,sp
   232d4:	d8800005 	stb	r2,0(sp)
   232d8:	e0800117 	ldw	r2,4(fp)
   232dc:	e00b883a 	mov	r5,fp
   232e0:	9809883a 	mov	r4,r19
   232e4:	b5000104 	addi	r20,r22,4
   232e8:	103ee83a 	callr	r2
   232ec:	1000031e 	bne	r2,zero,232fc <___svfprintf_internal_r+0x428>
   232f0:	84000044 	addi	r16,r16,1
   232f4:	a02d883a 	mov	r22,r20
   232f8:	00002d06 	br	233b0 <___svfprintf_internal_r+0x4dc>
   232fc:	00bfffc4 	movi	r2,-1
   23300:	00003106 	br	233c8 <___svfprintf_internal_r+0x4f4>
   23304:	b5000017 	ldw	r20,0(r22)
   23308:	b0c00104 	addi	r3,r22,4
   2330c:	d8c00a15 	stw	r3,40(sp)
   23310:	a009883a 	mov	r4,r20
   23314:	0022e4c0 	call	22e4c <strlen>
   23318:	8893c83a 	sub	r9,r17,r2
   2331c:	102d883a 	mov	r22,r2
   23320:	0240090e 	bge	zero,r9,23348 <___svfprintf_internal_r+0x474>
   23324:	480f883a 	mov	r7,r9
   23328:	01800804 	movi	r6,32
   2332c:	e00b883a 	mov	r5,fp
   23330:	9809883a 	mov	r4,r19
   23334:	da401015 	stw	r9,64(sp)
   23338:	0022e680 	call	22e68 <print_repeat>
   2333c:	da401017 	ldw	r9,64(sp)
   23340:	103fee1e 	bne	r2,zero,232fc <__alt_data_end+0xfffe5e3c>
   23344:	8261883a 	add	r16,r16,r9
   23348:	e0800117 	ldw	r2,4(fp)
   2334c:	b00f883a 	mov	r7,r22
   23350:	a00d883a 	mov	r6,r20
   23354:	e00b883a 	mov	r5,fp
   23358:	9809883a 	mov	r4,r19
   2335c:	103ee83a 	callr	r2
   23360:	103fe61e 	bne	r2,zero,232fc <__alt_data_end+0xfffe5e3c>
   23364:	85a1883a 	add	r16,r16,r22
   23368:	dd800a17 	ldw	r22,40(sp)
   2336c:	00001006 	br	233b0 <___svfprintf_internal_r+0x4dc>
   23370:	05c00044 	movi	r23,1
   23374:	04bfffc4 	movi	r18,-1
   23378:	d8000e15 	stw	zero,56(sp)
   2337c:	05400284 	movi	r21,10
   23380:	9023883a 	mov	r17,r18
   23384:	d8000c15 	stw	zero,48(sp)
   23388:	d8000b15 	stw	zero,44(sp)
   2338c:	b829883a 	mov	r20,r23
   23390:	00000806 	br	233b4 <___svfprintf_internal_r+0x4e0>
   23394:	dd000b15 	stw	r20,44(sp)
   23398:	05000084 	movi	r20,2
   2339c:	00000506 	br	233b4 <___svfprintf_internal_r+0x4e0>
   233a0:	00c00044 	movi	r3,1
   233a4:	d8c00c15 	stw	r3,48(sp)
   233a8:	050000c4 	movi	r20,3
   233ac:	00000106 	br	233b4 <___svfprintf_internal_r+0x4e0>
   233b0:	0029883a 	mov	r20,zero
   233b4:	d8c00f17 	ldw	r3,60(sp)
   233b8:	18c00044 	addi	r3,r3,1
   233bc:	d8c00f15 	stw	r3,60(sp)
   233c0:	003ede06 	br	22f3c <__alt_data_end+0xfffe5a7c>
   233c4:	8005883a 	mov	r2,r16
   233c8:	dfc01a17 	ldw	ra,104(sp)
   233cc:	df001917 	ldw	fp,100(sp)
   233d0:	ddc01817 	ldw	r23,96(sp)
   233d4:	dd801717 	ldw	r22,92(sp)
   233d8:	dd401617 	ldw	r21,88(sp)
   233dc:	dd001517 	ldw	r20,84(sp)
   233e0:	dcc01417 	ldw	r19,80(sp)
   233e4:	dc801317 	ldw	r18,76(sp)
   233e8:	dc401217 	ldw	r17,72(sp)
   233ec:	dc001117 	ldw	r16,68(sp)
   233f0:	dec01b04 	addi	sp,sp,108
   233f4:	f800283a 	ret

000233f8 <__vfprintf_internal_unused>:
   233f8:	008000b4 	movhi	r2,2
   233fc:	10948804 	addi	r2,r2,21024
   23400:	300f883a 	mov	r7,r6
   23404:	280d883a 	mov	r6,r5
   23408:	200b883a 	mov	r5,r4
   2340c:	11000017 	ldw	r4,0(r2)
   23410:	0022ed41 	jmpi	22ed4 <___svfprintf_internal_r>

00023414 <print_repeat>:
   23414:	defffb04 	addi	sp,sp,-20
   23418:	dc800315 	stw	r18,12(sp)
   2341c:	dc400215 	stw	r17,8(sp)
   23420:	dc000115 	stw	r16,4(sp)
   23424:	dfc00415 	stw	ra,16(sp)
   23428:	2025883a 	mov	r18,r4
   2342c:	2823883a 	mov	r17,r5
   23430:	d9800005 	stb	r6,0(sp)
   23434:	3821883a 	mov	r16,r7
   23438:	04000a0e 	bge	zero,r16,23464 <print_repeat+0x50>
   2343c:	88800117 	ldw	r2,4(r17)
   23440:	01c00044 	movi	r7,1
   23444:	d80d883a 	mov	r6,sp
   23448:	880b883a 	mov	r5,r17
   2344c:	9009883a 	mov	r4,r18
   23450:	103ee83a 	callr	r2
   23454:	843fffc4 	addi	r16,r16,-1
   23458:	103ff726 	beq	r2,zero,23438 <__alt_data_end+0xfffe5f78>
   2345c:	00bfffc4 	movi	r2,-1
   23460:	00000106 	br	23468 <print_repeat+0x54>
   23464:	0005883a 	mov	r2,zero
   23468:	dfc00417 	ldw	ra,16(sp)
   2346c:	dc800317 	ldw	r18,12(sp)
   23470:	dc400217 	ldw	r17,8(sp)
   23474:	dc000117 	ldw	r16,4(sp)
   23478:	dec00504 	addi	sp,sp,20
   2347c:	f800283a 	ret

00023480 <___vfprintf_internal_r>:
   23480:	deffe504 	addi	sp,sp,-108
   23484:	d8c00804 	addi	r3,sp,32
   23488:	df001915 	stw	fp,100(sp)
   2348c:	ddc01815 	stw	r23,96(sp)
   23490:	dd801715 	stw	r22,92(sp)
   23494:	dd401615 	stw	r21,88(sp)
   23498:	dd001515 	stw	r20,84(sp)
   2349c:	dcc01415 	stw	r19,80(sp)
   234a0:	dc801315 	stw	r18,76(sp)
   234a4:	dc401215 	stw	r17,72(sp)
   234a8:	dc001115 	stw	r16,68(sp)
   234ac:	dfc01a15 	stw	ra,104(sp)
   234b0:	2027883a 	mov	r19,r4
   234b4:	2839883a 	mov	fp,r5
   234b8:	382d883a 	mov	r22,r7
   234bc:	d9800f15 	stw	r6,60(sp)
   234c0:	0021883a 	mov	r16,zero
   234c4:	d8000e15 	stw	zero,56(sp)
   234c8:	002f883a 	mov	r23,zero
   234cc:	002b883a 	mov	r21,zero
   234d0:	0025883a 	mov	r18,zero
   234d4:	0023883a 	mov	r17,zero
   234d8:	d8000c15 	stw	zero,48(sp)
   234dc:	d8000b15 	stw	zero,44(sp)
   234e0:	0029883a 	mov	r20,zero
   234e4:	d8c00915 	stw	r3,36(sp)
   234e8:	d8c00f17 	ldw	r3,60(sp)
   234ec:	19000003 	ldbu	r4,0(r3)
   234f0:	20803fcc 	andi	r2,r4,255
   234f4:	1080201c 	xori	r2,r2,128
   234f8:	10bfe004 	addi	r2,r2,-128
   234fc:	10011c26 	beq	r2,zero,23970 <___vfprintf_internal_r+0x4f0>
   23500:	00c00044 	movi	r3,1
   23504:	a0c01426 	beq	r20,r3,23558 <___vfprintf_internal_r+0xd8>
   23508:	1d000216 	blt	r3,r20,23514 <___vfprintf_internal_r+0x94>
   2350c:	a0000626 	beq	r20,zero,23528 <___vfprintf_internal_r+0xa8>
   23510:	00011306 	br	23960 <___vfprintf_internal_r+0x4e0>
   23514:	01400084 	movi	r5,2
   23518:	a1401d26 	beq	r20,r5,23590 <___vfprintf_internal_r+0x110>
   2351c:	014000c4 	movi	r5,3
   23520:	a1402926 	beq	r20,r5,235c8 <___vfprintf_internal_r+0x148>
   23524:	00010e06 	br	23960 <___vfprintf_internal_r+0x4e0>
   23528:	01400944 	movi	r5,37
   2352c:	1140fb26 	beq	r2,r5,2391c <___vfprintf_internal_r+0x49c>
   23530:	e0800117 	ldw	r2,4(fp)
   23534:	d9000005 	stb	r4,0(sp)
   23538:	01c00044 	movi	r7,1
   2353c:	d80d883a 	mov	r6,sp
   23540:	e00b883a 	mov	r5,fp
   23544:	9809883a 	mov	r4,r19
   23548:	103ee83a 	callr	r2
   2354c:	1000d61e 	bne	r2,zero,238a8 <___vfprintf_internal_r+0x428>
   23550:	84000044 	addi	r16,r16,1
   23554:	00010206 	br	23960 <___vfprintf_internal_r+0x4e0>
   23558:	01400c04 	movi	r5,48
   2355c:	1140f826 	beq	r2,r5,23940 <___vfprintf_internal_r+0x4c0>
   23560:	01400944 	movi	r5,37
   23564:	11400a1e 	bne	r2,r5,23590 <___vfprintf_internal_r+0x110>
   23568:	d8800005 	stb	r2,0(sp)
   2356c:	e0800117 	ldw	r2,4(fp)
   23570:	a00f883a 	mov	r7,r20
   23574:	d80d883a 	mov	r6,sp
   23578:	e00b883a 	mov	r5,fp
   2357c:	9809883a 	mov	r4,r19
   23580:	103ee83a 	callr	r2
   23584:	1000c81e 	bne	r2,zero,238a8 <___vfprintf_internal_r+0x428>
   23588:	84000044 	addi	r16,r16,1
   2358c:	0000f306 	br	2395c <___vfprintf_internal_r+0x4dc>
   23590:	217ff404 	addi	r5,r4,-48
   23594:	29403fcc 	andi	r5,r5,255
   23598:	00c00244 	movi	r3,9
   2359c:	19400736 	bltu	r3,r5,235bc <___vfprintf_internal_r+0x13c>
   235a0:	00bfffc4 	movi	r2,-1
   235a4:	88800226 	beq	r17,r2,235b0 <___vfprintf_internal_r+0x130>
   235a8:	8c4002a4 	muli	r17,r17,10
   235ac:	00000106 	br	235b4 <___vfprintf_internal_r+0x134>
   235b0:	0023883a 	mov	r17,zero
   235b4:	2c63883a 	add	r17,r5,r17
   235b8:	0000e206 	br	23944 <___vfprintf_internal_r+0x4c4>
   235bc:	01400b84 	movi	r5,46
   235c0:	1140e426 	beq	r2,r5,23954 <___vfprintf_internal_r+0x4d4>
   235c4:	05000084 	movi	r20,2
   235c8:	213ff404 	addi	r4,r4,-48
   235cc:	21003fcc 	andi	r4,r4,255
   235d0:	00c00244 	movi	r3,9
   235d4:	19000736 	bltu	r3,r4,235f4 <___vfprintf_internal_r+0x174>
   235d8:	00bfffc4 	movi	r2,-1
   235dc:	90800226 	beq	r18,r2,235e8 <___vfprintf_internal_r+0x168>
   235e0:	948002a4 	muli	r18,r18,10
   235e4:	00000106 	br	235ec <___vfprintf_internal_r+0x16c>
   235e8:	0025883a 	mov	r18,zero
   235ec:	24a5883a 	add	r18,r4,r18
   235f0:	0000db06 	br	23960 <___vfprintf_internal_r+0x4e0>
   235f4:	00c01b04 	movi	r3,108
   235f8:	10c0d426 	beq	r2,r3,2394c <___vfprintf_internal_r+0x4cc>
   235fc:	013fffc4 	movi	r4,-1
   23600:	91000226 	beq	r18,r4,2360c <___vfprintf_internal_r+0x18c>
   23604:	d8000b15 	stw	zero,44(sp)
   23608:	00000106 	br	23610 <___vfprintf_internal_r+0x190>
   2360c:	04800044 	movi	r18,1
   23610:	01001a44 	movi	r4,105
   23614:	11001626 	beq	r2,r4,23670 <___vfprintf_internal_r+0x1f0>
   23618:	20800916 	blt	r4,r2,23640 <___vfprintf_internal_r+0x1c0>
   2361c:	010018c4 	movi	r4,99
   23620:	11008a26 	beq	r2,r4,2384c <___vfprintf_internal_r+0x3cc>
   23624:	01001904 	movi	r4,100
   23628:	11001126 	beq	r2,r4,23670 <___vfprintf_internal_r+0x1f0>
   2362c:	01001604 	movi	r4,88
   23630:	1100ca1e 	bne	r2,r4,2395c <___vfprintf_internal_r+0x4dc>
   23634:	00c00044 	movi	r3,1
   23638:	d8c00e15 	stw	r3,56(sp)
   2363c:	00001406 	br	23690 <___vfprintf_internal_r+0x210>
   23640:	01001cc4 	movi	r4,115
   23644:	11009a26 	beq	r2,r4,238b0 <___vfprintf_internal_r+0x430>
   23648:	20800416 	blt	r4,r2,2365c <___vfprintf_internal_r+0x1dc>
   2364c:	01001bc4 	movi	r4,111
   23650:	1100c21e 	bne	r2,r4,2395c <___vfprintf_internal_r+0x4dc>
   23654:	05400204 	movi	r21,8
   23658:	00000e06 	br	23694 <___vfprintf_internal_r+0x214>
   2365c:	01001d44 	movi	r4,117
   23660:	11000c26 	beq	r2,r4,23694 <___vfprintf_internal_r+0x214>
   23664:	01001e04 	movi	r4,120
   23668:	11000926 	beq	r2,r4,23690 <___vfprintf_internal_r+0x210>
   2366c:	0000bb06 	br	2395c <___vfprintf_internal_r+0x4dc>
   23670:	b5000104 	addi	r20,r22,4
   23674:	b8000726 	beq	r23,zero,23694 <___vfprintf_internal_r+0x214>
   23678:	dd000d15 	stw	r20,52(sp)
   2367c:	b5800017 	ldw	r22,0(r22)
   23680:	b000080e 	bge	r22,zero,236a4 <___vfprintf_internal_r+0x224>
   23684:	05adc83a 	sub	r22,zero,r22
   23688:	02800044 	movi	r10,1
   2368c:	00000606 	br	236a8 <___vfprintf_internal_r+0x228>
   23690:	05400404 	movi	r21,16
   23694:	b0c00104 	addi	r3,r22,4
   23698:	d8c00d15 	stw	r3,52(sp)
   2369c:	b5800017 	ldw	r22,0(r22)
   236a0:	002f883a 	mov	r23,zero
   236a4:	0015883a 	mov	r10,zero
   236a8:	d829883a 	mov	r20,sp
   236ac:	b0001426 	beq	r22,zero,23700 <___vfprintf_internal_r+0x280>
   236b0:	b009883a 	mov	r4,r22
   236b4:	a80b883a 	mov	r5,r21
   236b8:	da801015 	stw	r10,64(sp)
   236bc:	00228c00 	call	228c0 <__udivsi3>
   236c0:	1549383a 	mul	r4,r2,r21
   236c4:	00c00244 	movi	r3,9
   236c8:	da801017 	ldw	r10,64(sp)
   236cc:	b12dc83a 	sub	r22,r22,r4
   236d0:	1d800216 	blt	r3,r22,236dc <___vfprintf_internal_r+0x25c>
   236d4:	b5800c04 	addi	r22,r22,48
   236d8:	00000506 	br	236f0 <___vfprintf_internal_r+0x270>
   236dc:	d8c00e17 	ldw	r3,56(sp)
   236e0:	18000226 	beq	r3,zero,236ec <___vfprintf_internal_r+0x26c>
   236e4:	b5800dc4 	addi	r22,r22,55
   236e8:	00000106 	br	236f0 <___vfprintf_internal_r+0x270>
   236ec:	b58015c4 	addi	r22,r22,87
   236f0:	a5800005 	stb	r22,0(r20)
   236f4:	a5000044 	addi	r20,r20,1
   236f8:	102d883a 	mov	r22,r2
   236fc:	003feb06 	br	236ac <__alt_data_end+0xfffe61ec>
   23700:	a6c7c83a 	sub	r3,r20,sp
   23704:	d8c00a15 	stw	r3,40(sp)
   23708:	90c5c83a 	sub	r2,r18,r3
   2370c:	00800a0e 	bge	zero,r2,23738 <___vfprintf_internal_r+0x2b8>
   23710:	a085883a 	add	r2,r20,r2
   23714:	01400c04 	movi	r5,48
   23718:	d8c00917 	ldw	r3,36(sp)
   2371c:	a009883a 	mov	r4,r20
   23720:	a0c0032e 	bgeu	r20,r3,23730 <___vfprintf_internal_r+0x2b0>
   23724:	a5000044 	addi	r20,r20,1
   23728:	21400005 	stb	r5,0(r4)
   2372c:	a0bffa1e 	bne	r20,r2,23718 <__alt_data_end+0xfffe6258>
   23730:	a6c7c83a 	sub	r3,r20,sp
   23734:	d8c00a15 	stw	r3,40(sp)
   23738:	d8c00a17 	ldw	r3,40(sp)
   2373c:	50d3883a 	add	r9,r10,r3
   23740:	d8c00b17 	ldw	r3,44(sp)
   23744:	8a6dc83a 	sub	r22,r17,r9
   23748:	18001726 	beq	r3,zero,237a8 <___vfprintf_internal_r+0x328>
   2374c:	50000a26 	beq	r10,zero,23778 <___vfprintf_internal_r+0x2f8>
   23750:	00800b44 	movi	r2,45
   23754:	d8800805 	stb	r2,32(sp)
   23758:	e0800117 	ldw	r2,4(fp)
   2375c:	01c00044 	movi	r7,1
   23760:	d9800804 	addi	r6,sp,32
   23764:	e00b883a 	mov	r5,fp
   23768:	9809883a 	mov	r4,r19
   2376c:	103ee83a 	callr	r2
   23770:	10004d1e 	bne	r2,zero,238a8 <___vfprintf_internal_r+0x428>
   23774:	84000044 	addi	r16,r16,1
   23778:	0580070e 	bge	zero,r22,23798 <___vfprintf_internal_r+0x318>
   2377c:	b00f883a 	mov	r7,r22
   23780:	01800c04 	movi	r6,48
   23784:	e00b883a 	mov	r5,fp
   23788:	9809883a 	mov	r4,r19
   2378c:	00234140 	call	23414 <print_repeat>
   23790:	1000451e 	bne	r2,zero,238a8 <___vfprintf_internal_r+0x428>
   23794:	85a1883a 	add	r16,r16,r22
   23798:	d8c00a17 	ldw	r3,40(sp)
   2379c:	a013883a 	mov	r9,r20
   237a0:	1d2dc83a 	sub	r22,r3,r20
   237a4:	00002206 	br	23830 <___vfprintf_internal_r+0x3b0>
   237a8:	0580090e 	bge	zero,r22,237d0 <___vfprintf_internal_r+0x350>
   237ac:	b00f883a 	mov	r7,r22
   237b0:	01800804 	movi	r6,32
   237b4:	e00b883a 	mov	r5,fp
   237b8:	9809883a 	mov	r4,r19
   237bc:	da801015 	stw	r10,64(sp)
   237c0:	00234140 	call	23414 <print_repeat>
   237c4:	da801017 	ldw	r10,64(sp)
   237c8:	1000371e 	bne	r2,zero,238a8 <___vfprintf_internal_r+0x428>
   237cc:	85a1883a 	add	r16,r16,r22
   237d0:	503ff126 	beq	r10,zero,23798 <__alt_data_end+0xfffe62d8>
   237d4:	00800b44 	movi	r2,45
   237d8:	d8800805 	stb	r2,32(sp)
   237dc:	e0800117 	ldw	r2,4(fp)
   237e0:	01c00044 	movi	r7,1
   237e4:	d9800804 	addi	r6,sp,32
   237e8:	e00b883a 	mov	r5,fp
   237ec:	9809883a 	mov	r4,r19
   237f0:	103ee83a 	callr	r2
   237f4:	10002c1e 	bne	r2,zero,238a8 <___vfprintf_internal_r+0x428>
   237f8:	84000044 	addi	r16,r16,1
   237fc:	003fe606 	br	23798 <__alt_data_end+0xfffe62d8>
   23800:	4a7fffc4 	addi	r9,r9,-1
   23804:	48800003 	ldbu	r2,0(r9)
   23808:	01c00044 	movi	r7,1
   2380c:	d9800804 	addi	r6,sp,32
   23810:	d8800805 	stb	r2,32(sp)
   23814:	e0800117 	ldw	r2,4(fp)
   23818:	e00b883a 	mov	r5,fp
   2381c:	da401015 	stw	r9,64(sp)
   23820:	9809883a 	mov	r4,r19
   23824:	103ee83a 	callr	r2
   23828:	da401017 	ldw	r9,64(sp)
   2382c:	10001e1e 	bne	r2,zero,238a8 <___vfprintf_internal_r+0x428>
   23830:	8245c83a 	sub	r2,r16,r9
   23834:	4d89883a 	add	r4,r9,r22
   23838:	a085883a 	add	r2,r20,r2
   2383c:	013ff016 	blt	zero,r4,23800 <__alt_data_end+0xfffe6340>
   23840:	1021883a 	mov	r16,r2
   23844:	dd800d17 	ldw	r22,52(sp)
   23848:	00004406 	br	2395c <___vfprintf_internal_r+0x4dc>
   2384c:	00800044 	movi	r2,1
   23850:	1440080e 	bge	r2,r17,23874 <___vfprintf_internal_r+0x3f4>
   23854:	8d3fffc4 	addi	r20,r17,-1
   23858:	a00f883a 	mov	r7,r20
   2385c:	01800804 	movi	r6,32
   23860:	e00b883a 	mov	r5,fp
   23864:	9809883a 	mov	r4,r19
   23868:	00234140 	call	23414 <print_repeat>
   2386c:	10000e1e 	bne	r2,zero,238a8 <___vfprintf_internal_r+0x428>
   23870:	8521883a 	add	r16,r16,r20
   23874:	b0800017 	ldw	r2,0(r22)
   23878:	01c00044 	movi	r7,1
   2387c:	d80d883a 	mov	r6,sp
   23880:	d8800005 	stb	r2,0(sp)
   23884:	e0800117 	ldw	r2,4(fp)
   23888:	e00b883a 	mov	r5,fp
   2388c:	9809883a 	mov	r4,r19
   23890:	b5000104 	addi	r20,r22,4
   23894:	103ee83a 	callr	r2
   23898:	1000031e 	bne	r2,zero,238a8 <___vfprintf_internal_r+0x428>
   2389c:	84000044 	addi	r16,r16,1
   238a0:	a02d883a 	mov	r22,r20
   238a4:	00002d06 	br	2395c <___vfprintf_internal_r+0x4dc>
   238a8:	00bfffc4 	movi	r2,-1
   238ac:	00003106 	br	23974 <___vfprintf_internal_r+0x4f4>
   238b0:	b5000017 	ldw	r20,0(r22)
   238b4:	b0c00104 	addi	r3,r22,4
   238b8:	d8c00a15 	stw	r3,40(sp)
   238bc:	a009883a 	mov	r4,r20
   238c0:	0022e4c0 	call	22e4c <strlen>
   238c4:	8893c83a 	sub	r9,r17,r2
   238c8:	102d883a 	mov	r22,r2
   238cc:	0240090e 	bge	zero,r9,238f4 <___vfprintf_internal_r+0x474>
   238d0:	480f883a 	mov	r7,r9
   238d4:	01800804 	movi	r6,32
   238d8:	e00b883a 	mov	r5,fp
   238dc:	9809883a 	mov	r4,r19
   238e0:	da401015 	stw	r9,64(sp)
   238e4:	00234140 	call	23414 <print_repeat>
   238e8:	da401017 	ldw	r9,64(sp)
   238ec:	103fee1e 	bne	r2,zero,238a8 <__alt_data_end+0xfffe63e8>
   238f0:	8261883a 	add	r16,r16,r9
   238f4:	e0800117 	ldw	r2,4(fp)
   238f8:	b00f883a 	mov	r7,r22
   238fc:	a00d883a 	mov	r6,r20
   23900:	e00b883a 	mov	r5,fp
   23904:	9809883a 	mov	r4,r19
   23908:	103ee83a 	callr	r2
   2390c:	103fe61e 	bne	r2,zero,238a8 <__alt_data_end+0xfffe63e8>
   23910:	85a1883a 	add	r16,r16,r22
   23914:	dd800a17 	ldw	r22,40(sp)
   23918:	00001006 	br	2395c <___vfprintf_internal_r+0x4dc>
   2391c:	05c00044 	movi	r23,1
   23920:	04bfffc4 	movi	r18,-1
   23924:	d8000e15 	stw	zero,56(sp)
   23928:	05400284 	movi	r21,10
   2392c:	9023883a 	mov	r17,r18
   23930:	d8000c15 	stw	zero,48(sp)
   23934:	d8000b15 	stw	zero,44(sp)
   23938:	b829883a 	mov	r20,r23
   2393c:	00000806 	br	23960 <___vfprintf_internal_r+0x4e0>
   23940:	dd000b15 	stw	r20,44(sp)
   23944:	05000084 	movi	r20,2
   23948:	00000506 	br	23960 <___vfprintf_internal_r+0x4e0>
   2394c:	00c00044 	movi	r3,1
   23950:	d8c00c15 	stw	r3,48(sp)
   23954:	050000c4 	movi	r20,3
   23958:	00000106 	br	23960 <___vfprintf_internal_r+0x4e0>
   2395c:	0029883a 	mov	r20,zero
   23960:	d8c00f17 	ldw	r3,60(sp)
   23964:	18c00044 	addi	r3,r3,1
   23968:	d8c00f15 	stw	r3,60(sp)
   2396c:	003ede06 	br	234e8 <__alt_data_end+0xfffe6028>
   23970:	8005883a 	mov	r2,r16
   23974:	dfc01a17 	ldw	ra,104(sp)
   23978:	df001917 	ldw	fp,100(sp)
   2397c:	ddc01817 	ldw	r23,96(sp)
   23980:	dd801717 	ldw	r22,92(sp)
   23984:	dd401617 	ldw	r21,88(sp)
   23988:	dd001517 	ldw	r20,84(sp)
   2398c:	dcc01417 	ldw	r19,80(sp)
   23990:	dc801317 	ldw	r18,76(sp)
   23994:	dc401217 	ldw	r17,72(sp)
   23998:	dc001117 	ldw	r16,68(sp)
   2399c:	dec01b04 	addi	sp,sp,108
   239a0:	f800283a 	ret

000239a4 <__vfprintf_internal>:
   239a4:	008000b4 	movhi	r2,2
   239a8:	10948804 	addi	r2,r2,21024
   239ac:	300f883a 	mov	r7,r6
   239b0:	280d883a 	mov	r6,r5
   239b4:	200b883a 	mov	r5,r4
   239b8:	11000017 	ldw	r4,0(r2)
   239bc:	00234801 	jmpi	23480 <___vfprintf_internal_r>

000239c0 <__sfvwrite_small_dev>:
   239c0:	2880000b 	ldhu	r2,0(r5)
   239c4:	1080020c 	andi	r2,r2,8
   239c8:	10002126 	beq	r2,zero,23a50 <__sfvwrite_small_dev+0x90>
   239cc:	2880008f 	ldh	r2,2(r5)
   239d0:	defffa04 	addi	sp,sp,-24
   239d4:	dc000015 	stw	r16,0(sp)
   239d8:	dfc00515 	stw	ra,20(sp)
   239dc:	dd000415 	stw	r20,16(sp)
   239e0:	dcc00315 	stw	r19,12(sp)
   239e4:	dc800215 	stw	r18,8(sp)
   239e8:	dc400115 	stw	r17,4(sp)
   239ec:	2821883a 	mov	r16,r5
   239f0:	10001216 	blt	r2,zero,23a3c <__sfvwrite_small_dev+0x7c>
   239f4:	2027883a 	mov	r19,r4
   239f8:	3025883a 	mov	r18,r6
   239fc:	3823883a 	mov	r17,r7
   23a00:	05010004 	movi	r20,1024
   23a04:	04400b0e 	bge	zero,r17,23a34 <__sfvwrite_small_dev+0x74>
   23a08:	880f883a 	mov	r7,r17
   23a0c:	a440010e 	bge	r20,r17,23a14 <__sfvwrite_small_dev+0x54>
   23a10:	01c10004 	movi	r7,1024
   23a14:	8140008f 	ldh	r5,2(r16)
   23a18:	900d883a 	mov	r6,r18
   23a1c:	9809883a 	mov	r4,r19
   23a20:	0023c2c0 	call	23c2c <_write_r>
   23a24:	0080050e 	bge	zero,r2,23a3c <__sfvwrite_small_dev+0x7c>
   23a28:	88a3c83a 	sub	r17,r17,r2
   23a2c:	90a5883a 	add	r18,r18,r2
   23a30:	003ff406 	br	23a04 <__alt_data_end+0xfffe6544>
   23a34:	0005883a 	mov	r2,zero
   23a38:	00000706 	br	23a58 <__sfvwrite_small_dev+0x98>
   23a3c:	8080000b 	ldhu	r2,0(r16)
   23a40:	10801014 	ori	r2,r2,64
   23a44:	8080000d 	sth	r2,0(r16)
   23a48:	00bfffc4 	movi	r2,-1
   23a4c:	00000206 	br	23a58 <__sfvwrite_small_dev+0x98>
   23a50:	00bfffc4 	movi	r2,-1
   23a54:	f800283a 	ret
   23a58:	dfc00517 	ldw	ra,20(sp)
   23a5c:	dd000417 	ldw	r20,16(sp)
   23a60:	dcc00317 	ldw	r19,12(sp)
   23a64:	dc800217 	ldw	r18,8(sp)
   23a68:	dc400117 	ldw	r17,4(sp)
   23a6c:	dc000017 	ldw	r16,0(sp)
   23a70:	dec00604 	addi	sp,sp,24
   23a74:	f800283a 	ret

00023a78 <__sfvwrite_small_str>:
   23a78:	2880000b 	ldhu	r2,0(r5)
   23a7c:	10c0020c 	andi	r3,r2,8
   23a80:	18002026 	beq	r3,zero,23b04 <__sfvwrite_small_str+0x8c>
   23a84:	28c0008f 	ldh	r3,2(r5)
   23a88:	defffd04 	addi	sp,sp,-12
   23a8c:	dc000015 	stw	r16,0(sp)
   23a90:	dfc00215 	stw	ra,8(sp)
   23a94:	dc400115 	stw	r17,4(sp)
   23a98:	2821883a 	mov	r16,r5
   23a9c:	1800150e 	bge	r3,zero,23af4 <__sfvwrite_small_str+0x7c>
   23aa0:	10c0800c 	andi	r3,r2,512
   23aa4:	18001326 	beq	r3,zero,23af4 <__sfvwrite_small_str+0x7c>
   23aa8:	2c400517 	ldw	r17,20(r5)
   23aac:	89c0030e 	bge	r17,r7,23abc <__sfvwrite_small_str+0x44>
   23ab0:	10c0200c 	andi	r3,r2,128
   23ab4:	18000326 	beq	r3,zero,23ac4 <__sfvwrite_small_str+0x4c>
   23ab8:	00000e06 	br	23af4 <__sfvwrite_small_str+0x7c>
   23abc:	3c40010e 	bge	r7,r17,23ac4 <__sfvwrite_small_str+0x4c>
   23ac0:	3823883a 	mov	r17,r7
   23ac4:	81000417 	ldw	r4,16(r16)
   23ac8:	300b883a 	mov	r5,r6
   23acc:	880d883a 	mov	r6,r17
   23ad0:	0023b200 	call	23b20 <memmove>
   23ad4:	80800517 	ldw	r2,20(r16)
   23ad8:	1445c83a 	sub	r2,r2,r17
   23adc:	80800515 	stw	r2,20(r16)
   23ae0:	80800417 	ldw	r2,16(r16)
   23ae4:	1463883a 	add	r17,r2,r17
   23ae8:	84400415 	stw	r17,16(r16)
   23aec:	0005883a 	mov	r2,zero
   23af0:	00000606 	br	23b0c <__sfvwrite_small_str+0x94>
   23af4:	10801014 	ori	r2,r2,64
   23af8:	8080000d 	sth	r2,0(r16)
   23afc:	00bfffc4 	movi	r2,-1
   23b00:	00000206 	br	23b0c <__sfvwrite_small_str+0x94>
   23b04:	00bfffc4 	movi	r2,-1
   23b08:	f800283a 	ret
   23b0c:	dfc00217 	ldw	ra,8(sp)
   23b10:	dc400117 	ldw	r17,4(sp)
   23b14:	dc000017 	ldw	r16,0(sp)
   23b18:	dec00304 	addi	sp,sp,12
   23b1c:	f800283a 	ret

00023b20 <memmove>:
   23b20:	2005883a 	mov	r2,r4
   23b24:	218f883a 	add	r7,r4,r6
   23b28:	29000236 	bltu	r5,r4,23b34 <memmove+0x14>
   23b2c:	1007883a 	mov	r3,r2
   23b30:	00000c06 	br	23b64 <memmove+0x44>
   23b34:	2987883a 	add	r3,r5,r6
   23b38:	20fffc2e 	bgeu	r4,r3,23b2c <__alt_data_end+0xfffe666c>
   23b3c:	380b883a 	mov	r5,r7
   23b40:	30cdc83a 	sub	r6,r6,r3
   23b44:	1989883a 	add	r4,r3,r6
   23b48:	20000526 	beq	r4,zero,23b60 <memmove+0x40>
   23b4c:	18ffffc4 	addi	r3,r3,-1
   23b50:	19000003 	ldbu	r4,0(r3)
   23b54:	297fffc4 	addi	r5,r5,-1
   23b58:	29000005 	stb	r4,0(r5)
   23b5c:	003ff906 	br	23b44 <__alt_data_end+0xfffe6684>
   23b60:	f800283a 	ret
   23b64:	19c00526 	beq	r3,r7,23b7c <memmove+0x5c>
   23b68:	29000003 	ldbu	r4,0(r5)
   23b6c:	18c00044 	addi	r3,r3,1
   23b70:	29400044 	addi	r5,r5,1
   23b74:	193fffc5 	stb	r4,-1(r3)
   23b78:	003ffa06 	br	23b64 <__alt_data_end+0xfffe66a4>
   23b7c:	f800283a 	ret

00023b80 <putc>:
   23b80:	defffd04 	addi	sp,sp,-12
   23b84:	008000b4 	movhi	r2,2
   23b88:	dc000115 	stw	r16,4(sp)
   23b8c:	dfc00215 	stw	ra,8(sp)
   23b90:	108e7004 	addi	r2,r2,14784
   23b94:	28800115 	stw	r2,4(r5)
   23b98:	008000b4 	movhi	r2,2
   23b9c:	10948804 	addi	r2,r2,21024
   23ba0:	d9000005 	stb	r4,0(sp)
   23ba4:	2021883a 	mov	r16,r4
   23ba8:	11000017 	ldw	r4,0(r2)
   23bac:	01c00044 	movi	r7,1
   23bb0:	d80d883a 	mov	r6,sp
   23bb4:	00239c00 	call	239c0 <__sfvwrite_small_dev>
   23bb8:	00ffffc4 	movi	r3,-1
   23bbc:	10c00126 	beq	r2,r3,23bc4 <putc+0x44>
   23bc0:	8005883a 	mov	r2,r16
   23bc4:	dfc00217 	ldw	ra,8(sp)
   23bc8:	dc000117 	ldw	r16,4(sp)
   23bcc:	dec00304 	addi	sp,sp,12
   23bd0:	f800283a 	ret

00023bd4 <_putc_r>:
   23bd4:	defffd04 	addi	sp,sp,-12
   23bd8:	008000b4 	movhi	r2,2
   23bdc:	dc000115 	stw	r16,4(sp)
   23be0:	dfc00215 	stw	ra,8(sp)
   23be4:	108e7004 	addi	r2,r2,14784
   23be8:	30800115 	stw	r2,4(r6)
   23bec:	008000b4 	movhi	r2,2
   23bf0:	10948804 	addi	r2,r2,21024
   23bf4:	11000017 	ldw	r4,0(r2)
   23bf8:	2821883a 	mov	r16,r5
   23bfc:	01c00044 	movi	r7,1
   23c00:	300b883a 	mov	r5,r6
   23c04:	d80d883a 	mov	r6,sp
   23c08:	dc000005 	stb	r16,0(sp)
   23c0c:	00239c00 	call	239c0 <__sfvwrite_small_dev>
   23c10:	00ffffc4 	movi	r3,-1
   23c14:	10c00126 	beq	r2,r3,23c1c <_putc_r+0x48>
   23c18:	8005883a 	mov	r2,r16
   23c1c:	dfc00217 	ldw	ra,8(sp)
   23c20:	dc000117 	ldw	r16,4(sp)
   23c24:	dec00304 	addi	sp,sp,12
   23c28:	f800283a 	ret

00023c2c <_write_r>:
   23c2c:	defffd04 	addi	sp,sp,-12
   23c30:	dc000015 	stw	r16,0(sp)
   23c34:	040000b4 	movhi	r16,2
   23c38:	dc400115 	stw	r17,4(sp)
   23c3c:	8414f904 	addi	r16,r16,21476
   23c40:	2023883a 	mov	r17,r4
   23c44:	2809883a 	mov	r4,r5
   23c48:	300b883a 	mov	r5,r6
   23c4c:	380d883a 	mov	r6,r7
   23c50:	dfc00215 	stw	ra,8(sp)
   23c54:	80000015 	stw	zero,0(r16)
   23c58:	00241800 	call	24180 <write>
   23c5c:	00ffffc4 	movi	r3,-1
   23c60:	10c0031e 	bne	r2,r3,23c70 <_write_r+0x44>
   23c64:	80c00017 	ldw	r3,0(r16)
   23c68:	18000126 	beq	r3,zero,23c70 <_write_r+0x44>
   23c6c:	88c00015 	stw	r3,0(r17)
   23c70:	dfc00217 	ldw	ra,8(sp)
   23c74:	dc400117 	ldw	r17,4(sp)
   23c78:	dc000017 	ldw	r16,0(sp)
   23c7c:	dec00304 	addi	sp,sp,12
   23c80:	f800283a 	ret

00023c84 <fcntl>:
 *
 * ALT_FCNTL is mapped onto the fcntl() system call in alt_syscall.h
 */
 
int ALT_FCNTL (int file, int cmd, ...)
{ 
   23c84:	defffd04 	addi	sp,sp,-12
   23c88:	dfc00015 	stw	ra,0(sp)
   23c8c:	d9800115 	stw	r6,4(sp)
   23c90:	d9c00215 	stw	r7,8(sp)
   * A common error case is that when the file descriptor was created, the call
   * to open() failed resulting in a negative file descriptor. This is trapped
   * below so that we don't try and process an invalid file descriptor.
   */

  fd = (file < 0) ? NULL : &alt_fd_list[file];
   23c94:	20001e16 	blt	r4,zero,23d10 <fcntl+0x8c>
   23c98:	21000324 	muli	r4,r4,12
   23c9c:	008000b4 	movhi	r2,2
   23ca0:	10946c04 	addi	r2,r2,20912
   23ca4:	2089883a 	add	r4,r4,r2
  
  if (fd)
   23ca8:	20001926 	beq	r4,zero,23d10 <fcntl+0x8c>
  {
    switch (cmd)
   23cac:	008000c4 	movi	r2,3
   23cb0:	28800b26 	beq	r5,r2,23ce0 <fcntl+0x5c>
   23cb4:	00800104 	movi	r2,4
   23cb8:	28800e1e 	bne	r5,r2,23cf4 <fcntl+0x70>
      return fd->fd_flags & ~((alt_u32) ALT_FD_FLAGS_MASK);
    case F_SETFL:
      va_start(argp, cmd);
      flags = va_arg(argp, long);
      fd->fd_flags &= ~ALT_FCNTL_FLAGS_MASK;
      fd->fd_flags |= (flags & ALT_FCNTL_FLAGS_MASK);
   23cbc:	21000204 	addi	r4,r4,8
   23cc0:	20c00017 	ldw	r3,0(r4)
   23cc4:	00affdc4 	movi	r2,-16393
   23cc8:	3190020c 	andi	r6,r6,16392
   23ccc:	1884703a 	and	r2,r3,r2
   23cd0:	118cb03a 	or	r6,r2,r6
   23cd4:	21800015 	stw	r6,0(r4)
      va_end(argp);
      return 0;
   23cd8:	0005883a 	mov	r2,zero
   23cdc:	00001406 	br	23d30 <fcntl+0xac>
  if (fd)
  {
    switch (cmd)
    {
    case F_GETFL:
      return fd->fd_flags & ~((alt_u32) ALT_FD_FLAGS_MASK);
   23ce0:	20c00217 	ldw	r3,8(r4)
   23ce4:	00900034 	movhi	r2,16384
   23ce8:	10bfffc4 	addi	r2,r2,-1
   23cec:	1884703a 	and	r2,r3,r2
   23cf0:	00000f06 	br	23d30 <fcntl+0xac>

extern int errno;

static ALT_INLINE int* alt_get_errno(void)
{
  return ((alt_errno) ? alt_errno() : &errno);
   23cf4:	d0a01117 	ldw	r2,-32700(gp)
   23cf8:	10000226 	beq	r2,zero,23d04 <fcntl+0x80>
   23cfc:	103ee83a 	callr	r2
   23d00:	00000106 	br	23d08 <fcntl+0x84>
   23d04:	d0a07704 	addi	r2,gp,-32292
      fd->fd_flags &= ~ALT_FCNTL_FLAGS_MASK;
      fd->fd_flags |= (flags & ALT_FCNTL_FLAGS_MASK);
      va_end(argp);
      return 0;
    default:
      ALT_ERRNO = EINVAL;
   23d08:	00c00584 	movi	r3,22
   23d0c:	00000606 	br	23d28 <fcntl+0xa4>
   23d10:	d0a01117 	ldw	r2,-32700(gp)
   23d14:	10000226 	beq	r2,zero,23d20 <fcntl+0x9c>
   23d18:	103ee83a 	callr	r2
   23d1c:	00000106 	br	23d24 <fcntl+0xa0>
   23d20:	d0a07704 	addi	r2,gp,-32292
      return -1;
    }
  }

  ALT_ERRNO = EBADFD;
   23d24:	00c01444 	movi	r3,81
   23d28:	10c00015 	stw	r3,0(r2)
  return -1;
   23d2c:	00bfffc4 	movi	r2,-1
}
   23d30:	dfc00017 	ldw	ra,0(sp)
   23d34:	dec00304 	addi	sp,sp,12
   23d38:	f800283a 	ret

00023d3c <alt_getchar>:
#else
#ifdef ALT_USE_DIRECT_DRIVERS
    ALT_DRIVER_READ_EXTERNS(ALT_STDIN_DEV);
    char c;

    if (ALT_DRIVER_READ(ALT_STDIN_DEV, &c, 1, alt_fd_list[STDIN_FILENO].fd_flags) <= 0) {
   23d3c:	008000b4 	movhi	r2,2
   23d40:	10946c04 	addi	r2,r2,20912
   23d44:	11c00217 	ldw	r7,8(r2)
 * Uses the ALT_DRIVER_READ() macro to call directly to driver if available.
 * Otherwise, uses newlib provided getchar() routine.
 */
int 
alt_getchar(void)
{
   23d48:	defffe04 	addi	sp,sp,-8
#else
#ifdef ALT_USE_DIRECT_DRIVERS
    ALT_DRIVER_READ_EXTERNS(ALT_STDIN_DEV);
    char c;

    if (ALT_DRIVER_READ(ALT_STDIN_DEV, &c, 1, alt_fd_list[STDIN_FILENO].fd_flags) <= 0) {
   23d4c:	010000b4 	movhi	r4,2
   23d50:	01800044 	movi	r6,1
   23d54:	d80b883a 	mov	r5,sp
   23d58:	21148d04 	addi	r4,r4,21044
 * Uses the ALT_DRIVER_READ() macro to call directly to driver if available.
 * Otherwise, uses newlib provided getchar() routine.
 */
int 
alt_getchar(void)
{
   23d5c:	dfc00115 	stw	ra,4(sp)
#else
#ifdef ALT_USE_DIRECT_DRIVERS
    ALT_DRIVER_READ_EXTERNS(ALT_STDIN_DEV);
    char c;

    if (ALT_DRIVER_READ(ALT_STDIN_DEV, &c, 1, alt_fd_list[STDIN_FILENO].fd_flags) <= 0) {
   23d60:	00242040 	call	24204 <altera_avalon_jtag_uart_read>
   23d64:	0080020e 	bge	zero,r2,23d70 <alt_getchar+0x34>
        return -1;
    }
    return c;
   23d68:	d8800007 	ldb	r2,0(sp)
   23d6c:	00000106 	br	23d74 <alt_getchar+0x38>
#ifdef ALT_USE_DIRECT_DRIVERS
    ALT_DRIVER_READ_EXTERNS(ALT_STDIN_DEV);
    char c;

    if (ALT_DRIVER_READ(ALT_STDIN_DEV, &c, 1, alt_fd_list[STDIN_FILENO].fd_flags) <= 0) {
        return -1;
   23d70:	00bfffc4 	movi	r2,-1
    return c;
#else
    return getchar();
#endif
#endif
}
   23d74:	dfc00117 	ldw	ra,4(sp)
   23d78:	dec00204 	addi	sp,sp,8
   23d7c:	f800283a 	ret

00023d80 <alt_load>:
 * there is no bootloader, so this application is responsible for loading to
 * RAM any sections that are required.
 */  

void alt_load (void)
{
   23d80:	deffff04 	addi	sp,sp,-4
   23d84:	010000b4 	movhi	r4,2
   23d88:	014000b4 	movhi	r5,2
   23d8c:	dfc00015 	stw	ra,0(sp)
   23d90:	21143404 	addi	r4,r4,20688
   23d94:	29549404 	addi	r5,r5,21072

static void ALT_INLINE alt_load_section (alt_u32* from, 
                                         alt_u32* to, 
                                         alt_u32* end)
{
  if (to != from)
   23d98:	2140061e 	bne	r4,r5,23db4 <alt_load+0x34>
   23d9c:	010000b4 	movhi	r4,2
   23da0:	014000b4 	movhi	r5,2
   23da4:	21000804 	addi	r4,r4,32
   23da8:	29400804 	addi	r5,r5,32
   23dac:	2140121e 	bne	r4,r5,23df8 <alt_load+0x78>
   23db0:	00000b06 	br	23de0 <alt_load+0x60>
   23db4:	00c000b4 	movhi	r3,2
   23db8:	18d49404 	addi	r3,r3,21072
   23dbc:	1907c83a 	sub	r3,r3,r4
   23dc0:	0005883a 	mov	r2,zero
  {
    while( to != end )
   23dc4:	10fff526 	beq	r2,r3,23d9c <__alt_data_end+0xfffe68dc>
    {
      *to++ = *from++;
   23dc8:	114f883a 	add	r7,r2,r5
   23dcc:	39c00017 	ldw	r7,0(r7)
   23dd0:	110d883a 	add	r6,r2,r4
   23dd4:	10800104 	addi	r2,r2,4
   23dd8:	31c00015 	stw	r7,0(r6)
   23ddc:	003ff906 	br	23dc4 <__alt_data_end+0xfffe6904>
   23de0:	010000b4 	movhi	r4,2
   23de4:	014000b4 	movhi	r5,2
   23de8:	2110de04 	addi	r4,r4,17272
   23dec:	2950de04 	addi	r5,r5,17272

static void ALT_INLINE alt_load_section (alt_u32* from, 
                                         alt_u32* to, 
                                         alt_u32* end)
{
  if (to != from)
   23df0:	2140101e 	bne	r4,r5,23e34 <alt_load+0xb4>
   23df4:	00000b06 	br	23e24 <alt_load+0xa4>
   23df8:	00c000b4 	movhi	r3,2
   23dfc:	18c00804 	addi	r3,r3,32
   23e00:	1907c83a 	sub	r3,r3,r4
   23e04:	0005883a 	mov	r2,zero
  {
    while( to != end )
   23e08:	10fff526 	beq	r2,r3,23de0 <__alt_data_end+0xfffe6920>
    {
      *to++ = *from++;
   23e0c:	114f883a 	add	r7,r2,r5
   23e10:	39c00017 	ldw	r7,0(r7)
   23e14:	110d883a 	add	r6,r2,r4
   23e18:	10800104 	addi	r2,r2,4
   23e1c:	31c00015 	stw	r7,0(r6)
   23e20:	003ff906 	br	23e08 <__alt_data_end+0xfffe6948>
  
  /*
   * Now ensure that the caches are in synch.
   */
  
  alt_dcache_flush_all();
   23e24:	002430c0 	call	2430c <alt_dcache_flush_all>
  alt_icache_flush_all();
}
   23e28:	dfc00017 	ldw	ra,0(sp)
   23e2c:	dec00104 	addi	sp,sp,4
  /*
   * Now ensure that the caches are in synch.
   */
  
  alt_dcache_flush_all();
  alt_icache_flush_all();
   23e30:	002432c1 	jmpi	2432c <alt_icache_flush_all>
   23e34:	00c000b4 	movhi	r3,2
   23e38:	18d43404 	addi	r3,r3,20688
   23e3c:	1907c83a 	sub	r3,r3,r4

static void ALT_INLINE alt_load_section (alt_u32* from, 
                                         alt_u32* to, 
                                         alt_u32* end)
{
  if (to != from)
   23e40:	0005883a 	mov	r2,zero
  {
    while( to != end )
   23e44:	18bff726 	beq	r3,r2,23e24 <__alt_data_end+0xfffe6964>
    {
      *to++ = *from++;
   23e48:	114f883a 	add	r7,r2,r5
   23e4c:	39c00017 	ldw	r7,0(r7)
   23e50:	110d883a 	add	r6,r2,r4
   23e54:	10800104 	addi	r2,r2,4
   23e58:	31c00015 	stw	r7,0(r6)
   23e5c:	003ff906 	br	23e44 <__alt_data_end+0xfffe6984>

00023e60 <alt_main>:
 * devices/filesystems/components in the system; and call the entry point for
 * the users application, i.e. main().
 */

void alt_main (void)
{
   23e60:	deffff04 	addi	sp,sp,-4
#endif

  /* ALT LOG - please see HAL/sys/alt_log_printf.h for details */
  ALT_LOG_PRINT_BOOT("[alt_main.c] Entering alt_main, calling alt_irq_init.\r\n");
  /* Initialize the interrupt controller. */
  alt_irq_init (NULL);
   23e64:	0009883a 	mov	r4,zero
 * devices/filesystems/components in the system; and call the entry point for
 * the users application, i.e. main().
 */

void alt_main (void)
{
   23e68:	dfc00015 	stw	ra,0(sp)
#endif

  /* ALT LOG - please see HAL/sys/alt_log_printf.h for details */
  ALT_LOG_PRINT_BOOT("[alt_main.c] Entering alt_main, calling alt_irq_init.\r\n");
  /* Initialize the interrupt controller. */
  alt_irq_init (NULL);
   23e6c:	00241e00 	call	241e0 <alt_irq_init>
  ALT_LOG_PRINT_BOOT("[alt_main.c] Done OS Init, calling alt_sem_create.\r\n");
  ALT_SEM_CREATE (&alt_fd_list_lock, 1);

  /* Initialize the device drivers/software components. */
  ALT_LOG_PRINT_BOOT("[alt_main.c] Calling alt_sys_init.\r\n");
  alt_sys_init();
   23e70:	00242000 	call	24200 <alt_sys_init>
   */

  ALT_LOG_PRINT_BOOT("[alt_main.c] Calling main.\r\n");

#ifdef ALT_NO_EXIT
  main (alt_argc, alt_argv, alt_envp);
   23e74:	d1a07817 	ldw	r6,-32288(gp)
   23e78:	d1607917 	ldw	r5,-32284(gp)
   23e7c:	d1207a17 	ldw	r4,-32280(gp)
  close(STDOUT_FILENO);
  exit (result);
