
cam_vision2.elf:     file format elf32-littlenios2
cam_vision2.elf
architecture: nios2:r1, flags 0x00000112:
EXEC_P, HAS_SYMS, D_PAGED
start address 0x00020020

Program Header:
    LOAD off    0x00001000 vaddr 0x00020000 paddr 0x00020000 align 2**12
         filesz 0x00000020 memsz 0x00000020 flags r-x
    LOAD off    0x00001020 vaddr 0x00020020 paddr 0x00020020 align 2**12
         filesz 0x000061e4 memsz 0x000061e4 flags r-x
    LOAD off    0x00007204 vaddr 0x00026204 paddr 0x00026388 align 2**12
         filesz 0x00000184 memsz 0x00000184 flags rw-
    LOAD off    0x0000750c vaddr 0x0002650c paddr 0x0002650c align 2**12
         filesz 0x00000000 memsz 0x00000150 flags rw-

Sections:
Idx Name          Size      VMA       LMA       File off  Algn
  0 .entry        00000020  00020000  00020000  00001000  2**5
                  CONTENTS, ALLOC, LOAD, READONLY, CODE
  1 .exceptions   00000000  00020020  00020020  00007388  2**0
                  CONTENTS
  2 .text         00005488  00020020  00020020  00001020  2**2
                  CONTENTS, ALLOC, LOAD, READONLY, CODE
  3 .rodata       00000d5c  000254a8  000254a8  000064a8  2**2
                  CONTENTS, ALLOC, LOAD, READONLY, DATA
  4 .rwdata       00000184  00026204  00026388  00007204  2**2
                  CONTENTS, ALLOC, LOAD, DATA, SMALL_DATA
  5 .bss          00000150  0002650c  0002650c  0000750c  2**2
                  ALLOC, SMALL_DATA
  6 .onchip_memory2_0 00000000  0002665c  0002665c  00007388  2**0
                  CONTENTS
  7 .comment      00000023  00000000  00000000  00007388  2**0
                  CONTENTS, READONLY
  8 .debug_aranges 000006a8  00000000  00000000  000073b0  2**3
                  CONTENTS, READONLY, DEBUGGING
  9 .debug_info   0000f011  00000000  00000000  00007a58  2**0
                  CONTENTS, READONLY, DEBUGGING
 10 .debug_abbrev 000041e7  00000000  00000000  00016a69  2**0
                  CONTENTS, READONLY, DEBUGGING
 11 .debug_line   00004fe4  00000000  00000000  0001ac50  2**0
                  CONTENTS, READONLY, DEBUGGING
 12 .debug_frame  00001264  00000000  00000000  0001fc34  2**2
                  CONTENTS, READONLY, DEBUGGING
 13 .debug_str    00001fa3  00000000  00000000  00020e98  2**0
                  CONTENTS, READONLY, DEBUGGING
 14 .debug_loc    00004c9f  00000000  00000000  00022e3b  2**0
                  CONTENTS, READONLY, DEBUGGING
 15 .debug_alt_sim_info 00000060  00000000  00000000  00027adc  2**2
                  CONTENTS, READONLY, DEBUGGING
 16 .debug_ranges 00000758  00000000  00000000  00027b40  2**3
                  CONTENTS, READONLY, DEBUGGING
 17 .thread_model 00000003  00000000  00000000  0002a712  2**0
                  CONTENTS, READONLY
 18 .cpu          0000000a  00000000  00000000  0002a715  2**0
                  CONTENTS, READONLY
 19 .qsys         00000001  00000000  00000000  0002a71f  2**0
                  CONTENTS, READONLY
 20 .simulation_enabled 00000001  00000000  00000000  0002a720  2**0
                  CONTENTS, READONLY
 21 .sysid_hash   00000004  00000000  00000000  0002a721  2**0
                  CONTENTS, READONLY
 22 .sysid_base   00000004  00000000  00000000  0002a725  2**0
                  CONTENTS, READONLY
 23 .sysid_time   00000004  00000000  00000000  0002a729  2**0
                  CONTENTS, READONLY
 24 .stderr_dev   00000006  00000000  00000000  0002a72d  2**0
                  CONTENTS, READONLY
 25 .stdin_dev    00000006  00000000  00000000  0002a733  2**0
                  CONTENTS, READONLY
 26 .stdout_dev   00000006  00000000  00000000  0002a739  2**0
                  CONTENTS, READONLY
 27 .sopc_system_name 00000004  00000000  00000000  0002a73f  2**0
                  CONTENTS, READONLY
 28 .quartus_project_dir 0000002d  00000000  00000000  0002a743  2**0
                  CONTENTS, READONLY
 29 .jdi          00004819  00000000  00000000  0002a770  2**0
                  CONTENTS, READONLY
 30 .sopcinfo     001979fa  00000000  00000000  0002ef89  2**0
                  CONTENTS, READONLY
SYMBOL TABLE:
00020000 l    d  .entry	00000000 .entry
00020020 l    d  .exceptions	00000000 .exceptions
00020020 l    d  .text	00000000 .text
000254a8 l    d  .rodata	00000000 .rodata
00026204 l    d  .rwdata	00000000 .rwdata
0002650c l    d  .bss	00000000 .bss
0002665c l    d  .onchip_memory2_0	00000000 .onchip_memory2_0
00000000 l    d  .comment	00000000 .comment
00000000 l    d  .debug_aranges	00000000 .debug_aranges
00000000 l    d  .debug_info	00000000 .debug_info
00000000 l    d  .debug_abbrev	00000000 .debug_abbrev
00000000 l    d  .debug_line	00000000 .debug_line
00000000 l    d  .debug_frame	00000000 .debug_frame
00000000 l    d  .debug_str	00000000 .debug_str
00000000 l    d  .debug_loc	00000000 .debug_loc
00000000 l    d  .debug_alt_sim_info	00000000 .debug_alt_sim_info
00000000 l    d  .debug_ranges	00000000 .debug_ranges
00000000 l    df *ABS*	00000000 ../cam_vision2_bsp//obj/HAL/src/crt0.o
00020068 l       .text	00000000 alt_after_alt_main
00000000 l    df *ABS*	00000000 I2C_core.c
00000000 l    df *ABS*	00000000 auto.c
00000000 l    df *ABS*	00000000 auto_focus.c
00000000 l    df *ABS*	00000000 filters_buffers.c
00000000 l    df *ABS*	00000000 input.c
00026348 l     O .rwdata	00000002 current_focus.3700
00000000 l    df *ABS*	00000000 main.c
00000000 l    df *ABS*	00000000 mipi_bridge_config.c
000257fe l     O .rodata	00000034 MipiBridgeReg
00000000 l    df *ABS*	00000000 mipi_camera_config.c
000258b8 l     O .rodata	00000774 MipiCameraReg
00000000 l    df *ABS*	00000000 mipi_setup.c
00000000 l    df *ABS*	00000000 pipeline.c
00026554 l     O .bss	00000004 pipe0_idx.3712
0002634c l     O .rwdata	00000008 pipe0.3711
00026550 l     O .bss	00000004 pipe1_idx.3714
000261a8 l     O .rodata	0000000c pipe1.3713
0002654c l     O .bss	00000004 pipe2_idx.3716
0002619c l     O .rodata	0000000c pipe2.3715
00000000 l    df *ABS*	00000000 support.c
0002657c l     O .bss	00000040 observation_buf.3693
00026558 l     O .bss	00000004 count.3707
00000000 l    df *ABS*	00000000 lib2-divmod.c
00000000 l    df *ABS*	00000000 malloc.c
00000000 l    df *ABS*	00000000 nano-mallocr.c
00000000 l    df *ABS*	00000000 nano-mallocr.c
00000000 l    df *ABS*	00000000 printf.c
00000000 l    df *ABS*	00000000 putchar.c
00000000 l    df *ABS*	00000000 puts.c
00000000 l    df *ABS*	00000000 sbrkr.c
00000000 l    df *ABS*	00000000 sprintf.c
00000000 l    df *ABS*	00000000 strlen.c
00000000 l    df *ABS*	00000000 vfprintf.c
00023f24 l     F .text	0000006c print_repeat
00000000 l    df *ABS*	00000000 vfprintf.c
000244d0 l     F .text	0000006c print_repeat
00000000 l    df *ABS*	00000000 fvwrite_small_dev.c
00000000 l    df *ABS*	00000000 fvwrite_small_str.c
00000000 l    df *ABS*	00000000 impure.c
00026204 l     O .rwdata	000000e0 impure_data
00000000 l    df *ABS*	00000000 int_errno.c
00000000 l    df *ABS*	00000000 memmove.c
00000000 l    df *ABS*	00000000 putc.c
00000000 l    df *ABS*	00000000 writer.c
00000000 l    df *ABS*	00000000 alt_fcntl.c
00000000 l    df *ABS*	00000000 alt_getchar.c
00000000 l    df *ABS*	00000000 alt_load.c
00000000 l    df *ABS*	00000000 alt_main.c
00000000 l    df *ABS*	00000000 alt_printf.c
00000000 l    df *ABS*	00000000 alt_putchar.c
00000000 l    df *ABS*	00000000 alt_sbrk.c
0002635c l     O .rwdata	00000004 heap_end
00000000 l    df *ABS*	00000000 alt_tick.c
00000000 l    df *ABS*	00000000 alt_usleep.c
00000000 l    df *ABS*	00000000 alt_write.c
00000000 l    df *ABS*	00000000 alt_sys_init.c
00000000 l    df *ABS*	00000000 altera_avalon_uart_read.c
00000000 l    df *ABS*	00000000 altera_avalon_uart_write.c
00000000 l    df *ABS*	00000000 alt_busy_sleep.c
00000000 l    df *ABS*	00000000 alt_dcache_flush_all.c
00000000 l    df *ABS*	00000000 alt_dev.c
00025454 l     F .text	00000008 alt_dev_null_write
00000000 l    df *ABS*	00000000 alt_errno.c
00000000 l    df *ABS*	00000000 alt_icache_flush_all.c
00000000 l    df *ABS*	00000000 altera_nios2_gen2_irq.c
00000000 l    df *ABS*	00000000 alt_icache_flush.c
00023d2c g     F .text	0000001c putchar
00024f1c g     F .text	0000002c alt_main
00023d48 g     F .text	00000080 _puts_r
00020dcc g     F .text	00000060 Focus_Released
000201ec g     F .text	00000048 ACK_check
00026388 g       *ABS*	00000000 __flash_rwdata_start
00020198 g     F .text	00000054 ACK_single_check
00020e2c g     F .text	00000158 Focus_Window
00021d30 g     F .text	00000038 OV8865_write_AF
0002650c g     O .bss	00000004 print
0002665c g       *ABS*	00000000 __alt_heap_start
00023cd8 g     F .text	0000004c printf
00021fa8 g     F .text	000000a8 OV8865SetRedGain
00023878 g     F .text	00000008 wait_eop
0002332c g     F .text	00000014 to_hex_code
00024bdc g     F .text	00000060 memmove
00020234 g     F .text	00000128 OC_I2C_Write
00020944 g     F .text	0000012c auto_gain
00020ce8 g     F .text	000000e4 Focus_Init
00022050 g     F .text	00000090 OV8865SetGreenGain
0002636c g     O .rwdata	00000004 jtag_uart
00025468 g     F .text	00000008 altera_nios2_gen2_irq_init
00026510 g     O .bss	00000004 frames_elapsed
00021058 g     F .text	0000003c fir_load_vertical
00024b34 g     F .text	000000a8 __sfvwrite_small_str
00020000 g     F .entry	0000001c __reset
00020020 g       *ABS*	00000000 __flash_exceptions_start
0002633e g     O .rwdata	00000001 focus_scal
00026564 g     O .bss	00000004 errno
0002656c g     O .bss	00000004 alt_argv
0002e33c g       *ABS*	00000000 _gp
00025238 g     F .text	00000004 usleep
0002124c g     F .text	00000060 green_average
000262e4 g     O .rwdata	00000030 alt_fd_list
000265bc g     O .bss	00000050 histogram_processed
00023d24 g     F .text	00000008 _putchar_r
000200a0 g     F .text	00000098 oc_i2c_init_ex
0002119c g     F .text	000000b0 print_wb_buffer
00023dc8 g     F .text	00000014 puts
00023a38 g     F .text	00000014 malloc
00023c9c g     F .text	0000003c _printf_r
00020000 g       *ABS*	00000000 __alt_mem_onchip_memory2_0
0002397c g     F .text	00000064 .hidden __udivsi3
00025470 g     F .text	00000038 alt_icache_flush
00021d94 g     F .text	00000078 OV8865_FOCUS_Move_to
00021094 g     F .text	00000108 print_image
00023ddc g     F .text	00000050 _sbrk_r
00026340 g     O .rwdata	00000002 focus_height
00026370 g     O .rwdata	00000004 alt_max_fd
00026514 g     O .bss	00000004 rgb
00021cf8 g     F .text	00000038 OV8865_write_cmos_sensor_8
00026518 g     O .bss	00000004 observations
00026354 g     O .rwdata	00000004 _global_impure_ptr
0002665c g       *ABS*	00000000 __bss_end
00024df8 g     F .text	00000044 alt_getchar
00025180 g     F .text	000000b8 alt_tick
00023880 g     F .text	00000004 wait_sop
00022ca4 g     F .text	00000688 three_pipelines
00026344 g     O .rwdata	00000002 video_h
00023498 g     F .text	0000013c initialize_observations_marco
00022574 g     F .text	000000ac mipi_clear_error
00020624 g     F .text	00000160 OC_I2CL_Write
0002514c g     F .text	00000034 alt_alarm_stop
0002035c g     F .text	00000034 ACK_judge_for_read
00021eb0 g     F .text	000000a0 OV8865SetGain
00026314 g     O .rwdata	00000028 alt_dev_null
0002006c g     F .text	00000018 Write32_Data
0002543c g     F .text	00000018 alt_dcache_flush_all
0002633d g     O .rwdata	00000001 focus_scal_f
00026388 g       *ABS*	00000000 __ram_rwdata_end
00021018 g     F .text	00000040 fir_load_inv_sobel
00026374 g     O .rwdata	00000008 alt_dev_list
0002523c g     F .text	00000060 write
00024c90 g     F .text	00000058 _putc_r
00026204 g       *ABS*	00000000 __ram_rodata_end
000239e0 g     F .text	00000058 .hidden __umodsi3
000226bc g     F .text	0000013c mipi_show_error_info_more
0002665c g       *ABS*	00000000 end
0002651c g     O .bss	00000004 slow
00022170 g     F .text	00000060 OV8865ReadAvg
00025340 g     F .text	00000084 altera_avalon_uart_write
0002ea60 g       *ABS*	00000000 __alt_stack_pointer
00026520 g     O .bss	00000004 hsv
0002453c g     F .text	00000524 ___vfprintf_internal_r
00023e2c g     F .text	00000064 _sprintf_r
00023a60 g     F .text	000000e4 _free_r
00024f48 g     F .text	00000170 alt_printf
00020020 g     F .text	0000004c _start
00026578 g     O .bss	00000004 _alt_tick_rate
00021f50 g     F .text	00000058 enableMWB
00020fd8 g     F .text	00000040 fir_load_sobel
00026574 g     O .bss	00000004 _alt_nticks
000252bc g     F .text	00000004 alt_sys_init
00021cc0 g     F .text	00000038 OV8865_read_cmos_sensor_8
00021b5c g     F .text	00000038 MipiBridgeRegWrite
00026204 g       *ABS*	00000000 __ram_rwdata_start
000254a8 g       *ABS*	00000000 __ram_rodata_start
00023868 g     F .text	00000010 wait_frame
000253c4 g     F .text	00000078 alt_busy_sleep
00023340 g     F .text	00000158 initialize_observations
00026524 g     O .bss	00000004 stripe_dist
00026528 g     O .bss	00000004 observation_idx
000212ac g     F .text	00000060 red_average
0002665c g       *ABS*	00000000 __alt_stack_base
0002652c g     O .bss	00000004 stripe_pos_min
00026530 g     O .bss	00000004 stripe_pos_max
00020138 g     F .text	00000014 oc_i2c_init
000237e0 g     F .text	0000003c print_as_rgb
00025100 g     F .text	0000004c sbrk
00023f90 g     F .text	00000524 ___svfprintf_internal_r
000223e8 g     F .text	0000018c MipiCameraInit
00021b48 g     F .text	00000014 nSWAP16
00022880 g     F .text	00000424 one_pipeline
00024a7c g     F .text	000000b8 __sfvwrite_small_dev
0002650c g       *ABS*	00000000 __bss_start
00021878 g     F .text	000002d0 main
00026568 g     O .bss	00000004 alt_envp
00026368 g     O .rwdata	00000004 uart_0
0002381c g     F .text	0000004c frame_isr
0002ea60 g       *ABS*	00000000 __alt_heap_limit
00023b44 g     F .text	00000158 _malloc_r
00026534 g     O .bss	00000004 number_observations
00026384 g     O .rwdata	00000004 alt_errno
00024c3c g     F .text	00000054 putc
00023884 g     F .text	00000084 .hidden __divsi3
0002014c g     F .text	0000004c oc_i2c_uninit
00021368 g     F .text	0000045c process_input
00022258 g     F .text	00000190 MIPI_BIN_LEVEL
000254a8 g       *ABS*	00000000 __flash_rodata_start
00020a70 g     F .text	00000278 auto_wb
00026538 g     O .bss	00000004 delay
00020fb0 g     F .text	00000028 fir_load_avg
0002529c g     F .text	00000020 alt_irq_init
00021bd8 g     F .text	000000e8 MipiBridgeInit
00023e90 g     F .text	00000078 sprintf
000220e0 g     F .text	00000090 OV8865SetBlueGain
00024ce8 g     F .text	00000058 _write_r
00026358 g     O .rwdata	00000004 _impure_ptr
00026570 g     O .bss	00000004 alt_argc
00021b94 g     F .text	00000044 MipiBridgeRegRead
0002653c g     O .bss	00000004 one
00026346 g     O .rwdata	00000002 video_w
0002130c g     F .text	0000005c blue_average
000236b8 g     F .text	00000128 print_observations
0002637c g     O .rwdata	00000008 alt_fs_list
00020084 g     F .text	0000001c Read32_Data
000244b4 g     F .text	0000001c __vfprintf_internal_unused
00020390 g     F .text	00000190 OC_I2C_Read
00020020 g       *ABS*	00000000 __ram_exceptions_start
00020f84 g     F .text	0000002c fir_load_unit
00026388 g       *ABS*	00000000 _edata
0002665c g       *ABS*	00000000 _end
000221d0 g     F .text	00000088 OV8865ReadExposure
00020020 g       *ABS*	00000000 __ram_exceptions_end
00026540 g     O .bss	00000004 halt
00026544 g     O .bss	00000001 code
00020520 g     F .text	00000104 OC_I2C_Read_Continue
0002633c g     O .rwdata	00000001 focus_th
00023908 g     F .text	00000074 .hidden __modsi3
0002ea60 g       *ABS*	00000000 __alt_data_end
00022620 g     F .text	0000009c mipi_show_error_info
000235d4 g     F .text	000000e4 merge_observations
000217c4 g     F .text	000000b4 get_building_hist
00026548 g     O .bss	00000004 stripe_count
00020784 g     F .text	000001c0 OC_I2CL_Read
0002001c g       .entry	00000000 _exit
00023f08 g     F .text	0000001c strlen
000250b8 g     F .text	00000048 alt_putchar
0002660c g     O .bss	00000050 histogram
0002655c g     O .bss	00000004 __malloc_sbrk_start
0002545c g     F .text	0000000c alt_icache_flush_all
00021e0c g     F .text	000000a4 OV8865SetExposure
00026342 g     O .rwdata	00000002 focus_width
00026560 g     O .bss	00000004 __malloc_free_list
00024a60 g     F .text	0000001c __vfprintf_internal
000252c0 g     F .text	00000080 altera_avalon_uart_read
000227f8 g     F .text	00000088 MIPI_Init
00024d40 g     F .text	000000b8 fcntl
00026360 g     O .rwdata	00000008 alt_alarm_list
00021d68 g     F .text	0000002c OV8865_read_AF
00024e3c g     F .text	000000e0 alt_load
00023a4c g     F .text	00000014 free



Disassembly of section .entry:

00020000 <__reset>:
#if NIOS2_ICACHE_SIZE > 0 && defined(ALT_ALLOW_CODE_AT_RESET) && (!defined(ALT_SIM_OPTIMIZE) || defined(NIOS2_ECC_PRESENT))
    /* Assume the instruction cache size is always a power of two. */
#if NIOS2_ICACHE_SIZE > 0x8000
    movhi r2, %hi(NIOS2_ICACHE_SIZE)
#else
    movui r2, NIOS2_ICACHE_SIZE
   20000:	00840014 	movui	r2,4096
#endif

0:
    initi r2
   20004:	1001483a 	initi	r2
    addi r2, r2, -NIOS2_ICACHE_LINE_SIZE
   20008:	10bff804 	addi	r2,r2,-32
    bgt r2, zero, 0b
   2000c:	00bffd16 	blt	zero,r2,20004 <__alt_data_end+0xffff15a4>
 * Jump to the _start entry point in the .text section if reset code
 * is allowed or if optimizing for RTL simulation.
 */
#if defined(ALT_ALLOW_CODE_AT_RESET) || defined(ALT_SIM_OPTIMIZE)
    /* Jump to the _start entry point in the .text section. */
    movhi r1, %hi(_start)
   20010:	004000b4 	movhi	at,2
    ori r1, r1, %lo(_start)
   20014:	08400814 	ori	at,at,32
    jmp r1
   20018:	0800683a 	jmp	at

0002001c <_exit>:
   2001c:	00000000 	call	0 <__alt_mem_onchip_memory2_0-0x20000>

Disassembly of section .text:

00020020 <_start>:

    /* Assume the data cache size is always a power of two. */
#if NIOS2_DCACHE_SIZE > 0x8000
    movhi r2, %hi(NIOS2_DCACHE_SIZE)
#else
    movui r2, NIOS2_DCACHE_SIZE
   20020:	00840014 	movui	r2,4096
#endif

0:
    initd 0(r2)
   20024:	10000033 	initd	0(r2)
#ifdef NIOS2_ECC_PRESENT
    addi r2, r2, -4
#else
    addi r2, r2, -NIOS2_DCACHE_LINE_SIZE
   20028:	10bff804 	addi	r2,r2,-32
#endif
    bgt r2, zero, 0b
   2002c:	00bffd16 	blt	zero,r2,20024 <__alt_data_end+0xffff15c4>

    /*
     * Now that the caches are initialized, set up the stack pointer and global pointer.
     * The values provided by the linker are assumed to be correctly aligned.
     */
    movhi sp, %hi(__alt_stack_pointer)
   20030:	06c000b4 	movhi	sp,2
    ori sp, sp, %lo(__alt_stack_pointer)
   20034:	defa9814 	ori	sp,sp,60000
    movhi gp, %hi(_gp)
   20038:	068000b4 	movhi	gp,2
    ori gp, gp, %lo(_gp)
   2003c:	d6b8cf14 	ori	gp,gp,58172
 */
#ifndef ALT_SIM_OPTIMIZE
    /* Log that the BSS is about to be cleared. */
    ALT_LOG_PUTS(alt_log_msg_bss)

    movhi r2, %hi(__bss_start)
   20040:	008000b4 	movhi	r2,2
    ori r2, r2, %lo(__bss_start)
   20044:	10994314 	ori	r2,r2,25868

    movhi r3, %hi(__bss_end)
   20048:	00c000b4 	movhi	r3,2
    ori r3, r3, %lo(__bss_end)
   2004c:	18d99714 	ori	r3,r3,26204

    beq r2, r3, 1f
   20050:	10c00326 	beq	r2,r3,20060 <_start+0x40>

0:
    stw zero, (r2)
   20054:	10000015 	stw	zero,0(r2)
    addi r2, r2, 4
   20058:	10800104 	addi	r2,r2,4
    bltu r2, r3, 0b
   2005c:	10fffd36 	bltu	r2,r3,20054 <__alt_data_end+0xffff15f4>
     * section aren't defined until alt_load() has been called).
     */
    mov   et, zero
#endif

    call alt_load
   20060:	0024e3c0 	call	24e3c <alt_load>

    /* Log that alt_main is about to be called. */
    ALT_LOG_PUTS(alt_log_msg_alt_main)

    /* Call the C entry point. It should never return. */
    call alt_main
   20064:	0024f1c0 	call	24f1c <alt_main>

00020068 <alt_after_alt_main>:

    /* Wait in infinite loop in case alt_main does return. */
alt_after_alt_main:
    br alt_after_alt_main
   20068:	003fff06 	br	20068 <__alt_data_end+0xffff1608>

0002006c <Write32_Data>:
#define TRUE 1
#define FALSE 0

bool Write32_Data(alt_32 base_address, alt_32 offset_address, alt_32 Data){
	bool bPass;
    IOWR(base_address, offset_address,Data);
   2006c:	294b883a 	add	r5,r5,r5
   20070:	294b883a 	add	r5,r5,r5
   20074:	2909883a 	add	r4,r5,r4
   20078:	21800035 	stwio	r6,0(r4)
    bPass=TRUE;
    return bPass;
}
   2007c:	00800044 	movi	r2,1
   20080:	f800283a 	ret

00020084 <Read32_Data>:



bool  Read32_Data(alt_32 base_address, alt_32 offset_address, alt_32 *pData32){
	bool bPass;
	*pData32 =IORD(base_address ,offset_address  );
   20084:	294b883a 	add	r5,r5,r5
   20088:	294b883a 	add	r5,r5,r5
   2008c:	2909883a 	add	r4,r5,r4
   20090:	20800037 	ldwio	r2,0(r4)
   20094:	30800015 	stw	r2,0(r6)
	bPass=TRUE;
    return bPass;
}
   20098:	00800044 	movi	r2,1
   2009c:	f800283a 	ret

000200a0 <oc_i2c_init_ex>:

	return bSuccess;
}

bool  oc_i2c_init_ex(alt_32 i2c_base, alt_32 ref_clk, alt_32 i2c_clk)
{
   200a0:	defffe04 	addi	sp,sp,-8
   200a4:	dc000015 	stw	r16,0(sp)
   200a8:	2021883a 	mov	r16,r4
   200ac:	2809883a 	mov	r4,r5
	const alt_u8 ControlValue = 0x80;

    // I2c sysclock =50M hz
	// i2c scl max 400k
	//scl =sysclock/(prescale*5)
	prescale = (ref_clk/(5*i2c_clk))-1;
   200b0:	31400164 	muli	r5,r6,5

	return bSuccess;
}

bool  oc_i2c_init_ex(alt_32 i2c_base, alt_32 ref_clk, alt_32 i2c_clk)
{
   200b4:	dfc00115 	stw	ra,4(sp)
	const alt_u8 ControlValue = 0x80;

    // I2c sysclock =50M hz
	// i2c scl max 400k
	//scl =sysclock/(prescale*5)
	prescale = (ref_clk/(5*i2c_clk))-1;
   200b8:	00238840 	call	23884 <__divsi3>
   200bc:	10bfffc4 	addi	r2,r2,-1
   200c0:	11c03fcc 	andi	r7,r2,255
	prescale_low = prescale & 0xFF;
	prescale_high = (prescale >> 8) & 0xFF;

   IOWR(i2c_base, 0, prescale_low);//write low byte of  prescale (reg 0)
   200c4:	81c00035 	stwio	r7,0(r16)
   200c8:	1005d23a 	srai	r2,r2,8
   IOWR(i2c_base, 1, prescale_high);//write high byte of prescale (reg 1)
   200cc:	81800104 	addi	r6,r16,4
   200d0:	10803fcc 	andi	r2,r2,255
   200d4:	30800035 	stwio	r2,0(r6)

   //enable the I2C core, but disable the IRQ
   IOWR( i2c_base, 2, ControlValue);
   200d8:	81400204 	addi	r5,r16,8
   200dc:	01002004 	movi	r4,128
   200e0:	29000035 	stwio	r4,0(r5)


    // check prescale low byte
    if (bSuccess){
    	read_data =IORD(i2c_base, 0);
   200e4:	80c00037 	ldwio	r3,0(r16)
        if( (read_data & 0x00ff) != prescale_low ){
   200e8:	18c03fcc 	andi	r3,r3,255
   200ec:	38c0031e 	bne	r7,r3,200fc <oc_i2c_init_ex+0x5c>
        }
    }

    // check prescale high byte
    if (bSuccess){
    	read_data =IORD(i2c_base, 1);
   200f0:	30c00037 	ldwio	r3,0(r6)
        if( (read_data & 0x00ff) != prescale_high ){
   200f4:	18c03fcc 	andi	r3,r3,255
   200f8:	10c00726 	beq	r2,r3,20118 <oc_i2c_init_ex+0x78>

   if (bSuccess){
//       printf("\nI2C core is enabled! \r\n");
   }
   else
	   if (print){
   200fc:	d0a07417 	ldw	r2,-32304(gp)
   20100:	10000926 	beq	r2,zero,20128 <oc_i2c_init_ex+0x88>
		   printf("\nI2C core is not enabled successfully! \r\n");
   20104:	010000b4 	movhi	r4,2
   20108:	21152a04 	addi	r4,r4,21672
   2010c:	0023dc80 	call	23dc8 <puts>
   20110:	0005883a 	mov	r2,zero
   20114:	00000406 	br	20128 <oc_i2c_init_ex+0x88>
        }
    }

    // check control
    if (bSuccess){
    	read_data =IORD(i2c_base, 2);
   20118:	28800037 	ldwio	r2,0(r5)
        if( (read_data & 0x00ff) != ControlValue ){
   2011c:	10803fcc 	andi	r2,r2,255
   20120:	113ff61e 	bne	r2,r4,200fc <__alt_data_end+0xffff169c>
   20124:	00800044 	movi	r2,1
		   printf("\nI2C core is not enabled successfully! \r\n");
	   }

   return bSuccess;

}
   20128:	dfc00117 	ldw	ra,4(sp)
   2012c:	dc000017 	ldw	r16,0(sp)
   20130:	dec00204 	addi	sp,sp,8
   20134:	f800283a 	ret

00020138 <oc_i2c_init>:
bool oc_i2c_init(alt_32 i2c_base){
	bool bSuccess;
	const alt_32 ref_clk = 50*1000*1000; // 50MHz
	const alt_32 i2c_clk = 400*1000; // 400KHz

	bSuccess = oc_i2c_init_ex(i2c_base, ref_clk, i2c_clk);
   20138:	018001b4 	movhi	r6,6
   2013c:	0140bef4 	movhi	r5,763
   20140:	3186a004 	addi	r6,r6,6784
   20144:	297c2004 	addi	r5,r5,-3968
   20148:	00200a01 	jmpi	200a0 <oc_i2c_init_ex>

0002014c <oc_i2c_uninit>:
{
	bool bSuccess=TRUE;
	alt_32 read_data;
	const alt_u8 ControlValue = 0x00;

    IOWR( i2c_base, 2, ControlValue);
   2014c:	21000204 	addi	r4,r4,8
   20150:	20000035 	stwio	zero,0(r4)
   	read_data =IORD(i2c_base, 2);
   20154:	20800037 	ldwio	r2,0(r4)
	if( (read_data & 0x00ff) != ControlValue ){
   20158:	10803fcc 	andi	r2,r2,255
   2015c:	1000021e 	bne	r2,zero,20168 <oc_i2c_uninit+0x1c>

}

bool oc_i2c_uninit(alt_32 i2c_base)
{
	bool bSuccess=TRUE;
   20160:	00800044 	movi	r2,1
		   printf("\I2C core is failed to disable! \r\n");
	   }

   return bSuccess;

}
   20164:	f800283a 	ret

   if (bSuccess){
//       printf("\I2C core  is disabled! \r\n");
   }
   else
	   if (print){
   20168:	d0a07417 	ldw	r2,-32304(gp)
   2016c:	10000926 	beq	r2,zero,20194 <oc_i2c_uninit+0x48>
		   printf("\I2C core is failed to disable! \r\n");
   20170:	010000b4 	movhi	r4,2
   return bSuccess;

}

bool oc_i2c_uninit(alt_32 i2c_base)
{
   20174:	deffff04 	addi	sp,sp,-4
   if (bSuccess){
//       printf("\I2C core  is disabled! \r\n");
   }
   else
	   if (print){
		   printf("\I2C core is failed to disable! \r\n");
   20178:	21153504 	addi	r4,r4,21716
   return bSuccess;

}

bool oc_i2c_uninit(alt_32 i2c_base)
{
   2017c:	dfc00015 	stw	ra,0(sp)
   if (bSuccess){
//       printf("\I2C core  is disabled! \r\n");
   }
   else
	   if (print){
		   printf("\I2C core is failed to disable! \r\n");
   20180:	0023dc80 	call	23dc8 <puts>
	const alt_u8 ControlValue = 0x00;

    IOWR( i2c_base, 2, ControlValue);
   	read_data =IORD(i2c_base, 2);
	if( (read_data & 0x00ff) != ControlValue ){
            bSuccess = FALSE;
   20184:	0005883a 	mov	r2,zero
		   printf("\I2C core is failed to disable! \r\n");
	   }

   return bSuccess;

}
   20188:	dfc00017 	ldw	ra,0(sp)
   2018c:	dec00104 	addi	sp,sp,4
   20190:	f800283a 	ret
   20194:	f800283a 	ret

00020198 <ACK_single_check>:




bool  ACK_single_check(alt_32 i2c_base)
{
   20198:	defffe04 	addi	sp,sp,-8
   2019c:	dc000015 	stw	r16,0(sp)
   201a0:	2021883a 	mov	r16,r4
	bool bSuccess=TRUE;
	alt_32 read_data;

    usleep(ACK_SLEEP_TIME);
   201a4:	01003e84 	movi	r4,250




bool  ACK_single_check(alt_32 i2c_base)
{
   201a8:	dfc00115 	stw	ra,4(sp)
	bool bSuccess=TRUE;
	alt_32 read_data;

    usleep(ACK_SLEEP_TIME);
    read_data =IORD(i2c_base, 4);
   201ac:	84000404 	addi	r16,r16,16
bool  ACK_single_check(alt_32 i2c_base)
{
	bool bSuccess=TRUE;
	alt_32 read_data;

    usleep(ACK_SLEEP_TIME);
   201b0:	00252380 	call	25238 <usleep>
    read_data =IORD(i2c_base, 4);
   201b4:	80800037 	ldwio	r2,0(r16)
    if(read_data & 0x02)
   201b8:	1080008c 	andi	r2,r2,2
   201bc:	10000226 	beq	r2,zero,201c8 <ACK_single_check+0x30>
   201c0:	0005883a 	mov	r2,zero
   201c4:	00000506 	br	201dc <ACK_single_check+0x44>
            bSuccess = FALSE;
     if (bSuccess){
            usleep(ACK_SLEEP_TIME);
   201c8:	01003e84 	movi	r4,250
   201cc:	00252380 	call	25238 <usleep>
            read_data =IORD(i2c_base, 4);
   201d0:	80800037 	ldwio	r2,0(r16)
   201d4:	1080200c 	andi	r2,r2,128
   201d8:	1005003a 	cmpeq	r2,r2,zero
                if(read_data & 0x80)
                    bSuccess = FALSE;
     }
    return bSuccess;
}
   201dc:	dfc00117 	ldw	ra,4(sp)
   201e0:	dc000017 	ldw	r16,0(sp)
   201e4:	dec00204 	addi	sp,sp,8
   201e8:	f800283a 	ret

000201ec <ACK_check>:


bool  ACK_check(alt_32 i2c_base){
   201ec:	defffd04 	addi	sp,sp,-12
   201f0:	dc400115 	stw	r17,4(sp)
   201f4:	dc000015 	stw	r16,0(sp)
   201f8:	dfc00215 	stw	ra,8(sp)
   201fc:	2023883a 	mov	r17,r4
   20200:	040002c4 	movi	r16,11
   20204:	843fffc4 	addi	r16,r16,-1
    bool bSuccess = FALSE;
    int i=0;

    while(!bSuccess && i++ < 10){
   20208:	80000426 	beq	r16,zero,2021c <ACK_check+0x30>
        bSuccess = ACK_single_check(i2c_base);
   2020c:	8809883a 	mov	r4,r17
   20210:	00201980 	call	20198 <ACK_single_check>

bool  ACK_check(alt_32 i2c_base){
    bool bSuccess = FALSE;
    int i=0;

    while(!bSuccess && i++ < 10){
   20214:	103ffb26 	beq	r2,zero,20204 <__alt_data_end+0xffff17a4>
   20218:	00000106 	br	20220 <ACK_check+0x34>
   2021c:	0005883a 	mov	r2,zero
        bSuccess = ACK_single_check(i2c_base);
    }

    return bSuccess;
}
   20220:	dfc00217 	ldw	ra,8(sp)
   20224:	dc400117 	ldw	r17,4(sp)
   20228:	dc000017 	ldw	r16,0(sp)
   2022c:	dec00304 	addi	sp,sp,12
   20230:	f800283a 	ret

00020234 <OC_I2C_Write>:

bool  OC_I2C_Write(alt_32 i2c_base,alt_u8 device_address,alt_u8 sub_address, alt_u8 *pData, int nWriteLength)
{
   20234:	defff804 	addi	sp,sp,-32
   20238:	dd800615 	stw	r22,24(sp)
   2023c:	dd400515 	stw	r21,20(sp)
   20240:	dcc00315 	stw	r19,12(sp)
   20244:	dc400115 	stw	r17,4(sp)
   20248:	dfc00715 	stw	ra,28(sp)
   2024c:	dd000415 	stw	r20,16(sp)
   20250:	dc800215 	stw	r18,8(sp)
   20254:	dc000015 	stw	r16,0(sp)
   20258:	2027883a 	mov	r19,r4
   2025c:	3023883a 	mov	r17,r6
   20260:	382d883a 	mov	r22,r7
#define TRUE 1
#define FALSE 0

bool Write32_Data(alt_32 base_address, alt_32 offset_address, alt_32 Data){
	bool bPass;
    IOWR(base_address, offset_address,Data);
   20264:	25400304 	addi	r21,r4,12
   20268:	29403fcc 	andi	r5,r5,255
   2026c:	a9400035 	stwio	r5,0(r21)
   20270:	24800404 	addi	r18,r4,16
   20274:	00802404 	movi	r2,144
   20278:	90800035 	stwio	r2,0(r18)
	   }
       return FALSE;
   }

   //wait TIP bit go to 0 to end Tx
    if(!ACK_check( i2c_base)){
   2027c:	00201ec0 	call	201ec <ACK_check>
   20280:	1000081e 	bne	r2,zero,202a4 <OC_I2C_Write+0x70>
   20284:	1021883a 	mov	r16,r2
    	if (print){
   20288:	d0a07417 	ldw	r2,-32304(gp)
   2028c:	1000021e 	bne	r2,zero,20298 <OC_I2C_Write+0x64>
    		printf("OC_I2C_Write error[2]\r\n");
    	}
        return FALSE;
   20290:	0021883a 	mov	r16,zero
   20294:	00002606 	br	20330 <OC_I2C_Write+0xfc>
   }

   //wait TIP bit go to 0 to end Tx
    if(!ACK_check( i2c_base)){
    	if (print){
    		printf("OC_I2C_Write error[2]\r\n");
   20298:	010000b4 	movhi	r4,2
   2029c:	21153e04 	addi	r4,r4,21752
   202a0:	00001c06 	br	20314 <OC_I2C_Write+0xe0>
#define TRUE 1
#define FALSE 0

bool Write32_Data(alt_32 base_address, alt_32 offset_address, alt_32 Data){
	bool bPass;
    IOWR(base_address, offset_address,Data);
   202a4:	8c403fcc 	andi	r17,r17,255
   202a8:	ac400035 	stwio	r17,0(r21)
   202ac:	05000404 	movi	r20,16
   202b0:	95000035 	stwio	r20,0(r18)
    	}
        return FALSE;
    }

   //wait TIP bit go to 0 to end Tx
    if(!ACK_check( i2c_base)){
   202b4:	9809883a 	mov	r4,r19
   202b8:	00201ec0 	call	201ec <ACK_check>
   202bc:	1021883a 	mov	r16,r2
   202c0:	1000051e 	bne	r2,zero,202d8 <OC_I2C_Write+0xa4>
    	if (print){
   202c4:	d0a07417 	ldw	r2,-32304(gp)
   202c8:	103ff126 	beq	r2,zero,20290 <__alt_data_end+0xffff1830>
        printf("OC_I2C_Write error[5]\r\n");
   202cc:	010000b4 	movhi	r4,2
   202d0:	21154404 	addi	r4,r4,21776
   202d4:	00000f06 	br	20314 <OC_I2C_Write+0xe0>
        return FALSE;
    }
 //  printf("\n receive ACK-reg address! \n");

#if 1
        for( i=nWriteLength-1;i>=0;i--){
   202d8:	dc400817 	ldw	r17,32(sp)
   202dc:	8c7fffc4 	addi	r17,r17,-1
   202e0:	88000e16 	blt	r17,zero,2031c <OC_I2C_Write+0xe8>
        //set the txr reg data with the data
          if (!Write32_Data( i2c_base, 3,*(pData+i))){
   202e4:	b445883a 	add	r2,r22,r17
#define TRUE 1
#define FALSE 0

bool Write32_Data(alt_32 base_address, alt_32 offset_address, alt_32 Data){
	bool bPass;
    IOWR(base_address, offset_address,Data);
   202e8:	10800003 	ldbu	r2,0(r2)
   202ec:	a8800035 	stwio	r2,0(r21)
   202f0:	95000035 	stwio	r20,0(r18)
        	 }
              return FALSE;
         }

         //wait TIP bit go to 0 to end Tx
          if(!ACK_check( i2c_base)){
   202f4:	9809883a 	mov	r4,r19
   202f8:	00201ec0 	call	201ec <ACK_check>
   202fc:	1021883a 	mov	r16,r2
   20300:	103ff61e 	bne	r2,zero,202dc <__alt_data_end+0xffff187c>
        	  if (print){
   20304:	d0a07417 	ldw	r2,-32304(gp)
   20308:	103fe126 	beq	r2,zero,20290 <__alt_data_end+0xffff1830>
        		  printf("OC_I2C_Write error[8]\r\n");
   2030c:	010000b4 	movhi	r4,2
   20310:	21154a04 	addi	r4,r4,21800
   20314:	0023dc80 	call	23dc8 <puts>
   20318:	00000506 	br	20330 <OC_I2C_Write+0xfc>
#define TRUE 1
#define FALSE 0

bool Write32_Data(alt_32 base_address, alt_32 offset_address, alt_32 Data){
	bool bPass;
    IOWR(base_address, offset_address,Data);
   2031c:	00801004 	movi	r2,64
   20320:	90800035 	stwio	r2,0(r18)
    	 }
         return FALSE;
     }
         //Sleep(10);
     //OS_msleep(1);
     usleep(SLEEP_TIME);
   20324:	01003e84 	movi	r4,250
   20328:	00252380 	call	25238 <usleep>

  // printf("\n receive ACK-data! \n");

     return TRUE;
   2032c:	04000044 	movi	r16,1

}
   20330:	8005883a 	mov	r2,r16
   20334:	dfc00717 	ldw	ra,28(sp)
   20338:	dd800617 	ldw	r22,24(sp)
   2033c:	dd400517 	ldw	r21,20(sp)
   20340:	dd000417 	ldw	r20,16(sp)
   20344:	dcc00317 	ldw	r19,12(sp)
   20348:	dc800217 	ldw	r18,8(sp)
   2034c:	dc400117 	ldw	r17,4(sp)
   20350:	dc000017 	ldw	r16,0(sp)
   20354:	dec00804 	addi	sp,sp,32
   20358:	f800283a 	ret

0002035c <ACK_judge_for_read>:


bool ACK_judge_for_read(alt_32 i2c_base)
{
   2035c:	defffe04 	addi	sp,sp,-8
   20360:	dc000015 	stw	r16,0(sp)
   20364:	2021883a 	mov	r16,r4
	bool bSuccess;
    alt_32 this_data;

   // OS_msleep( SLEEP_TIME );
     usleep(ACK_SLEEP_TIME);
   20368:	01003e84 	movi	r4,250

}


bool ACK_judge_for_read(alt_32 i2c_base)
{
   2036c:	dfc00115 	stw	ra,4(sp)
	bool bSuccess;
    alt_32 this_data;

   // OS_msleep( SLEEP_TIME );
     usleep(ACK_SLEEP_TIME);
   20370:	00252380 	call	25238 <usleep>



bool  Read32_Data(alt_32 base_address, alt_32 offset_address, alt_32 *pData32){
	bool bPass;
	*pData32 =IORD(base_address ,offset_address  );
   20374:	80800437 	ldwio	r2,16(r16)
        if(this_data & 0x02)
            bSuccess = FALSE;
    }
   //wait the rx ACK signal 0-valid

    return bSuccess;
   20378:	1080008c 	andi	r2,r2,2

}
   2037c:	1005003a 	cmpeq	r2,r2,zero
   20380:	dfc00117 	ldw	ra,4(sp)
   20384:	dc000017 	ldw	r16,0(sp)
   20388:	dec00204 	addi	sp,sp,8
   2038c:	f800283a 	ret

00020390 <OC_I2C_Read>:

bool  OC_I2C_Read(alt_32 i2c_base,alt_u8 device_address,alt_u8 sub_address, alt_u8 *pData8, int nReadLength){
   20390:	defff704 	addi	sp,sp,-36
   20394:	dd400515 	stw	r21,20(sp)
   20398:	dd400917 	ldw	r21,36(sp)
   2039c:	ddc00715 	stw	r23,28(sp)
   203a0:	dd800615 	stw	r22,24(sp)
   203a4:	dd000415 	stw	r20,16(sp)
   203a8:	dc800215 	stw	r18,8(sp)
   203ac:	dc400115 	stw	r17,4(sp)
   203b0:	dfc00815 	stw	ra,32(sp)
   203b4:	dcc00315 	stw	r19,12(sp)
   203b8:	dc000015 	stw	r16,0(sp)
   203bc:	2023883a 	mov	r17,r4
   203c0:	2825883a 	mov	r18,r5
   203c4:	302f883a 	mov	r23,r6
   203c8:	382d883a 	mov	r22,r7
    //BYTE data = 0x0;
    alt_32 Data32;
    int i;

   //set the tx reg audio chip dev address with write bit
   IOWR( i2c_base, 3,device_address);
   203cc:	25000304 	addi	r20,r4,12
   203d0:	28803fcc 	andi	r2,r5,255
   203d4:	a0800035 	stwio	r2,0(r20)
   //set STA and WR bits(bit7 and bit4)
   IOWR( i2c_base, 4,0x90);
   203d8:	24c00404 	addi	r19,r4,16
   203dc:	00802404 	movi	r2,144
   203e0:	98800035 	stwio	r2,0(r19)
   //wait TIP bit go to 0 to end Tx
   if (!ACK_check( i2c_base && print)){
   203e4:	20000326 	beq	r4,zero,203f4 <OC_I2C_Read+0x64>
   203e8:	d1207417 	ldw	r4,-32304(gp)
   203ec:	2008c03a 	cmpne	r4,r4,zero
   203f0:	00000106 	br	203f8 <OC_I2C_Read+0x68>
   203f4:	0009883a 	mov	r4,zero
   203f8:	00201ec0 	call	201ec <ACK_check>
   203fc:	1021883a 	mov	r16,r2
   20400:	1000031e 	bne	r2,zero,20410 <OC_I2C_Read+0x80>
       printf("OC_I2C_Read error[2]\r\n");
   20404:	010000b4 	movhi	r4,2
   20408:	21155004 	addi	r4,r4,21824
   2040c:	00000c06 	br	20440 <OC_I2C_Read+0xb0>
       return FALSE;
   }
   IOWR(i2c_base, 3,sub_address);
   20410:	bdc03fcc 	andi	r23,r23,255
   20414:	a5c00035 	stwio	r23,0(r20)

   //set WR bits(bit4)
   IOWR( i2c_base, 4,0x10);
   20418:	00800404 	movi	r2,16
   2041c:	98800035 	stwio	r2,0(r19)
   //wait TIP bit go to 0 to end Tx
    if (!ACK_check( i2c_base) && print){
   20420:	8809883a 	mov	r4,r17
   20424:	00201ec0 	call	201ec <ACK_check>
   20428:	1021883a 	mov	r16,r2
   2042c:	1000061e 	bne	r2,zero,20448 <OC_I2C_Read+0xb8>
   20430:	d0a07417 	ldw	r2,-32304(gp)
   20434:	10000426 	beq	r2,zero,20448 <OC_I2C_Read+0xb8>
        printf("OC_I2C_Read error[5]\r\n");
   20438:	010000b4 	movhi	r4,2
   2043c:	21155604 	addi	r4,r4,21848
   20440:	0023dc80 	call	23dc8 <puts>
        return FALSE;
   20444:	00002a06 	br	204f0 <OC_I2C_Read+0x160>
  // printf("\n read receive ACK-reg address! \n");

   //read
    //set the tx reg audio chip dev address with read bit 1

    IOWR(i2c_base, 3,device_address|0x01);
   20448:	94800054 	ori	r18,r18,1
   2044c:	94803fcc 	andi	r18,r18,255
   20450:	a4800035 	stwio	r18,0(r20)

   //set STA and WR bits(bit7 and bit4)
    IOWR( i2c_base, 4,0x90);
   20454:	00802404 	movi	r2,144
   20458:	98800035 	stwio	r2,0(r19)

   //wait TIP bit go to 0 to end Tx
    if (!ACK_check( i2c_base) && print){
   2045c:	8809883a 	mov	r4,r17
   20460:	00201ec0 	call	201ec <ACK_check>
   20464:	1021883a 	mov	r16,r2
   20468:	10000326 	beq	r2,zero,20478 <OC_I2C_Read+0xe8>
   2046c:	b025883a 	mov	r18,r22
    }

    for(i=0;i<nReadLength;i++){
  // printf("\n read receive ACK-device address(read)! \n");
   //set the RD and ACK bit(bit5 and bit3)
    	IOWR( i2c_base, 4,((i+1) == nReadLength)?0x28:0x20);
   20470:	002d883a 	mov	r22,zero
   20474:	00001006 	br	204b8 <OC_I2C_Read+0x128>

   //set STA and WR bits(bit7 and bit4)
    IOWR( i2c_base, 4,0x90);

   //wait TIP bit go to 0 to end Tx
    if (!ACK_check( i2c_base) && print){
   20478:	d0a07417 	ldw	r2,-32304(gp)
   2047c:	103ffb26 	beq	r2,zero,2046c <__alt_data_end+0xffff1a0c>
        printf("OC_I2C_Read error[8]\r\n");
   20480:	010000b4 	movhi	r4,2
   20484:	21155c04 	addi	r4,r4,21872
   20488:	003fed06 	br	20440 <__alt_data_end+0xffff19e0>
    }

    for(i=0;i<nReadLength;i++){
  // printf("\n read receive ACK-device address(read)! \n");
   //set the RD and ACK bit(bit5 and bit3)
    	IOWR( i2c_base, 4,((i+1) == nReadLength)?0x28:0x20);
   2048c:	b5800044 	addi	r22,r22,1
   20490:	ad800b1e 	bne	r21,r22,204c0 <OC_I2C_Read+0x130>
   20494:	00800a04 	movi	r2,40
   20498:	98800035 	stwio	r2,0(r19)

        if (!ACK_judge_for_read( i2c_base) && print){
   2049c:	8809883a 	mov	r4,r17
   204a0:	002035c0 	call	2035c <ACK_judge_for_read>
   204a4:	1021883a 	mov	r16,r2
   204a8:	10000726 	beq	r2,zero,204c8 <OC_I2C_Read+0x138>
            printf("OC_I2C_Read error[10]\r\n");
            return FALSE;
        }
   // printf("\n read receive ACK-device address(read)! \n");

        Data32=IORD( i2c_base, 3);
   204ac:	a0800037 	ldwio	r2,0(r20)
        *(pData8+i) =  Data32 & 0xff;
   204b0:	90800005 	stb	r2,0(r18)
   204b4:	94800044 	addi	r18,r18,1
    if (!ACK_check( i2c_base) && print){
        printf("OC_I2C_Read error[8]\r\n");
        return FALSE;
    }

    for(i=0;i<nReadLength;i++){
   204b8:	b57ff416 	blt	r22,r21,2048c <__alt_data_end+0xffff1a2c>
   204bc:	00000706 	br	204dc <OC_I2C_Read+0x14c>
  // printf("\n read receive ACK-device address(read)! \n");
   //set the RD and ACK bit(bit5 and bit3)
    	IOWR( i2c_base, 4,((i+1) == nReadLength)?0x28:0x20);
   204c0:	00800804 	movi	r2,32
   204c4:	003ff406 	br	20498 <__alt_data_end+0xffff1a38>

        if (!ACK_judge_for_read( i2c_base) && print){
   204c8:	d0a07417 	ldw	r2,-32304(gp)
   204cc:	103ff726 	beq	r2,zero,204ac <__alt_data_end+0xffff1a4c>
            printf("OC_I2C_Read error[10]\r\n");
   204d0:	010000b4 	movhi	r4,2
   204d4:	21156204 	addi	r4,r4,21896
   204d8:	003fd906 	br	20440 <__alt_data_end+0xffff19e0>

        Data32=IORD( i2c_base, 3);
        *(pData8+i) =  Data32 & 0xff;
    }

    IOWR( i2c_base, 4,0x40);
   204dc:	00801004 	movi	r2,64
   204e0:	98800035 	stwio	r2,0(r19)

  // Sleep(10);
   //OS_msleep(1);
    usleep(SLEEP_TIME);
   204e4:	01003e84 	movi	r4,250
   204e8:	00252380 	call	25238 <usleep>
 //  printf(" Read  [%02X] = %02Xh\r\n", sub_address, data);


   return TRUE;
   204ec:	04000044 	movi	r16,1

}
   204f0:	8005883a 	mov	r2,r16
   204f4:	dfc00817 	ldw	ra,32(sp)
   204f8:	ddc00717 	ldw	r23,28(sp)
   204fc:	dd800617 	ldw	r22,24(sp)
   20500:	dd400517 	ldw	r21,20(sp)
   20504:	dd000417 	ldw	r20,16(sp)
   20508:	dcc00317 	ldw	r19,12(sp)
   2050c:	dc800217 	ldw	r18,8(sp)
   20510:	dc400117 	ldw	r17,4(sp)
   20514:	dc000017 	ldw	r16,0(sp)
   20518:	dec00904 	addi	sp,sp,36
   2051c:	f800283a 	ret

00020520 <OC_I2C_Read_Continue>:


bool  OC_I2C_Read_Continue(alt_32 i2c_base,alt_u8 device_address, alt_u8 *pData8, int nReadLength){
   20520:	defff804 	addi	sp,sp,-32
	int i;
	alt_u32 Data32;

    IOWR(i2c_base, 3,device_address|0x01);
   20524:	29400054 	ori	r5,r5,1
   return TRUE;

}


bool  OC_I2C_Read_Continue(alt_32 i2c_base,alt_u8 device_address, alt_u8 *pData8, int nReadLength){
   20528:	dd800615 	stw	r22,24(sp)
   2052c:	dd400515 	stw	r21,20(sp)
   20530:	dd000415 	stw	r20,16(sp)
   20534:	dc400115 	stw	r17,4(sp)
   20538:	dfc00715 	stw	ra,28(sp)
   2053c:	dcc00315 	stw	r19,12(sp)
   20540:	dc800215 	stw	r18,8(sp)
   20544:	dc000015 	stw	r16,0(sp)
   20548:	2029883a 	mov	r20,r4
   2054c:	3023883a 	mov	r17,r6
   20550:	382d883a 	mov	r22,r7
	int i;
	alt_u32 Data32;

    IOWR(i2c_base, 3,device_address|0x01);
   20554:	25400304 	addi	r21,r4,12
   20558:	29403fcc 	andi	r5,r5,255
   2055c:	a9400035 	stwio	r5,0(r21)

   //set STA and WR bits(bit7 and bit4)
    IOWR( i2c_base, 4,0x90);
   20560:	24c00404 	addi	r19,r4,16
   20564:	00802404 	movi	r2,144
   20568:	98800035 	stwio	r2,0(r19)
//usleep(5*1000);
   //wait TIP bit go to 0 to end Tx
    if (!ACK_check( i2c_base) && print){
   2056c:	00201ec0 	call	201ec <ACK_check>
   20570:	10000226 	beq	r2,zero,2057c <OC_I2C_Read_Continue+0x5c>
    }

    for(i=0;i<nReadLength;i++){
  // printf("\n read receive ACK-device address(read)! \n");
   //set the RD and ACK bit(bit5 and bit3)
    	IOWR( i2c_base, 4,((i+1) == nReadLength)?0x28:0x20);
   20574:	0025883a 	mov	r18,zero
   20578:	00000906 	br	205a0 <OC_I2C_Read_Continue+0x80>
   2057c:	1021883a 	mov	r16,r2

   //set STA and WR bits(bit7 and bit4)
    IOWR( i2c_base, 4,0x90);
//usleep(5*1000);
   //wait TIP bit go to 0 to end Tx
    if (!ACK_check( i2c_base) && print){
   20580:	d0a07417 	ldw	r2,-32304(gp)
   20584:	103ffb26 	beq	r2,zero,20574 <__alt_data_end+0xffff1b14>
        printf("OC_I2C_Read error[8]\r\n");
   20588:	010000b4 	movhi	r4,2
   2058c:	21155c04 	addi	r4,r4,21872
   20590:	00001006 	br	205d4 <OC_I2C_Read_Continue+0xb4>
            printf("OC_I2C_Read error[10]\r\n");
            return FALSE;
        }
   // printf("\n read receive ACK-device address(read)! \n");

        Data32=IORD( i2c_base, 3);
   20594:	a8800037 	ldwio	r2,0(r21)
        *(pData8+i) =  Data32 & 0xff;
   20598:	88800005 	stb	r2,0(r17)
   2059c:	8c400044 	addi	r17,r17,1
    if (!ACK_check( i2c_base) && print){
        printf("OC_I2C_Read error[8]\r\n");
        return FALSE;
    }

    for(i=0;i<nReadLength;i++){
   205a0:	9580100e 	bge	r18,r22,205e4 <OC_I2C_Read_Continue+0xc4>
  // printf("\n read receive ACK-device address(read)! \n");
   //set the RD and ACK bit(bit5 and bit3)
    	IOWR( i2c_base, 4,((i+1) == nReadLength)?0x28:0x20);
   205a4:	94800044 	addi	r18,r18,1
   205a8:	b4800c1e 	bne	r22,r18,205dc <OC_I2C_Read_Continue+0xbc>
   205ac:	00800a04 	movi	r2,40
   205b0:	98800035 	stwio	r2,0(r19)

        if (!ACK_judge_for_read( i2c_base) && print){
   205b4:	a009883a 	mov	r4,r20
   205b8:	002035c0 	call	2035c <ACK_judge_for_read>
   205bc:	1021883a 	mov	r16,r2
   205c0:	103ff41e 	bne	r2,zero,20594 <__alt_data_end+0xffff1b34>
   205c4:	d0a07417 	ldw	r2,-32304(gp)
   205c8:	103ff226 	beq	r2,zero,20594 <__alt_data_end+0xffff1b34>
            printf("OC_I2C_Read error[10]\r\n");
   205cc:	010000b4 	movhi	r4,2
   205d0:	21156204 	addi	r4,r4,21896
   205d4:	0023dc80 	call	23dc8 <puts>
            return FALSE;
   205d8:	00000706 	br	205f8 <OC_I2C_Read_Continue+0xd8>
    }

    for(i=0;i<nReadLength;i++){
  // printf("\n read receive ACK-device address(read)! \n");
   //set the RD and ACK bit(bit5 and bit3)
    	IOWR( i2c_base, 4,((i+1) == nReadLength)?0x28:0x20);
   205dc:	00800804 	movi	r2,32
   205e0:	003ff306 	br	205b0 <__alt_data_end+0xffff1b50>

        Data32=IORD( i2c_base, 3);
        *(pData8+i) =  Data32 & 0xff;
    }

    IOWR( i2c_base, 4,0x40);
   205e4:	00801004 	movi	r2,64
   205e8:	98800035 	stwio	r2,0(r19)

  // Sleep(10);
   //OS_msleep(1);
    usleep(SLEEP_TIME);
   205ec:	01003e84 	movi	r4,250
   205f0:	00252380 	call	25238 <usleep>
 //  printf(" Read  [%02X] = %02Xh\r\n", sub_address, data);


   return TRUE;
   205f4:	04000044 	movi	r16,1

}
   205f8:	8005883a 	mov	r2,r16
   205fc:	dfc00717 	ldw	ra,28(sp)
   20600:	dd800617 	ldw	r22,24(sp)
   20604:	dd400517 	ldw	r21,20(sp)
   20608:	dd000417 	ldw	r20,16(sp)
   2060c:	dcc00317 	ldw	r19,12(sp)
   20610:	dc800217 	ldw	r18,8(sp)
   20614:	dc400117 	ldw	r17,4(sp)
   20618:	dc000017 	ldw	r16,0(sp)
   2061c:	dec00804 	addi	sp,sp,32
   20620:	f800283a 	ret

00020624 <OC_I2CL_Write>:


//  size > 2Kb
bool  OC_I2CL_Write(alt_32 i2c_base,alt_u8 device_address,alt_u16 sub_address,alt_u8 *pData, int nWriteLength)
    {
   20624:	defff804 	addi	sp,sp,-32
   20628:	dc400115 	stw	r17,4(sp)
    //DWORD reg_data = 0x0;
	alt_u8 AddrHigh, AddrLow;
    //int count= 0;

    AddrHigh = (sub_address >> 8) & 0xFF;
   2062c:	347fffcc 	andi	r17,r6,65535
   20630:	8822d23a 	srli	r17,r17,8
}


//  size > 2Kb
bool  OC_I2CL_Write(alt_32 i2c_base,alt_u8 device_address,alt_u16 sub_address,alt_u8 *pData, int nWriteLength)
    {
   20634:	dd800615 	stw	r22,24(sp)
   20638:	dd400515 	stw	r21,20(sp)
   2063c:	dd000415 	stw	r20,16(sp)
   20640:	dcc00315 	stw	r19,12(sp)
   20644:	dfc00715 	stw	ra,28(sp)
   20648:	dc800215 	stw	r18,8(sp)
   2064c:	dc000015 	stw	r16,0(sp)
   20650:	2027883a 	mov	r19,r4
   20654:	302d883a 	mov	r22,r6
   20658:	382b883a 	mov	r21,r7
#define TRUE 1
#define FALSE 0

bool Write32_Data(alt_32 base_address, alt_32 offset_address, alt_32 Data){
	bool bPass;
    IOWR(base_address, offset_address,Data);
   2065c:	25000304 	addi	r20,r4,12
   20660:	29403fcc 	andi	r5,r5,255
   20664:	a1400035 	stwio	r5,0(r20)
   20668:	24800404 	addi	r18,r4,16
   2066c:	00802404 	movi	r2,144
   20670:	90800035 	stwio	r2,0(r18)
   //set STA and WR bits(bit7 and bit4)
   if (!Write32_Data( i2c_base, 4,0x90))//0x90
       return FALSE;

   //wait TIP bit go to 0 to end Tx
    if(!ACK_check( i2c_base) && print){
   20674:	00201ec0 	call	201ec <ACK_check>
   20678:	1000061e 	bne	r2,zero,20694 <OC_I2CL_Write+0x70>
   2067c:	1021883a 	mov	r16,r2
   20680:	d0a07417 	ldw	r2,-32304(gp)
   20684:	10000326 	beq	r2,zero,20694 <OC_I2CL_Write+0x70>
        printf("OC_I2CL_Write error[0]\r\n");
   20688:	010000b4 	movhi	r4,2
   2068c:	21156804 	addi	r4,r4,21920
   20690:	00001706 	br	206f0 <OC_I2CL_Write+0xcc>
#define TRUE 1
#define FALSE 0

bool Write32_Data(alt_32 base_address, alt_32 offset_address, alt_32 Data){
	bool bPass;
    IOWR(base_address, offset_address,Data);
   20694:	a4400035 	stwio	r17,0(r20)
   20698:	04400404 	movi	r17,16
   2069c:	94400035 	stwio	r17,0(r18)
   //set WR bits(bit4)
    if (!Write32_Data( i2c_base, 4,0x10))
        return FALSE;

   //wait TIP bit go to 0 to end Tx
    if(!ACK_check( i2c_base) && print){
   206a0:	9809883a 	mov	r4,r19
   206a4:	00201ec0 	call	201ec <ACK_check>
   206a8:	1021883a 	mov	r16,r2
   206ac:	1000051e 	bne	r2,zero,206c4 <OC_I2CL_Write+0xa0>
   206b0:	d0a07417 	ldw	r2,-32304(gp)
   206b4:	10000326 	beq	r2,zero,206c4 <OC_I2CL_Write+0xa0>
        printf("OC_I2CL_Write error[1]\r\n");
   206b8:	010000b4 	movhi	r4,2
   206bc:	21156e04 	addi	r4,r4,21944
   206c0:	00000b06 	br	206f0 <OC_I2CL_Write+0xcc>
#define TRUE 1
#define FALSE 0

bool Write32_Data(alt_32 base_address, alt_32 offset_address, alt_32 Data){
	bool bPass;
    IOWR(base_address, offset_address,Data);
   206c4:	b5803fcc 	andi	r22,r22,255
   206c8:	a5800035 	stwio	r22,0(r20)
   206cc:	94400035 	stwio	r17,0(r18)

   //set WR bits(bit4)
    Write32_Data( i2c_base, 4,0x10);

   //wait TIP bit go to 0 to end Tx
    if(!ACK_check( i2c_base) && print){
   206d0:	9809883a 	mov	r4,r19
   206d4:	00201ec0 	call	201ec <ACK_check>
   206d8:	1021883a 	mov	r16,r2
   206dc:	1000061e 	bne	r2,zero,206f8 <OC_I2CL_Write+0xd4>
   206e0:	d0a07417 	ldw	r2,-32304(gp)
   206e4:	10000426 	beq	r2,zero,206f8 <OC_I2CL_Write+0xd4>
        printf("OC_I2CL_Write error[2]\r\n");
   206e8:	010000b4 	movhi	r4,2
   206ec:	21157404 	addi	r4,r4,21968
   206f0:	0023dc80 	call	23dc8 <puts>
        return FALSE;
   206f4:	00001806 	br	20758 <OC_I2CL_Write+0x134>
    }
  //  printf("\n receive ACK-reg low address! \n");

#if 1
    for( i=nWriteLength-1;i>=0;i--){
   206f8:	dc400817 	ldw	r17,32(sp)
#define TRUE 1
#define FALSE 0

bool Write32_Data(alt_32 base_address, alt_32 offset_address, alt_32 Data){
	bool bPass;
    IOWR(base_address, offset_address,Data);
   206fc:	05800404 	movi	r22,16
        return FALSE;
    }
  //  printf("\n receive ACK-reg low address! \n");

#if 1
    for( i=nWriteLength-1;i>=0;i--){
   20700:	8c7fffc4 	addi	r17,r17,-1
   20704:	88000f16 	blt	r17,zero,20744 <OC_I2CL_Write+0x120>
        //set the txr reg data with the other data 8 bit LSB
        if (!Write32_Data( i2c_base, 3,*(pData+i)))
   20708:	ac45883a 	add	r2,r21,r17
#define TRUE 1
#define FALSE 0

bool Write32_Data(alt_32 base_address, alt_32 offset_address, alt_32 Data){
	bool bPass;
    IOWR(base_address, offset_address,Data);
   2070c:	10800003 	ldbu	r2,0(r2)
   20710:	a0800035 	stwio	r2,0(r20)
   20714:	95800035 	stwio	r22,0(r18)
       //set STO and WR bits(bit7 and bit4)
        if (!Write32_Data( i2c_base, 4,0x10))
            return FALSE;

        //wait TIP bit go to 0 to end Tx
         if(!ACK_check( i2c_base) && print){
   20718:	9809883a 	mov	r4,r19
   2071c:	00201ec0 	call	201ec <ACK_check>
   20720:	1021883a 	mov	r16,r2
   20724:	1000051e 	bne	r2,zero,2073c <OC_I2CL_Write+0x118>
   20728:	d0a07417 	ldw	r2,-32304(gp)
   2072c:	10000326 	beq	r2,zero,2073c <OC_I2CL_Write+0x118>
             printf("OC_I2CL_Write error[3]\r\n");
   20730:	010000b4 	movhi	r4,2
   20734:	21157a04 	addi	r4,r4,21992
   20738:	003fed06 	br	206f0 <__alt_data_end+0xffff1c90>
        return FALSE;
    }
  //  printf("\n receive ACK-reg low address! \n");

#if 1
    for( i=nWriteLength-1;i>=0;i--){
   2073c:	8c7fffc4 	addi	r17,r17,-1
   20740:	003ff006 	br	20704 <__alt_data_end+0xffff1ca4>
#define TRUE 1
#define FALSE 0

bool Write32_Data(alt_32 base_address, alt_32 offset_address, alt_32 Data){
	bool bPass;
    IOWR(base_address, offset_address,Data);
   20744:	00801004 	movi	r2,64
   20748:	90800035 	stwio	r2,0(r18)
#endif
    if (!Write32_Data( i2c_base, 4,0x40))
         return FALSE;

     //OS_msleep(1);
      usleep(SLEEP_TIME);
   2074c:	01003e84 	movi	r4,250
   20750:	00252380 	call	25238 <usleep>
  //  printf("\n receive ACK-data! \n");

     return TRUE;
   20754:	04000044 	movi	r16,1
}
   20758:	8005883a 	mov	r2,r16
   2075c:	dfc00717 	ldw	ra,28(sp)
   20760:	dd800617 	ldw	r22,24(sp)
   20764:	dd400517 	ldw	r21,20(sp)
   20768:	dd000417 	ldw	r20,16(sp)
   2076c:	dcc00317 	ldw	r19,12(sp)
   20770:	dc800217 	ldw	r18,8(sp)
   20774:	dc400117 	ldw	r17,4(sp)
   20778:	dc000017 	ldw	r16,0(sp)
   2077c:	dec00804 	addi	sp,sp,32
   20780:	f800283a 	ret

00020784 <OC_I2CL_Read>:

   return TRUE;

} */

bool  OC_I2CL_Read(alt_32 i2c_base,alt_u8 device_address, alt_u16 sub_address, alt_u8 *pData8, int nReadLength){
   20784:	defff604 	addi	sp,sp,-40
   20788:	ddc00715 	stw	r23,28(sp)
    int i;

    alt_u8 AddrHigh, AddrLow;
    alt_u8 DataHigh, DataLow;

    AddrHigh = (sub_address >> 8) & 0xFF;
   2078c:	35ffffcc 	andi	r23,r6,65535

   return TRUE;

} */

bool  OC_I2CL_Read(alt_32 i2c_base,alt_u8 device_address, alt_u16 sub_address, alt_u8 *pData8, int nReadLength){
   20790:	dd400515 	stw	r21,20(sp)
    int i;

    alt_u8 AddrHigh, AddrLow;
    alt_u8 DataHigh, DataLow;

    AddrHigh = (sub_address >> 8) & 0xFF;
   20794:	b82ed23a 	srli	r23,r23,8

   return TRUE;

} */

bool  OC_I2CL_Read(alt_32 i2c_base,alt_u8 device_address, alt_u16 sub_address, alt_u8 *pData8, int nReadLength){
   20798:	dd400a17 	ldw	r21,40(sp)
   2079c:	df000815 	stw	fp,32(sp)
   207a0:	dd800615 	stw	r22,24(sp)
   207a4:	dd000415 	stw	r20,16(sp)
   207a8:	dcc00315 	stw	r19,12(sp)
   207ac:	dc800215 	stw	r18,8(sp)
   207b0:	dfc00915 	stw	ra,36(sp)
   207b4:	dc400115 	stw	r17,4(sp)
   207b8:	dc000015 	stw	r16,0(sp)
   207bc:	2025883a 	mov	r18,r4
   207c0:	2827883a 	mov	r19,r5
   207c4:	3039883a 	mov	fp,r6
   207c8:	382d883a 	mov	r22,r7
#define TRUE 1
#define FALSE 0

bool Write32_Data(alt_32 base_address, alt_32 offset_address, alt_32 Data){
	bool bPass;
    IOWR(base_address, offset_address,Data);
   207cc:	25000304 	addi	r20,r4,12
   207d0:	28803fcc 	andi	r2,r5,255
   207d4:	a0800035 	stwio	r2,0(r20)
   207d8:	24400404 	addi	r17,r4,16
   207dc:	00802404 	movi	r2,144
   207e0:	88800035 	stwio	r2,0(r17)
   //set STA and WR bits(bit7 and bit4)
   if (!Write32_Data( i2c_base, 4,0x90))
       return FALSE;

   //wait TIP bit go to 0 to end Tx
    if(!ACK_check( i2c_base) && print){
   207e4:	00201ec0 	call	201ec <ACK_check>
   207e8:	1000061e 	bne	r2,zero,20804 <OC_I2CL_Read+0x80>
   207ec:	1021883a 	mov	r16,r2
   207f0:	d0a07417 	ldw	r2,-32304(gp)
   207f4:	10000326 	beq	r2,zero,20804 <OC_I2CL_Read+0x80>
        printf("OC_I2CL_Read error[0]\r\n");
   207f8:	010000b4 	movhi	r4,2
   207fc:	21158004 	addi	r4,r4,22016
   20800:	00002806 	br	208a4 <OC_I2CL_Read+0x120>
#define TRUE 1
#define FALSE 0

bool Write32_Data(alt_32 base_address, alt_32 offset_address, alt_32 Data){
	bool bPass;
    IOWR(base_address, offset_address,Data);
   20804:	a5c00035 	stwio	r23,0(r20)
   20808:	05c00404 	movi	r23,16
   2080c:	8dc00035 	stwio	r23,0(r17)
   //set WR bits(bit4)
    if (!Write32_Data( i2c_base, 4,0x10))
        return FALSE;

   //wait TIP bit go to 0 to end Tx
    if(!ACK_check( i2c_base) && print){
   20810:	9009883a 	mov	r4,r18
   20814:	00201ec0 	call	201ec <ACK_check>
   20818:	1021883a 	mov	r16,r2
   2081c:	1000051e 	bne	r2,zero,20834 <OC_I2CL_Read+0xb0>
   20820:	d0a07417 	ldw	r2,-32304(gp)
   20824:	10000326 	beq	r2,zero,20834 <OC_I2CL_Read+0xb0>
        printf("OC_I2CL_Read error[1]\r\n");
   20828:	010000b4 	movhi	r4,2
   2082c:	21158604 	addi	r4,r4,22040
   20830:	00001c06 	br	208a4 <OC_I2CL_Read+0x120>
#define TRUE 1
#define FALSE 0

bool Write32_Data(alt_32 base_address, alt_32 offset_address, alt_32 Data){
	bool bPass;
    IOWR(base_address, offset_address,Data);
   20834:	e7003fcc 	andi	fp,fp,255
   20838:	a7000035 	stwio	fp,0(r20)
   2083c:	8dc00035 	stwio	r23,0(r17)
   //set WR bits(bit4)
    if (!Write32_Data( i2c_base, 4,0x10))
        return FALSE;

   //wait TIP bit go to 0 to end Tx
    if(!ACK_check( i2c_base) && print){
   20840:	9009883a 	mov	r4,r18
   20844:	00201ec0 	call	201ec <ACK_check>
   20848:	1021883a 	mov	r16,r2
   2084c:	1000051e 	bne	r2,zero,20864 <OC_I2CL_Read+0xe0>
   20850:	d0a07417 	ldw	r2,-32304(gp)
   20854:	10000326 	beq	r2,zero,20864 <OC_I2CL_Read+0xe0>
        printf("OC_I2CL_Read error[2]\r\n");
   20858:	010000b4 	movhi	r4,2
   2085c:	21158c04 	addi	r4,r4,22064
   20860:	00001006 	br	208a4 <OC_I2CL_Read+0x120>
#define TRUE 1
#define FALSE 0

bool Write32_Data(alt_32 base_address, alt_32 offset_address, alt_32 Data){
	bool bPass;
    IOWR(base_address, offset_address,Data);
   20864:	9cc00054 	ori	r19,r19,1
   20868:	9cc03fcc 	andi	r19,r19,255
   2086c:	a4c00035 	stwio	r19,0(r20)
   20870:	00802404 	movi	r2,144
   20874:	88800035 	stwio	r2,0(r17)
   //set STA and WR bits(bit7 and bit4)
     if (!Write32_Data( i2c_base, 4,0x90))
         return FALSE;

   //wait TIP bit go to 0 to end Tx
    if(!ACK_check( i2c_base) && print){
   20878:	9009883a 	mov	r4,r18
   2087c:	00201ec0 	call	201ec <ACK_check>
   20880:	1021883a 	mov	r16,r2
   20884:	10000326 	beq	r2,zero,20894 <OC_I2CL_Read+0x110>
   20888:	b027883a 	mov	r19,r22

#if 1
    for(i=0;i<nReadLength;i++){
  // printf("\n read receive ACK-device address(read)! \n");
   //set the RD and ACK bit(bit5 and bit3)
    	IOWR( i2c_base, 4,((i+1) == nReadLength)?0x28:0x20);
   2088c:	002d883a 	mov	r22,zero
   20890:	00001106 	br	208d8 <OC_I2CL_Read+0x154>
   //set STA and WR bits(bit7 and bit4)
     if (!Write32_Data( i2c_base, 4,0x90))
         return FALSE;

   //wait TIP bit go to 0 to end Tx
    if(!ACK_check( i2c_base) && print){
   20894:	d0a07417 	ldw	r2,-32304(gp)
   20898:	103ffb26 	beq	r2,zero,20888 <__alt_data_end+0xffff1e28>
        printf("OC_I2CL_Read error[3]\r\n");
   2089c:	010000b4 	movhi	r4,2
   208a0:	21159204 	addi	r4,r4,22088
   208a4:	0023dc80 	call	23dc8 <puts>
        return FALSE;
   208a8:	00001906 	br	20910 <OC_I2CL_Read+0x18c>

#if 1
    for(i=0;i<nReadLength;i++){
  // printf("\n read receive ACK-device address(read)! \n");
   //set the RD and ACK bit(bit5 and bit3)
    	IOWR( i2c_base, 4,((i+1) == nReadLength)?0x28:0x20);
   208ac:	b5800044 	addi	r22,r22,1
   208b0:	ad800b1e 	bne	r21,r22,208e0 <OC_I2CL_Read+0x15c>
   208b4:	00800a04 	movi	r2,40
   208b8:	88800035 	stwio	r2,0(r17)

        if (!ACK_judge_for_read( i2c_base) && print){
   208bc:	9009883a 	mov	r4,r18
   208c0:	002035c0 	call	2035c <ACK_judge_for_read>
   208c4:	1021883a 	mov	r16,r2
   208c8:	10000726 	beq	r2,zero,208e8 <OC_I2CL_Read+0x164>
            printf("OC_I2CL_Read error[4]\r\n");
            return FALSE;
        }
   // printf("\n read receive ACK-device address(read)! \n");

        Data32=IORD( i2c_base, 3);
   208cc:	a0800037 	ldwio	r2,0(r20)
        *(pData8+i) =  Data32 & 0xff;
   208d0:	98800005 	stb	r2,0(r19)
   208d4:	9cc00044 	addi	r19,r19,1
//   printf("\n read receive ACK-device address(read)! \n");

       //read the rxr data

#if 1
    for(i=0;i<nReadLength;i++){
   208d8:	b57ff416 	blt	r22,r21,208ac <__alt_data_end+0xffff1e4c>
   208dc:	00000706 	br	208fc <OC_I2CL_Read+0x178>
  // printf("\n read receive ACK-device address(read)! \n");
   //set the RD and ACK bit(bit5 and bit3)
    	IOWR( i2c_base, 4,((i+1) == nReadLength)?0x28:0x20);
   208e0:	00800804 	movi	r2,32
   208e4:	003ff406 	br	208b8 <__alt_data_end+0xffff1e58>

        if (!ACK_judge_for_read( i2c_base) && print){
   208e8:	d0a07417 	ldw	r2,-32304(gp)
   208ec:	103ff726 	beq	r2,zero,208cc <__alt_data_end+0xffff1e6c>
            printf("OC_I2CL_Read error[4]\r\n");
   208f0:	010000b4 	movhi	r4,2
   208f4:	21159804 	addi	r4,r4,22112
   208f8:	003fea06 	br	208a4 <__alt_data_end+0xffff1e44>
#define TRUE 1
#define FALSE 0

bool Write32_Data(alt_32 base_address, alt_32 offset_address, alt_32 Data){
	bool bPass;
    IOWR(base_address, offset_address,Data);
   208fc:	00801004 	movi	r2,64
   20900:	88800035 	stwio	r2,0(r17)

   if (!Write32_Data( i2c_base, 4,0x40))
       return FALSE;

   //OS_msleep(1);
    usleep(SLEEP_TIME);
   20904:	01003e84 	movi	r4,250
   20908:	00252380 	call	25238 <usleep>

   return TRUE;
   2090c:	04000044 	movi	r16,1

}
   20910:	8005883a 	mov	r2,r16
   20914:	dfc00917 	ldw	ra,36(sp)
   20918:	df000817 	ldw	fp,32(sp)
   2091c:	ddc00717 	ldw	r23,28(sp)
   20920:	dd800617 	ldw	r22,24(sp)
   20924:	dd400517 	ldw	r21,20(sp)
   20928:	dd000417 	ldw	r20,16(sp)
   2092c:	dcc00317 	ldw	r19,12(sp)
   20930:	dc800217 	ldw	r18,8(sp)
   20934:	dc400117 	ldw	r17,4(sp)
   20938:	dc000017 	ldw	r16,0(sp)
   2093c:	dec00a04 	addi	sp,sp,40
   20940:	f800283a 	ret

00020944 <auto_gain>:
#include "auto.h"

void auto_gain(int target, int epsilon){
   20944:	defff804 	addi	sp,sp,-32
   20948:	dd000415 	stw	r20,16(sp)
   2094c:	2029883a 	mov	r20,r4
	int currentgain = 0x280;
	OV8865SetGain(currentgain);
   20950:	0100a004 	movi	r4,640
#include "auto.h"

void auto_gain(int target, int epsilon){
   20954:	dfc00715 	stw	ra,28(sp)
   20958:	dd800615 	stw	r22,24(sp)
   2095c:	dd400515 	stw	r21,20(sp)
   20960:	dcc00315 	stw	r19,12(sp)
   20964:	dc400115 	stw	r17,4(sp)
   20968:	2827883a 	mov	r19,r5
   2096c:	dc000015 	stw	r16,0(sp)
   20970:	dc800215 	stw	r18,8(sp)
	int currentgain = 0x280;
	OV8865SetGain(currentgain);
   20974:	0021eb00 	call	21eb0 <OV8865SetGain>
	usleep(100000);
   20978:	010000b4 	movhi	r4,2
   2097c:	2121a804 	addi	r4,r4,-31072
   20980:	00252380 	call	25238 <usleep>

	int value = OV8865ReadAvg();
   20984:	00221700 	call	22170 <OV8865ReadAvg>
   20988:	054000f4 	movhi	r21,3
	int delta = target - value;
   2098c:	a0a3c83a 	sub	r17,r20,r2
#include "auto.h"

void auto_gain(int target, int epsilon){
	int currentgain = 0x280;
   20990:	0400a004 	movi	r16,640
   20994:	ad4f6004 	addi	r21,r21,15744
	int kp = 1;

	while ( delta > epsilon || delta < -epsilon){
		currentgain = currentgain + delta*kp;
		if (currentgain < 0) currentgain = 0;
		if (currentgain > 2047){
   20998:	0581ffc4 	movi	r22,2047
   2099c:	048000f4 	movhi	r18,3
   209a0:	948f6004 	addi	r18,r18,15744

	int value = OV8865ReadAvg();
	int delta = target - value;
	int kp = 1;

	while ( delta > epsilon || delta < -epsilon){
   209a4:	9c40250e 	bge	r19,r17,20a3c <auto_gain+0xf8>
		currentgain = currentgain + delta*kp;
   209a8:	8461883a 	add	r16,r16,r17
		if (currentgain < 0) currentgain = 0;
   209ac:	80001216 	blt	r16,zero,209f8 <auto_gain+0xb4>
		if (currentgain > 2047){
   209b0:	b400120e 	bge	r22,r16,209fc <auto_gain+0xb8>
			IOWR(LED_BASE, 0, 511);
   209b4:	00807fc4 	movi	r2,511
   209b8:	90800035 	stwio	r2,0(r18)
			usleep(1000000);
   209bc:	010003f4 	movhi	r4,15
   209c0:	21109004 	addi	r4,r4,16960
   209c4:	00252380 	call	25238 <usleep>
			IOWR(LED_BASE, 0, 0);
   209c8:	90000035 	stwio	zero,0(r18)
			OV8865SetGain(2047);
   209cc:	0101ffc4 	movi	r4,2047
		IOWR(LED_BASE, 0, delta);
	}

	IOWR(LED_BASE, 0, 0);

}
   209d0:	dfc00717 	ldw	ra,28(sp)
   209d4:	dd800617 	ldw	r22,24(sp)
   209d8:	dd400517 	ldw	r21,20(sp)
   209dc:	dd000417 	ldw	r20,16(sp)
   209e0:	dcc00317 	ldw	r19,12(sp)
   209e4:	dc800217 	ldw	r18,8(sp)
   209e8:	dc400117 	ldw	r17,4(sp)
   209ec:	dc000017 	ldw	r16,0(sp)
   209f0:	dec00804 	addi	sp,sp,32
		if (currentgain < 0) currentgain = 0;
		if (currentgain > 2047){
			IOWR(LED_BASE, 0, 511);
			usleep(1000000);
			IOWR(LED_BASE, 0, 0);
			OV8865SetGain(2047);
   209f4:	0021eb01 	jmpi	21eb0 <OV8865SetGain>
	int delta = target - value;
	int kp = 1;

	while ( delta > epsilon || delta < -epsilon){
		currentgain = currentgain + delta*kp;
		if (currentgain < 0) currentgain = 0;
   209f8:	0021883a 	mov	r16,zero
			usleep(1000000);
			IOWR(LED_BASE, 0, 0);
			OV8865SetGain(2047);
			return;
		}
		OV8865SetGain(currentgain);
   209fc:	8009883a 	mov	r4,r16
   20a00:	0021eb00 	call	21eb0 <OV8865SetGain>
		usleep(100000);
   20a04:	010000b4 	movhi	r4,2
   20a08:	2121a804 	addi	r4,r4,-31072
   20a0c:	00252380 	call	25238 <usleep>

		value = OV8865ReadAvg();
   20a10:	00221700 	call	22170 <OV8865ReadAvg>
		delta = target - value;
   20a14:	a0a3c83a 	sub	r17,r20,r2

		if (print){
   20a18:	d0a07417 	ldw	r2,-32304(gp)
   20a1c:	10000526 	beq	r2,zero,20a34 <auto_gain+0xf0>
			printf("Delta: %d, gain: %d\n", delta, currentgain);
   20a20:	010000b4 	movhi	r4,2
   20a24:	800d883a 	mov	r6,r16
   20a28:	880b883a 	mov	r5,r17
   20a2c:	21159f04 	addi	r4,r4,22140
   20a30:	0023cd80 	call	23cd8 <printf>
		}
		IOWR(LED_BASE, 0, delta);
   20a34:	ac400035 	stwio	r17,0(r21)
   20a38:	003fd806 	br	2099c <__alt_data_end+0xffff1f3c>

	int value = OV8865ReadAvg();
	int delta = target - value;
	int kp = 1;

	while ( delta > epsilon || delta < -epsilon){
   20a3c:	04c5c83a 	sub	r2,zero,r19
   20a40:	88bfd916 	blt	r17,r2,209a8 <__alt_data_end+0xffff1f48>
			printf("Delta: %d, gain: %d\n", delta, currentgain);
		}
		IOWR(LED_BASE, 0, delta);
	}

	IOWR(LED_BASE, 0, 0);
   20a44:	90000035 	stwio	zero,0(r18)

}
   20a48:	dfc00717 	ldw	ra,28(sp)
   20a4c:	dd800617 	ldw	r22,24(sp)
   20a50:	dd400517 	ldw	r21,20(sp)
   20a54:	dd000417 	ldw	r20,16(sp)
   20a58:	dcc00317 	ldw	r19,12(sp)
   20a5c:	dc800217 	ldw	r18,8(sp)
   20a60:	dc400117 	ldw	r17,4(sp)
   20a64:	dc000017 	ldw	r16,0(sp)
   20a68:	dec00804 	addi	sp,sp,32
   20a6c:	f800283a 	ret

00020a70 <auto_wb>:

void auto_wb(int target, int epsilon){
   20a70:	defff804 	addi	sp,sp,-32
   20a74:	dc800215 	stw	r18,8(sp)
   20a78:	2025883a 	mov	r18,r4
	int kp = 1;


	//Red Balance
	int currentgain = 0x400;
	OV8865SetRedGain(currentgain);
   20a7c:	01010004 	movi	r4,1024

	IOWR(LED_BASE, 0, 0);

}

void auto_wb(int target, int epsilon){
   20a80:	dfc00715 	stw	ra,28(sp)
   20a84:	dd800615 	stw	r22,24(sp)
   20a88:	dd400515 	stw	r21,20(sp)
   20a8c:	dd000415 	stw	r20,16(sp)
   20a90:	dcc00315 	stw	r19,12(sp)
   20a94:	dc000015 	stw	r16,0(sp)
   20a98:	2827883a 	mov	r19,r5
   20a9c:	dc400115 	stw	r17,4(sp)
	int kp = 1;


	//Red Balance
	int currentgain = 0x400;
	OV8865SetRedGain(currentgain);
   20aa0:	0021fa80 	call	21fa8 <OV8865SetRedGain>
	usleep(delay);
   20aa4:	010000b4 	movhi	r4,2
   20aa8:	2121a804 	addi	r4,r4,-31072
   20aac:	00252380 	call	25238 <usleep>
	 alt_u32 value = red_average();
   20ab0:	00212ac0 	call	212ac <red_average>
   20ab4:	054000f4 	movhi	r21,3
	int delta = target - value;
   20ab8:	90a1c83a 	sub	r16,r18,r2
	int delay = 100000;
	int kp = 1;


	//Red Balance
	int currentgain = 0x400;
   20abc:	05010004 	movi	r20,1024
   20ac0:	ad4f6004 	addi	r21,r21,15744
	int delta = target - value;

	while ( delta > epsilon || delta < -epsilon){
		currentgain = currentgain + delta/2;
		if (currentgain < 0) currentgain = 0;
		if (currentgain > 2047){
   20ac4:	0581ffc4 	movi	r22,2047
   20ac8:	044000f4 	movhi	r17,3
   20acc:	8c4f6004 	addi	r17,r17,15744
	OV8865SetRedGain(currentgain);
	usleep(delay);
	 alt_u32 value = red_average();
	int delta = target - value;

	while ( delta > epsilon || delta < -epsilon){
   20ad0:	9c00200e 	bge	r19,r16,20b54 <auto_wb+0xe4>
		currentgain = currentgain + delta/2;
   20ad4:	8004d7fa 	srli	r2,r16,31
   20ad8:	1421883a 	add	r16,r2,r16
   20adc:	8021d07a 	srai	r16,r16,1
   20ae0:	a429883a 	add	r20,r20,r16
		if (currentgain < 0) currentgain = 0;
   20ae4:	a0000a16 	blt	r20,zero,20b10 <auto_wb+0xa0>
		if (currentgain > 2047){
   20ae8:	b5000a0e 	bge	r22,r20,20b14 <auto_wb+0xa4>
			IOWR(LED_BASE, 0, 511);
   20aec:	00807fc4 	movi	r2,511
   20af0:	88800035 	stwio	r2,0(r17)
			usleep(1000000);
   20af4:	010003f4 	movhi	r4,15
   20af8:	21109004 	addi	r4,r4,16960
   20afc:	00252380 	call	25238 <usleep>
			IOWR(LED_BASE, 0, 0);
   20b00:	88000035 	stwio	zero,0(r17)
			OV8865SetRedGain(2047);
   20b04:	0101ffc4 	movi	r4,2047
   20b08:	0021fa80 	call	21fa8 <OV8865SetRedGain>
			break;
   20b0c:	00001306 	br	20b5c <auto_wb+0xec>
	 alt_u32 value = red_average();
	int delta = target - value;

	while ( delta > epsilon || delta < -epsilon){
		currentgain = currentgain + delta/2;
		if (currentgain < 0) currentgain = 0;
   20b10:	0029883a 	mov	r20,zero
			IOWR(LED_BASE, 0, 0);
			OV8865SetRedGain(2047);
			break;
		}

		OV8865SetRedGain(currentgain);
   20b14:	a009883a 	mov	r4,r20
   20b18:	0021fa80 	call	21fa8 <OV8865SetRedGain>
		usleep(delay);
   20b1c:	010000b4 	movhi	r4,2
   20b20:	2121a804 	addi	r4,r4,-31072
   20b24:	00252380 	call	25238 <usleep>

		value = red_average();
   20b28:	00212ac0 	call	212ac <red_average>

		delta = target - value;
   20b2c:	90a1c83a 	sub	r16,r18,r2
		if(print){
   20b30:	d0a07417 	ldw	r2,-32304(gp)
   20b34:	10000526 	beq	r2,zero,20b4c <auto_wb+0xdc>
			printf("Red Delta: %d, gain: %d\n", delta, currentgain);
   20b38:	010000b4 	movhi	r4,2
   20b3c:	a00d883a 	mov	r6,r20
   20b40:	800b883a 	mov	r5,r16
   20b44:	21159e04 	addi	r4,r4,22136
   20b48:	0023cd80 	call	23cd8 <printf>
		}
		IOWR(LED_BASE, 0, delta);
   20b4c:	ac000035 	stwio	r16,0(r21)
   20b50:	003fdd06 	br	20ac8 <__alt_data_end+0xffff2068>
	OV8865SetRedGain(currentgain);
	usleep(delay);
	 alt_u32 value = red_average();
	int delta = target - value;

	while ( delta > epsilon || delta < -epsilon){
   20b54:	04c5c83a 	sub	r2,zero,r19
   20b58:	80bfde16 	blt	r16,r2,20ad4 <__alt_data_end+0xffff2074>
		IOWR(LED_BASE, 0, delta);
	}

	//Green Balance
	currentgain = 0x400;
	OV8865SetGreenGain(currentgain);
   20b5c:	01010004 	movi	r4,1024
   20b60:	00220500 	call	22050 <OV8865SetGreenGain>
	usleep(delay);
   20b64:	010000b4 	movhi	r4,2
   20b68:	2121a804 	addi	r4,r4,-31072
   20b6c:	00252380 	call	25238 <usleep>
	value = green_average();
   20b70:	002124c0 	call	2124c <green_average>
	delta = target - value;
   20b74:	90a1c83a 	sub	r16,r18,r2
		}
		IOWR(LED_BASE, 0, delta);
	}

	//Green Balance
	currentgain = 0x400;
   20b78:	05010004 	movi	r20,1024
	OV8865SetGreenGain(currentgain);
	usleep(delay);
	value = green_average();
	delta = target - value;

	while ( delta > epsilon || delta < -epsilon){
   20b7c:	04ebc83a 	sub	r21,zero,r19
		currentgain = currentgain + delta/2;
		if (currentgain < 0) currentgain = 0;
		if (currentgain > 2047){
   20b80:	0581ffc4 	movi	r22,2047
	OV8865SetGreenGain(currentgain);
	usleep(delay);
	value = green_average();
	delta = target - value;

	while ( delta > epsilon || delta < -epsilon){
   20b84:	9c00200e 	bge	r19,r16,20c08 <auto_wb+0x198>
		currentgain = currentgain + delta/2;
   20b88:	8004d7fa 	srli	r2,r16,31
   20b8c:	1421883a 	add	r16,r2,r16
   20b90:	8021d07a 	srai	r16,r16,1
   20b94:	a429883a 	add	r20,r20,r16
		if (currentgain < 0) currentgain = 0;
   20b98:	a0000a16 	blt	r20,zero,20bc4 <auto_wb+0x154>
		if (currentgain > 2047){
   20b9c:	b5000a0e 	bge	r22,r20,20bc8 <auto_wb+0x158>
			IOWR(LED_BASE, 0, 511);
   20ba0:	00807fc4 	movi	r2,511
   20ba4:	88800035 	stwio	r2,0(r17)
			usleep(1000000);
   20ba8:	010003f4 	movhi	r4,15
   20bac:	21109004 	addi	r4,r4,16960
   20bb0:	00252380 	call	25238 <usleep>
			IOWR(LED_BASE, 0, 0);
   20bb4:	88000035 	stwio	zero,0(r17)
			OV8865SetGreenGain(2047);
   20bb8:	0101ffc4 	movi	r4,2047
   20bbc:	00220500 	call	22050 <OV8865SetGreenGain>
			break;
   20bc0:	00001206 	br	20c0c <auto_wb+0x19c>
	value = green_average();
	delta = target - value;

	while ( delta > epsilon || delta < -epsilon){
		currentgain = currentgain + delta/2;
		if (currentgain < 0) currentgain = 0;
   20bc4:	0029883a 	mov	r20,zero
			usleep(1000000);
			IOWR(LED_BASE, 0, 0);
			OV8865SetGreenGain(2047);
			break;
		}
		OV8865SetGreenGain(currentgain);
   20bc8:	a009883a 	mov	r4,r20
   20bcc:	00220500 	call	22050 <OV8865SetGreenGain>
		usleep(delay);
   20bd0:	010000b4 	movhi	r4,2
   20bd4:	2121a804 	addi	r4,r4,-31072
   20bd8:	00252380 	call	25238 <usleep>

		value = green_average();
   20bdc:	002124c0 	call	2124c <green_average>

		delta = target - value;
   20be0:	90a1c83a 	sub	r16,r18,r2
		if (print){
   20be4:	d0a07417 	ldw	r2,-32304(gp)
   20be8:	10000526 	beq	r2,zero,20c00 <auto_wb+0x190>
			printf("Green Delta: %d, gain: %d\n", delta, currentgain);
   20bec:	010000b4 	movhi	r4,2
   20bf0:	a00d883a 	mov	r6,r20
   20bf4:	800b883a 	mov	r5,r16
   20bf8:	2115a504 	addi	r4,r4,22164
   20bfc:	0023cd80 	call	23cd8 <printf>
		}
		IOWR(LED_BASE, 0, delta);
   20c00:	8c000035 	stwio	r16,0(r17)
   20c04:	003fdf06 	br	20b84 <__alt_data_end+0xffff2124>
	OV8865SetGreenGain(currentgain);
	usleep(delay);
	value = green_average();
	delta = target - value;

	while ( delta > epsilon || delta < -epsilon){
   20c08:	857fdf16 	blt	r16,r21,20b88 <__alt_data_end+0xffff2128>
		IOWR(LED_BASE, 0, delta);
		}

	//Blue Balance
	currentgain = 0x400;
	OV8865SetBlueGain(currentgain);
   20c0c:	01010004 	movi	r4,1024
   20c10:	00220e00 	call	220e0 <OV8865SetBlueGain>
	usleep(delay);
   20c14:	010000b4 	movhi	r4,2
   20c18:	2121a804 	addi	r4,r4,-31072
   20c1c:	00252380 	call	25238 <usleep>
	value = blue_average();
   20c20:	002130c0 	call	2130c <blue_average>
	delta = target - value;
   20c24:	90a1c83a 	sub	r16,r18,r2
		}
		IOWR(LED_BASE, 0, delta);
		}

	//Blue Balance
	currentgain = 0x400;
   20c28:	05010004 	movi	r20,1024
	OV8865SetBlueGain(currentgain);
	usleep(delay);
	value = blue_average();
	delta = target - value;

	while ( delta > epsilon || delta < -epsilon){
   20c2c:	04ebc83a 	sub	r21,zero,r19
		currentgain = currentgain + delta/2;
		if (currentgain < 0) currentgain = 0;
		if (currentgain > 2047){
   20c30:	0581ffc4 	movi	r22,2047
	OV8865SetBlueGain(currentgain);
	usleep(delay);
	value = blue_average();
	delta = target - value;

	while ( delta > epsilon || delta < -epsilon){
   20c34:	9c00200e 	bge	r19,r16,20cb8 <auto_wb+0x248>
		currentgain = currentgain + delta/2;
   20c38:	8004d7fa 	srli	r2,r16,31
   20c3c:	1421883a 	add	r16,r2,r16
   20c40:	8021d07a 	srai	r16,r16,1
   20c44:	a429883a 	add	r20,r20,r16
		if (currentgain < 0) currentgain = 0;
   20c48:	a0000a16 	blt	r20,zero,20c74 <auto_wb+0x204>
		if (currentgain > 2047){
   20c4c:	b5000a0e 	bge	r22,r20,20c78 <auto_wb+0x208>
			IOWR(LED_BASE, 0, 511);
   20c50:	00807fc4 	movi	r2,511
   20c54:	88800035 	stwio	r2,0(r17)
			usleep(1000000);
   20c58:	010003f4 	movhi	r4,15
   20c5c:	21109004 	addi	r4,r4,16960
   20c60:	00252380 	call	25238 <usleep>
			IOWR(LED_BASE, 0, 0);
   20c64:	88000035 	stwio	zero,0(r17)
			OV8865SetBlueGain(2047);
   20c68:	0101ffc4 	movi	r4,2047
   20c6c:	00220e00 	call	220e0 <OV8865SetBlueGain>
			break;
   20c70:	00001206 	br	20cbc <auto_wb+0x24c>
	value = blue_average();
	delta = target - value;

	while ( delta > epsilon || delta < -epsilon){
		currentgain = currentgain + delta/2;
		if (currentgain < 0) currentgain = 0;
   20c74:	0029883a 	mov	r20,zero
			usleep(1000000);
			IOWR(LED_BASE, 0, 0);
			OV8865SetBlueGain(2047);
			break;
		}
		OV8865SetBlueGain(currentgain);
   20c78:	a009883a 	mov	r4,r20
   20c7c:	00220e00 	call	220e0 <OV8865SetBlueGain>
		usleep(delay);
   20c80:	010000b4 	movhi	r4,2
   20c84:	2121a804 	addi	r4,r4,-31072
   20c88:	00252380 	call	25238 <usleep>

		value = blue_average();
   20c8c:	002130c0 	call	2130c <blue_average>

		delta = target - value;
   20c90:	90a1c83a 	sub	r16,r18,r2
		if (print){
   20c94:	d0a07417 	ldw	r2,-32304(gp)
   20c98:	10000526 	beq	r2,zero,20cb0 <auto_wb+0x240>
		printf("Blue Delta: %d, gain: %d\n", delta, currentgain);
   20c9c:	010000b4 	movhi	r4,2
   20ca0:	a00d883a 	mov	r6,r20
   20ca4:	800b883a 	mov	r5,r16
   20ca8:	2115ac04 	addi	r4,r4,22192
   20cac:	0023cd80 	call	23cd8 <printf>
		}
		IOWR(LED_BASE, 0, delta);
   20cb0:	8c000035 	stwio	r16,0(r17)
   20cb4:	003fdf06 	br	20c34 <__alt_data_end+0xffff21d4>
	OV8865SetBlueGain(currentgain);
	usleep(delay);
	value = blue_average();
	delta = target - value;

	while ( delta > epsilon || delta < -epsilon){
   20cb8:	857fdf16 	blt	r16,r21,20c38 <__alt_data_end+0xffff21d8>
		if (print){
		printf("Blue Delta: %d, gain: %d\n", delta, currentgain);
		}
		IOWR(LED_BASE, 0, delta);
	}
	IOWR(LED_BASE, 0, 0);
   20cbc:	88000035 	stwio	zero,0(r17)

}
   20cc0:	dfc00717 	ldw	ra,28(sp)
   20cc4:	dd800617 	ldw	r22,24(sp)
   20cc8:	dd400517 	ldw	r21,20(sp)
   20ccc:	dd000417 	ldw	r20,16(sp)
   20cd0:	dcc00317 	ldw	r19,12(sp)
   20cd4:	dc800217 	ldw	r18,8(sp)
   20cd8:	dc400117 	ldw	r17,4(sp)
   20cdc:	dc000017 	ldw	r16,0(sp)
   20ce0:	dec00804 	addi	sp,sp,32
   20ce4:	f800283a 	ret

00020ce8 <Focus_Init>:
// please observe focus performance when change the scal ,scal_f. or when change camera frame rate
alt_u8  focus_scal   =   4;  // scan 0 -> 1023 , step: SCAL , to find STEP_UP
alt_u8  focus_scal_f =   1;  //  scan STEP_UP + - SCAL/2 , step: SCAL_F
alt_u8  focus_th     =   20;

void Focus_Init(void){
   20ce8:	defffd04 	addi	sp,sp,-12
  // please look at TERASIC_AUTO_FOCUS IP to see register's detail.
  IOWR(TERASIC_AUTO_FOCUS_0_BASE,REG_CTRL, 0);// focus mode : 1: window-screen, 0: full-screen
   20cec:	008000f4 	movhi	r2,3
// please observe focus performance when change the scal ,scal_f. or when change camera frame rate
alt_u8  focus_scal   =   4;  // scan 0 -> 1023 , step: SCAL , to find STEP_UP
alt_u8  focus_scal_f =   1;  //  scan STEP_UP + - SCAL/2 , step: SCAL_F
alt_u8  focus_th     =   20;

void Focus_Init(void){
   20cf0:	dc400115 	stw	r17,4(sp)
   20cf4:	dfc00215 	stw	ra,8(sp)
   20cf8:	dc000015 	stw	r16,0(sp)
  // please look at TERASIC_AUTO_FOCUS IP to see register's detail.
  IOWR(TERASIC_AUTO_FOCUS_0_BASE,REG_CTRL, 0);// focus mode : 1: window-screen, 0: full-screen
   20cfc:	0023883a 	mov	r17,zero
   20d00:	108f3104 	addi	r2,r2,15556
   20d04:	14400035 	stwio	r17,0(r2)
  IOWR(TERASIC_AUTO_FOCUS_0_BASE,REG_FOCUS_W, focus_width);// focus_width
   20d08:	d0e0018b 	ldhu	r3,-32762(gp)
   20d0c:	008000f4 	movhi	r2,3
   20d10:	108f3204 	addi	r2,r2,15560
   20d14:	10c00035 	stwio	r3,0(r2)
  IOWR(TERASIC_AUTO_FOCUS_0_BASE,REG_FOCUS_H, focus_height);// focus_height
   20d18:	d0e0010b 	ldhu	r3,-32764(gp)
   20d1c:	008000f4 	movhi	r2,3
   20d20:	108f3304 	addi	r2,r2,15564
   20d24:	10c00035 	stwio	r3,0(r2)
  IOWR(TERASIC_AUTO_FOCUS_0_BASE,REG_FOCUS_X_START, video_w/2-focus_width/2);//x_start
   20d28:	d0a0028b 	ldhu	r2,-32758(gp)
   20d2c:	1006d07a 	srli	r3,r2,1
   20d30:	d0a0018b 	ldhu	r2,-32762(gp)
   20d34:	1004d07a 	srli	r2,r2,1
   20d38:	1885c83a 	sub	r2,r3,r2
   20d3c:	00c000f4 	movhi	r3,3
   20d40:	18cf3404 	addi	r3,r3,15568
   20d44:	18800035 	stwio	r2,0(r3)
  IOWR(TERASIC_AUTO_FOCUS_0_BASE,REG_FOCUS_Y_START, video_h/2-focus_height/2);// y_start
   20d48:	d0a0020b 	ldhu	r2,-32760(gp)
   20d4c:	1006d07a 	srli	r3,r2,1
   20d50:	d0a0010b 	ldhu	r2,-32764(gp)
   20d54:	1004d07a 	srli	r2,r2,1
   20d58:	1885c83a 	sub	r2,r3,r2
   20d5c:	00c000f4 	movhi	r3,3
   20d60:	18cf3504 	addi	r3,r3,15572
   20d64:	18800035 	stwio	r2,0(r3)

  IOWR(TERASIC_AUTO_FOCUS_0_BASE,REG_SCAL, focus_scal*256 + focus_scal_f); // scan 0 -> 1023 , step: SCAL , to find STEP_UP
   20d68:	d0a00083 	ldbu	r2,-32766(gp)
   20d6c:	1006923a 	slli	r3,r2,8
   20d70:	d0a00043 	ldbu	r2,-32767(gp)
   20d74:	1885883a 	add	r2,r3,r2
   20d78:	00c000f4 	movhi	r3,3
   20d7c:	18cf3604 	addi	r3,r3,15576
   20d80:	18800035 	stwio	r2,0(r3)
                                                                          //  scan STEP_UP + - SCAL/2 , step: SCAL_F
  IOWR(TERASIC_AUTO_FOCUS_0_BASE,REG_TH, focus_th);
   20d84:	d0e00003 	ldbu	r3,-32768(gp)
   20d88:	008000f4 	movhi	r2,3
   20d8c:	108f3704 	addi	r2,r2,15580
   20d90:	10c00035 	stwio	r3,0(r2)

  //////////// focus at initial time
  usleep(100);
   20d94:	01001904 	movi	r4,100
   20d98:	00252380 	call	25238 <usleep>
  IOWR(TERASIC_AUTO_FOCUS_0_BASE,REG_GO, 1);
   20d9c:	040000f4 	movhi	r16,3
   20da0:	840f3004 	addi	r16,r16,15552
   20da4:	00800044 	movi	r2,1
   20da8:	80800035 	stwio	r2,0(r16)
  usleep(2);
   20dac:	01000084 	movi	r4,2
   20db0:	00252380 	call	25238 <usleep>
  IOWR(TERASIC_AUTO_FOCUS_0_BASE,REG_GO, 0);
   20db4:	84400035 	stwio	r17,0(r16)
}
   20db8:	dfc00217 	ldw	ra,8(sp)
   20dbc:	dc400117 	ldw	r17,4(sp)
   20dc0:	dc000017 	ldw	r16,0(sp)
   20dc4:	dec00304 	addi	sp,sp,12
   20dc8:	f800283a 	ret

00020dcc <Focus_Released>:
   }
   return end_focus;

}

int Focus_Released(void){
   20dcc:	defffd04 	addi	sp,sp,-12
   20dd0:	dc000015 	stw	r16,0(sp)
  int Released = FALSE;
  alt_u32 TimeOut;

  TimeOut = alt_nticks() + alt_ticks_per_second()*8;
   20dd4:	d4208f17 	ldw	r16,-32196(gp)
 * alt_nticks() returns the elapsed number of system clock ticks since reset.
 */

static ALT_INLINE alt_u32 ALT_ALWAYS_INLINE alt_nticks (void)
{
  return _alt_nticks;
   20dd8:	d0a08e17 	ldw	r2,-32200(gp)

  while((IORD(TERASIC_AUTO_FOCUS_0_BASE,REG_STATUS)&0x8000) ==0 && alt_nticks() < TimeOut ); // waiting for VCM release I2C bus
   20ddc:	00c000f4 	movhi	r3,3

int Focus_Released(void){
  int Released = FALSE;
  alt_u32 TimeOut;

  TimeOut = alt_nticks() + alt_ticks_per_second()*8;
   20de0:	802090fa 	slli	r16,r16,3
   }
   return end_focus;

}

int Focus_Released(void){
   20de4:	dfc00215 	stw	ra,8(sp)
   20de8:	dc400115 	stw	r17,4(sp)
  int Released = FALSE;
  alt_u32 TimeOut;

  TimeOut = alt_nticks() + alt_ticks_per_second()*8;
   20dec:	80a1883a 	add	r16,r16,r2

  while((IORD(TERASIC_AUTO_FOCUS_0_BASE,REG_STATUS)&0x8000) ==0 && alt_nticks() < TimeOut ); // waiting for VCM release I2C bus
   20df0:	18cf3004 	addi	r3,r3,15552
   20df4:	18800037 	ldwio	r2,0(r3)
   20df8:	10a0000c 	andi	r2,r2,32768
   20dfc:	1000021e 	bne	r2,zero,20e08 <Focus_Released+0x3c>
   20e00:	d0a08e17 	ldw	r2,-32200(gp)
   20e04:	143ffb36 	bltu	r2,r16,20df4 <__alt_data_end+0xffff2394>
   20e08:	d4608e17 	ldw	r17,-32200(gp)

  if(alt_nticks() < TimeOut ) Released = TRUE;
  //else if (print) printf("\n =>Released check TimeOut!\n");

  usleep(10000);
   20e0c:	0109c404 	movi	r4,10000
   20e10:	00252380 	call	25238 <usleep>

  return Released;
}
   20e14:	8c05803a 	cmpltu	r2,r17,r16
   20e18:	dfc00217 	ldw	ra,8(sp)
   20e1c:	dc400117 	ldw	r17,4(sp)
   20e20:	dc000017 	ldw	r16,0(sp)
   20e24:	dec00304 	addi	sp,sp,12
   20e28:	f800283a 	ret

00020e2c <Focus_Window>:
  IOWR(TERASIC_AUTO_FOCUS_0_BASE,REG_GO, 1);
  usleep(2);
  IOWR(TERASIC_AUTO_FOCUS_0_BASE,REG_GO, 0);
}

alt_u16 Focus_Window(int x,int y){
   20e2c:	defffd04 	addi	sp,sp,-12
   20e30:	dc400115 	stw	r17,4(sp)
   20e34:	dc000015 	stw	r16,0(sp)
   20e38:	dfc00215 	stw	ra,8(sp)
   20e3c:	2023883a 	mov	r17,r4
   20e40:	2821883a 	mov	r16,r5
   alt_u16 x_start,y_start;
   alt_u16 end_focus;

   if(Focus_Released()) { // pre focus done
   20e44:	0020dcc0 	call	20dcc <Focus_Released>
   20e48:	10004626 	beq	r2,zero,20f64 <Focus_Window+0x138>
	   IOWR(TERASIC_AUTO_FOCUS_0_BASE,REG_CTRL, 1);// focus mode : 1: window-screen, 0: full-screen
   20e4c:	008000f4 	movhi	r2,3
   20e50:	108f3104 	addi	r2,r2,15556
   20e54:	00c00044 	movi	r3,1
   20e58:	10c00035 	stwio	r3,0(r2)

	   if(( x -  focus_width/2) < 0 ) x_start = 0;
   20e5c:	d120018b 	ldhu	r4,-32762(gp)
   20e60:	20bfffcc 	andi	r2,r4,65535
   20e64:	10c4d83a 	srl	r2,r2,r3
   20e68:	117fffcc 	andi	r5,r2,65535
   20e6c:	8947c83a 	sub	r3,r17,r5
   20e70:	18000916 	blt	r3,zero,20e98 <Focus_Window+0x6c>
	   else if(( x + focus_width/2 ) > video_w )  x_start = video_w -1 -focus_width;
   20e74:	d0e0028b 	ldhu	r3,-32758(gp)
   20e78:	2c4b883a 	add	r5,r5,r17
   20e7c:	19bfffcc 	andi	r6,r3,65535
   20e80:	3140030e 	bge	r6,r5,20e90 <Focus_Window+0x64>
   20e84:	18ffffc4 	addi	r3,r3,-1
   20e88:	1923c83a 	sub	r17,r3,r4
   20e8c:	00000306 	br	20e9c <Focus_Window+0x70>
	   else x_start = x - focus_width/2;
   20e90:	88a3c83a 	sub	r17,r17,r2
   20e94:	00000106 	br	20e9c <Focus_Window+0x70>
   alt_u16 end_focus;

   if(Focus_Released()) { // pre focus done
	   IOWR(TERASIC_AUTO_FOCUS_0_BASE,REG_CTRL, 1);// focus mode : 1: window-screen, 0: full-screen

	   if(( x -  focus_width/2) < 0 ) x_start = 0;
   20e98:	0023883a 	mov	r17,zero
	   else if(( x + focus_width/2 ) > video_w )  x_start = video_w -1 -focus_width;
	   else x_start = x - focus_width/2;

	   if(( y -  focus_height/2) < 0 ) y_start = 0;
   20e9c:	d160010b 	ldhu	r5,-32764(gp)
   20ea0:	28bfffcc 	andi	r2,r5,65535
   20ea4:	1004d07a 	srli	r2,r2,1
   20ea8:	113fffcc 	andi	r4,r2,65535
   20eac:	8107c83a 	sub	r3,r16,r4
   20eb0:	18000916 	blt	r3,zero,20ed8 <Focus_Window+0xac>
	   else if(( y + focus_height/2 ) > video_h )  y_start = video_h -1 -focus_height;
   20eb4:	d0e0020b 	ldhu	r3,-32760(gp)
   20eb8:	2409883a 	add	r4,r4,r16
   20ebc:	19bfffcc 	andi	r6,r3,65535
   20ec0:	3100030e 	bge	r6,r4,20ed0 <Focus_Window+0xa4>
   20ec4:	18ffffc4 	addi	r3,r3,-1
   20ec8:	1961c83a 	sub	r16,r3,r5
   20ecc:	00000306 	br	20edc <Focus_Window+0xb0>
	   else y_start = y - focus_height/2;
   20ed0:	80a1c83a 	sub	r16,r16,r2
   20ed4:	00000106 	br	20edc <Focus_Window+0xb0>

	   if(( x -  focus_width/2) < 0 ) x_start = 0;
	   else if(( x + focus_width/2 ) > video_w )  x_start = video_w -1 -focus_width;
	   else x_start = x - focus_width/2;

	   if(( y -  focus_height/2) < 0 ) y_start = 0;
   20ed8:	0021883a 	mov	r16,zero
	   else if(( y + focus_height/2 ) > video_h )  y_start = video_h -1 -focus_height;
	   else y_start = y - focus_height/2;
	   if (print){
   20edc:	d0a07417 	ldw	r2,-32304(gp)
   20ee0:	843fffcc 	andi	r16,r16,65535
   20ee4:	8c7fffcc 	andi	r17,r17,65535
   20ee8:	10000526 	beq	r2,zero,20f00 <Focus_Window+0xd4>
		   printf("x_start= %d,y_start= %d\n",x_start,y_start);
   20eec:	010000b4 	movhi	r4,2
   20ef0:	800d883a 	mov	r6,r16
   20ef4:	880b883a 	mov	r5,r17
   20ef8:	2115b304 	addi	r4,r4,22220
   20efc:	0023cd80 	call	23cd8 <printf>
	   }

	   IOWR(TERASIC_AUTO_FOCUS_0_BASE,REG_FOCUS_X_START, x_start);//x_start
   20f00:	008000f4 	movhi	r2,3
   20f04:	108f3404 	addi	r2,r2,15568
   20f08:	14400035 	stwio	r17,0(r2)
	   IOWR(TERASIC_AUTO_FOCUS_0_BASE,REG_FOCUS_Y_START, y_start);//y_start
   20f0c:	008000f4 	movhi	r2,3
   20f10:	108f3504 	addi	r2,r2,15572
   20f14:	14000035 	stwio	r16,0(r2)

	   usleep(10);
   20f18:	01000284 	movi	r4,10
   20f1c:	00252380 	call	25238 <usleep>

	   IOWR(TERASIC_AUTO_FOCUS_0_BASE,REG_GO, 1);
   20f20:	040000f4 	movhi	r16,3
   20f24:	840f3004 	addi	r16,r16,15552
   20f28:	00800044 	movi	r2,1
   20f2c:	80800035 	stwio	r2,0(r16)
	   usleep(2);
   20f30:	01000084 	movi	r4,2
   20f34:	00252380 	call	25238 <usleep>
	   IOWR(TERASIC_AUTO_FOCUS_0_BASE,REG_GO, 0);
   20f38:	80000035 	stwio	zero,0(r16)
	   Focus_Released();
   20f3c:	0020dcc0 	call	20dcc <Focus_Released>

	   end_focus = IORD(TERASIC_AUTO_FOCUS_0_BASE,REG_STATUS)&0x0FFF;
   20f40:	84000037 	ldwio	r16,0(r16)
	   if(print){
   20f44:	d0a07417 	ldw	r2,-32304(gp)
	   IOWR(TERASIC_AUTO_FOCUS_0_BASE,REG_GO, 1);
	   usleep(2);
	   IOWR(TERASIC_AUTO_FOCUS_0_BASE,REG_GO, 0);
	   Focus_Released();

	   end_focus = IORD(TERASIC_AUTO_FOCUS_0_BASE,REG_STATUS)&0x0FFF;
   20f48:	8403ffcc 	andi	r16,r16,4095
	   if(print){
   20f4c:	10000726 	beq	r2,zero,20f6c <Focus_Window+0x140>
		   printf("end_focus = %d \n",end_focus);
   20f50:	010000b4 	movhi	r4,2
   20f54:	800b883a 	mov	r5,r16
   20f58:	2115ba04 	addi	r4,r4,22248
   20f5c:	0023cd80 	call	23cd8 <printf>
   20f60:	00000206 	br	20f6c <Focus_Window+0x140>
	   }

	   return end_focus;

   }
   return end_focus;
   20f64:	0005883a 	mov	r2,zero
   20f68:	00000106 	br	20f70 <Focus_Window+0x144>
	   end_focus = IORD(TERASIC_AUTO_FOCUS_0_BASE,REG_STATUS)&0x0FFF;
	   if(print){
		   printf("end_focus = %d \n",end_focus);
	   }

	   return end_focus;
   20f6c:	8005883a 	mov	r2,r16

   }
   return end_focus;

}
   20f70:	dfc00217 	ldw	ra,8(sp)
   20f74:	dc400117 	ldw	r17,4(sp)
   20f78:	dc000017 	ldw	r16,0(sp)
   20f7c:	dec00304 	addi	sp,sp,12
   20f80:	f800283a 	ret

00020f84 <fir_load_unit>:
#include "filters_buffers.h"

void fir_load_unit(int base){
   20f84:	20800704 	addi	r2,r4,28
   20f88:	20c01004 	addi	r3,r4,64
	//Clear filter coefficients
	for (int i = 7; i < 7+9; i++){
		IOWR(base, i, 0);
   20f8c:	10000035 	stwio	zero,0(r2)
   20f90:	10800104 	addi	r2,r2,4
#include "filters_buffers.h"

void fir_load_unit(int base){
	//Clear filter coefficients
	for (int i = 7; i < 7+9; i++){
   20f94:	10fffd1e 	bne	r2,r3,20f8c <__alt_data_end+0xffff252c>
		IOWR(base, i, 0);
	}
	IOWR(base, 11, 128);
   20f98:	00802004 	movi	r2,128
   20f9c:	20800b35 	stwio	r2,44(r4)
	IOWR(base, 6, 1);
   20fa0:	00800044 	movi	r2,1
   20fa4:	20800635 	stwio	r2,24(r4)
	IOWR(base, 0, 1);
   20fa8:	20800035 	stwio	r2,0(r4)
   20fac:	f800283a 	ret

00020fb0 <fir_load_avg>:
}

void fir_load_avg(int base){
   20fb0:	20800704 	addi	r2,r4,28
   20fb4:	20c01004 	addi	r3,r4,64
	for (int i = 7; i < 7+9; i++){
		IOWR(base, i, 14);
   20fb8:	01400384 	movi	r5,14
   20fbc:	11400035 	stwio	r5,0(r2)
   20fc0:	10800104 	addi	r2,r2,4
	IOWR(base, 6, 1);
	IOWR(base, 0, 1);
}

void fir_load_avg(int base){
	for (int i = 7; i < 7+9; i++){
   20fc4:	10fffd1e 	bne	r2,r3,20fbc <__alt_data_end+0xffff255c>
		IOWR(base, i, 14);
	}
	IOWR(base, 6, 1);
   20fc8:	00800044 	movi	r2,1
   20fcc:	20800635 	stwio	r2,24(r4)
	IOWR(base, 0, 1);
   20fd0:	20800035 	stwio	r2,0(r4)
   20fd4:	f800283a 	ret

00020fd8 <fir_load_sobel>:
}


void fir_load_sobel(int base){
	IOWR(base, 7, -128);
   20fd8:	017fe004 	movi	r5,-128
   20fdc:	21400735 	stwio	r5,28(r4)
	IOWR(base, 8, 0);
   20fe0:	0007883a 	mov	r3,zero
   20fe4:	20c00835 	stwio	r3,32(r4)
	IOWR(base, 9, 128);
   20fe8:	00802004 	movi	r2,128
   20fec:	20800935 	stwio	r2,36(r4)
	IOWR(base, 10, -128);
   20ff0:	21400a35 	stwio	r5,40(r4)
	IOWR(base, 11, 0);
   20ff4:	20c00b35 	stwio	r3,44(r4)
	IOWR(base, 12, 128);
   20ff8:	20800c35 	stwio	r2,48(r4)
	IOWR(base, 13, -128);
   20ffc:	21400d35 	stwio	r5,52(r4)
	IOWR(base, 14, 0);
   21000:	20c00e35 	stwio	r3,56(r4)
	IOWR(base, 15, 128);
   21004:	20800f35 	stwio	r2,60(r4)

	IOWR(base, 6, 1);
   21008:	00800044 	movi	r2,1
   2100c:	20800635 	stwio	r2,24(r4)
	IOWR(base, 0, 1);
   21010:	20800035 	stwio	r2,0(r4)
   21014:	f800283a 	ret

00021018 <fir_load_inv_sobel>:

}

void fir_load_inv_sobel(int base){
	IOWR(base, 7, 128);
   21018:	01402004 	movi	r5,128
   2101c:	21400735 	stwio	r5,28(r4)
	IOWR(base, 8, 0);
   21020:	0007883a 	mov	r3,zero
   21024:	20c00835 	stwio	r3,32(r4)
	IOWR(base, 9, -128);
   21028:	00bfe004 	movi	r2,-128
   2102c:	20800935 	stwio	r2,36(r4)
	IOWR(base, 10, 128);
   21030:	21400a35 	stwio	r5,40(r4)
	IOWR(base, 11, 0);
   21034:	20c00b35 	stwio	r3,44(r4)
	IOWR(base, 12, -128);
   21038:	20800c35 	stwio	r2,48(r4)
	IOWR(base, 13, 128);
   2103c:	21400d35 	stwio	r5,52(r4)
	IOWR(base, 14, 0);
   21040:	20c00e35 	stwio	r3,56(r4)
	IOWR(base, 15, -128);
   21044:	20800f35 	stwio	r2,60(r4)

	IOWR(base, 6, 1);
   21048:	00800044 	movi	r2,1
   2104c:	20800635 	stwio	r2,24(r4)
	IOWR(base, 0, 1);
   21050:	20800035 	stwio	r2,0(r4)
   21054:	f800283a 	ret

00021058 <fir_load_vertical>:

}

void fir_load_vertical(int base){
	IOWR(base, 7, 0);
   21058:	0005883a 	mov	r2,zero
   2105c:	20800735 	stwio	r2,28(r4)
	IOWR(base, 8, 43);
   21060:	00c00ac4 	movi	r3,43
   21064:	20c00835 	stwio	r3,32(r4)
	IOWR(base, 9, 0);
   21068:	20800935 	stwio	r2,36(r4)
	IOWR(base, 10, 0);
   2106c:	20800a35 	stwio	r2,40(r4)
	IOWR(base, 11, 43);
   21070:	20c00b35 	stwio	r3,44(r4)
	IOWR(base, 12, 0);
   21074:	20800c35 	stwio	r2,48(r4)
	IOWR(base, 13, 0);
   21078:	20800d35 	stwio	r2,52(r4)
	IOWR(base, 14, 43);
   2107c:	20c00e35 	stwio	r3,56(r4)
	IOWR(base, 15, 0);
   21080:	20800f35 	stwio	r2,60(r4)

	IOWR(base, 6, 1);
   21084:	00800044 	movi	r2,1
   21088:	20800635 	stwio	r2,24(r4)
	IOWR(base, 0, 1);
   2108c:	20800035 	stwio	r2,0(r4)
   21090:	f800283a 	ret

00021094 <print_image>:

};


void print_image(){
   21094:	defffa04 	addi	sp,sp,-24
   21098:	dfc00515 	stw	ra,20(sp)
   2109c:	dd000415 	stw	r20,16(sp)
   210a0:	dcc00315 	stw	r19,12(sp)
   210a4:	dc800215 	stw	r18,8(sp)
   210a8:	dc400115 	stw	r17,4(sp)
   210ac:	dc000015 	stw	r16,0(sp)
	IOWR(PIXEL_BUFFER_0_BASE, 5000, 1);
   210b0:	00938804 	movi	r2,20000
   210b4:	00c00044 	movi	r3,1
   210b8:	10c00035 	stwio	r3,0(r2)
	usleep(10);
   210bc:	01000284 	movi	r4,10
   210c0:	00252380 	call	25238 <usleep>

	int count = 0;

	for(int y = 0; y <60; y++){
   210c4:	0023883a 	mov	r17,zero

void print_image(){
	IOWR(PIXEL_BUFFER_0_BASE, 5000, 1);
	usleep(10);

	int count = 0;
   210c8:	0029883a 	mov	r20,zero
	for(int y = 0; y <60; y++){
		for (int x = 0; x < 80; x++){
			alt_u32 pixel =(IORD(PIXEL_BUFFER_0_BASE, 64*x + y));
			alt_u8 chr = (alt_u8) ((pixel)& 0x0000007f);

			if (chr == '\n') chr--;
   210cc:	04800284 	movi	r18,10
			if(chr == ',') chr--;
   210d0:	04c00b04 	movi	r19,44
	IOWR(base, 0, 1);

};


void print_image(){
   210d4:	0021883a 	mov	r16,zero

	int count = 0;

	for(int y = 0; y <60; y++){
		for (int x = 0; x < 80; x++){
			alt_u32 pixel =(IORD(PIXEL_BUFFER_0_BASE, 64*x + y));
   210d8:	800491ba 	slli	r2,r16,6
   210dc:	1445883a 	add	r2,r2,r17
   210e0:	1085883a 	add	r2,r2,r2
   210e4:	1085883a 	add	r2,r2,r2
   210e8:	10800037 	ldwio	r2,0(r2)
			alt_u8 chr = (alt_u8) ((pixel)& 0x0000007f);
   210ec:	10801fcc 	andi	r2,r2,127
   210f0:	1009883a 	mov	r4,r2

			if (chr == '\n') chr--;
   210f4:	10803fcc 	andi	r2,r2,255
   210f8:	14800326 	beq	r2,r18,21108 <print_image+0x74>
			if(chr == ',') chr--;
   210fc:	14c0031e 	bne	r2,r19,2110c <print_image+0x78>
   21100:	01000ac4 	movi	r4,43
   21104:	00000106 	br	2110c <print_image+0x78>
	for(int y = 0; y <60; y++){
		for (int x = 0; x < 80; x++){
			alt_u32 pixel =(IORD(PIXEL_BUFFER_0_BASE, 64*x + y));
			alt_u8 chr = (alt_u8) ((pixel)& 0x0000007f);

			if (chr == '\n') chr--;
   21108:	01000244 	movi	r4,9
			if(chr == ',') chr--;

			alt_putchar(chr);
   2110c:	21003fcc 	andi	r4,r4,255
   21110:	00250b80 	call	250b8 <alt_putchar>

			count++;
   21114:	a5000044 	addi	r20,r20,1
			if (count == 60) {
   21118:	00800f04 	movi	r2,60
   2111c:	a0800f1e 	bne	r20,r2,2115c <print_image+0xc8>
				count = 0;
				if (y == 59 && x == 79){
   21120:	00800ec4 	movi	r2,59
   21124:	8880041e 	bne	r17,r2,21138 <print_image+0xa4>
   21128:	008013c4 	movi	r2,79
   2112c:	8080021e 	bne	r16,r2,21138 <print_image+0xa4>
					alt_putchar('\n');
   21130:	01000284 	movi	r4,10
   21134:	00000106 	br	2113c <print_image+0xa8>
				} else {
					alt_putchar(',');
   21138:	01000b04 	movi	r4,44
   2113c:	00250b80 	call	250b8 <alt_putchar>
				}
				while(alt_getchar() != 'A'){
   21140:	05001044 	movi	r20,65
   21144:	0024df80 	call	24df8 <alt_getchar>
   21148:	15000326 	beq	r2,r20,21158 <print_image+0xc4>
						usleep(1);
   2114c:	01000044 	movi	r4,1
   21150:	00252380 	call	25238 <usleep>
   21154:	003ffb06 	br	21144 <__alt_data_end+0xffff26e4>

			alt_putchar(chr);

			count++;
			if (count == 60) {
				count = 0;
   21158:	0029883a 	mov	r20,zero
	usleep(10);

	int count = 0;

	for(int y = 0; y <60; y++){
		for (int x = 0; x < 80; x++){
   2115c:	84000044 	addi	r16,r16,1
   21160:	00801404 	movi	r2,80
   21164:	80bfdc1e 	bne	r16,r2,210d8 <__alt_data_end+0xffff2678>
	IOWR(PIXEL_BUFFER_0_BASE, 5000, 1);
	usleep(10);

	int count = 0;

	for(int y = 0; y <60; y++){
   21168:	8c400044 	addi	r17,r17,1
   2116c:	00800f04 	movi	r2,60
   21170:	88bfd81e 	bne	r17,r2,210d4 <__alt_data_end+0xffff2674>
					}
			}
		}
	}

	IOWR(PIXEL_BUFFER_0_BASE, 5000, 0);
   21174:	00938804 	movi	r2,20000
   21178:	10000035 	stwio	zero,0(r2)

	return;
}
   2117c:	dfc00517 	ldw	ra,20(sp)
   21180:	dd000417 	ldw	r20,16(sp)
   21184:	dcc00317 	ldw	r19,12(sp)
   21188:	dc800217 	ldw	r18,8(sp)
   2118c:	dc400117 	ldw	r17,4(sp)
   21190:	dc000017 	ldw	r16,0(sp)
   21194:	dec00604 	addi	sp,sp,24
   21198:	f800283a 	ret

0002119c <print_wb_buffer>:

void print_wb_buffer(){
   2119c:	defff804 	addi	sp,sp,-32
   211a0:	dc000015 	stw	r16,0(sp)
	IOWR(PIXEL_BUFFER_WB_0_BASE, 5000, 1);
   211a4:	040000f4 	movhi	r16,3
	IOWR(PIXEL_BUFFER_0_BASE, 5000, 0);

	return;
}

void print_wb_buffer(){
   211a8:	dfc00715 	stw	ra,28(sp)
   211ac:	dd800615 	stw	r22,24(sp)
   211b0:	dd400515 	stw	r21,20(sp)
   211b4:	dd000415 	stw	r20,16(sp)
   211b8:	dcc00315 	stw	r19,12(sp)
   211bc:	dc800215 	stw	r18,8(sp)
   211c0:	dc400115 	stw	r17,4(sp)
	IOWR(PIXEL_BUFFER_WB_0_BASE, 5000, 1);
   211c4:	841f8804 	addi	r16,r16,32288
   211c8:	00800044 	movi	r2,1
   211cc:	80800035 	stwio	r2,0(r16)
		usleep(10);
   211d0:	01000284 	movi	r4,10

		for(int y = 0; y <15; y++){
			for (int x = 0; x < 20; x++){
				alt_u32 pixel =(IORD(PIXEL_BUFFER_WB_0_BASE, 16*x + y));
   211d4:	050000f4 	movhi	r20,3
	return;
}

void print_wb_buffer(){
	IOWR(PIXEL_BUFFER_WB_0_BASE, 5000, 1);
		usleep(10);
   211d8:	00252380 	call	25238 <usleep>
   211dc:	0023883a 	mov	r17,zero

		for(int y = 0; y <15; y++){
			for (int x = 0; x < 20; x++){
				alt_u32 pixel =(IORD(PIXEL_BUFFER_WB_0_BASE, 16*x + y));
   211e0:	a50c0004 	addi	r20,r20,12288
void print_wb_buffer(){
	IOWR(PIXEL_BUFFER_WB_0_BASE, 5000, 1);
		usleep(10);

		for(int y = 0; y <15; y++){
			for (int x = 0; x < 20; x++){
   211e4:	05414004 	movi	r21,1280

void print_wb_buffer(){
	IOWR(PIXEL_BUFFER_WB_0_BASE, 5000, 1);
		usleep(10);

		for(int y = 0; y <15; y++){
   211e8:	05800f04 	movi	r22,60
	IOWR(PIXEL_BUFFER_0_BASE, 5000, 0);

	return;
}

void print_wb_buffer(){
   211ec:	0025883a 	mov	r18,zero
	IOWR(PIXEL_BUFFER_WB_0_BASE, 5000, 1);
		usleep(10);

		for(int y = 0; y <15; y++){
			for (int x = 0; x < 20; x++){
				alt_u32 pixel =(IORD(PIXEL_BUFFER_WB_0_BASE, 16*x + y));
   211f0:	8d27883a 	add	r19,r17,r20
   211f4:	9c85883a 	add	r2,r19,r18
				printf("%x,", pixel);
   211f8:	11400037 	ldwio	r5,0(r2)
   211fc:	010000b4 	movhi	r4,2
   21200:	2115bf04 	addi	r4,r4,22268
   21204:	94801004 	addi	r18,r18,64
   21208:	0023cd80 	call	23cd8 <printf>
void print_wb_buffer(){
	IOWR(PIXEL_BUFFER_WB_0_BASE, 5000, 1);
		usleep(10);

		for(int y = 0; y <15; y++){
			for (int x = 0; x < 20; x++){
   2120c:	957ff91e 	bne	r18,r21,211f4 <__alt_data_end+0xffff2794>
				alt_u32 pixel =(IORD(PIXEL_BUFFER_WB_0_BASE, 16*x + y));
				printf("%x,", pixel);
			}

			alt_putchar('\n');
   21210:	01000284 	movi	r4,10
   21214:	8c400104 	addi	r17,r17,4
   21218:	00250b80 	call	250b8 <alt_putchar>

void print_wb_buffer(){
	IOWR(PIXEL_BUFFER_WB_0_BASE, 5000, 1);
		usleep(10);

		for(int y = 0; y <15; y++){
   2121c:	8dbff31e 	bne	r17,r22,211ec <__alt_data_end+0xffff278c>
			}

			alt_putchar('\n');
		}

		IOWR(PIXEL_BUFFER_WB_0_BASE, 5000, 0);
   21220:	80000035 	stwio	zero,0(r16)

}
   21224:	dfc00717 	ldw	ra,28(sp)
   21228:	dd800617 	ldw	r22,24(sp)
   2122c:	dd400517 	ldw	r21,20(sp)
   21230:	dd000417 	ldw	r20,16(sp)
   21234:	dcc00317 	ldw	r19,12(sp)
   21238:	dc800217 	ldw	r18,8(sp)
   2123c:	dc400117 	ldw	r17,4(sp)
   21240:	dc000017 	ldw	r16,0(sp)
   21244:	dec00804 	addi	sp,sp,32
   21248:	f800283a 	ret

0002124c <green_average>:

int green_average(){
	int sum = 0;
	for(int y = 0; y <15; y++){
		for (int x = 0; x < 20; x++){
			alt_u32 pixel =(IORD(PIXEL_BUFFER_WB_0_BASE, 16*x + y));
   2124c:	01c000f4 	movhi	r7,3

		IOWR(PIXEL_BUFFER_WB_0_BASE, 5000, 0);

}

int green_average(){
   21250:	0007883a 	mov	r3,zero
	int sum = 0;
   21254:	0009883a 	mov	r4,zero
	for(int y = 0; y <15; y++){
		for (int x = 0; x < 20; x++){
			alt_u32 pixel =(IORD(PIXEL_BUFFER_WB_0_BASE, 16*x + y));
   21258:	39cc0004 	addi	r7,r7,12288
}

int green_average(){
	int sum = 0;
	for(int y = 0; y <15; y++){
		for (int x = 0; x < 20; x++){
   2125c:	02014004 	movi	r8,1280

}

int green_average(){
	int sum = 0;
	for(int y = 0; y <15; y++){
   21260:	02400f04 	movi	r9,60

		IOWR(PIXEL_BUFFER_WB_0_BASE, 5000, 0);

}

int green_average(){
   21264:	000b883a 	mov	r5,zero
	int sum = 0;
	for(int y = 0; y <15; y++){
		for (int x = 0; x < 20; x++){
			alt_u32 pixel =(IORD(PIXEL_BUFFER_WB_0_BASE, 16*x + y));
   21268:	19cd883a 	add	r6,r3,r7
   2126c:	3145883a 	add	r2,r6,r5
   21270:	10800037 	ldwio	r2,0(r2)
			alt_u32 green = (pixel & 0x0000ff00) >> 8;
			sum += green;
   21274:	10bfc00c 	andi	r2,r2,65280
   21278:	1004d23a 	srli	r2,r2,8
   2127c:	29401004 	addi	r5,r5,64
   21280:	1109883a 	add	r4,r2,r4
}

int green_average(){
	int sum = 0;
	for(int y = 0; y <15; y++){
		for (int x = 0; x < 20; x++){
   21284:	2a3ff91e 	bne	r5,r8,2126c <__alt_data_end+0xffff280c>
   21288:	18c00104 	addi	r3,r3,4

}

int green_average(){
	int sum = 0;
	for(int y = 0; y <15; y++){
   2128c:	1a7ff51e 	bne	r3,r9,21264 <__alt_data_end+0xffff2804>

		IOWR(PIXEL_BUFFER_WB_0_BASE, 5000, 0);

}

int green_average(){
   21290:	deffff04 	addi	sp,sp,-4
			alt_u32 pixel =(IORD(PIXEL_BUFFER_WB_0_BASE, 16*x + y));
			alt_u32 green = (pixel & 0x0000ff00) >> 8;
			sum += green;
			}
		}
	return sum / (15*20);
   21294:	01404b04 	movi	r5,300

		IOWR(PIXEL_BUFFER_WB_0_BASE, 5000, 0);

}

int green_average(){
   21298:	dfc00015 	stw	ra,0(sp)
			alt_u32 pixel =(IORD(PIXEL_BUFFER_WB_0_BASE, 16*x + y));
			alt_u32 green = (pixel & 0x0000ff00) >> 8;
			sum += green;
			}
		}
	return sum / (15*20);
   2129c:	00238840 	call	23884 <__divsi3>
}
   212a0:	dfc00017 	ldw	ra,0(sp)
   212a4:	dec00104 	addi	sp,sp,4
   212a8:	f800283a 	ret

000212ac <red_average>:

int red_average(){
	int sum = 0;
	for(int y = 0; y <15; y++){
		for (int x = 0; x < 20; x++){
			alt_u32 pixel =(IORD(PIXEL_BUFFER_WB_0_BASE, 16*x + y));
   212ac:	01c000f4 	movhi	r7,3
			}
		}
	return sum / (15*20);
}

int red_average(){
   212b0:	0007883a 	mov	r3,zero
	int sum = 0;
   212b4:	0009883a 	mov	r4,zero
	for(int y = 0; y <15; y++){
		for (int x = 0; x < 20; x++){
			alt_u32 pixel =(IORD(PIXEL_BUFFER_WB_0_BASE, 16*x + y));
   212b8:	39cc0004 	addi	r7,r7,12288
}

int red_average(){
	int sum = 0;
	for(int y = 0; y <15; y++){
		for (int x = 0; x < 20; x++){
   212bc:	02014004 	movi	r8,1280
	return sum / (15*20);
}

int red_average(){
	int sum = 0;
	for(int y = 0; y <15; y++){
   212c0:	02400f04 	movi	r9,60
			}
		}
	return sum / (15*20);
}

int red_average(){
   212c4:	000b883a 	mov	r5,zero
	int sum = 0;
	for(int y = 0; y <15; y++){
		for (int x = 0; x < 20; x++){
			alt_u32 pixel =(IORD(PIXEL_BUFFER_WB_0_BASE, 16*x + y));
   212c8:	19cd883a 	add	r6,r3,r7
   212cc:	3145883a 	add	r2,r6,r5
   212d0:	10800037 	ldwio	r2,0(r2)
			alt_u32 red = (pixel & 0x00ff0000)>>16;
			sum += red;
   212d4:	10803fec 	andhi	r2,r2,255
   212d8:	1004d43a 	srli	r2,r2,16
   212dc:	29401004 	addi	r5,r5,64
   212e0:	1109883a 	add	r4,r2,r4
}

int red_average(){
	int sum = 0;
	for(int y = 0; y <15; y++){
		for (int x = 0; x < 20; x++){
   212e4:	2a3ff91e 	bne	r5,r8,212cc <__alt_data_end+0xffff286c>
   212e8:	18c00104 	addi	r3,r3,4
	return sum / (15*20);
}

int red_average(){
	int sum = 0;
	for(int y = 0; y <15; y++){
   212ec:	1a7ff51e 	bne	r3,r9,212c4 <__alt_data_end+0xffff2864>
			}
		}
	return sum / (15*20);
}

int red_average(){
   212f0:	deffff04 	addi	sp,sp,-4
			alt_u32 pixel =(IORD(PIXEL_BUFFER_WB_0_BASE, 16*x + y));
			alt_u32 red = (pixel & 0x00ff0000)>>16;
			sum += red;
			}
		}
	return sum / (15*20);
   212f4:	01404b04 	movi	r5,300
			}
		}
	return sum / (15*20);
}

int red_average(){
   212f8:	dfc00015 	stw	ra,0(sp)
			alt_u32 pixel =(IORD(PIXEL_BUFFER_WB_0_BASE, 16*x + y));
			alt_u32 red = (pixel & 0x00ff0000)>>16;
			sum += red;
			}
		}
	return sum / (15*20);
   212fc:	00238840 	call	23884 <__divsi3>
}
   21300:	dfc00017 	ldw	ra,0(sp)
   21304:	dec00104 	addi	sp,sp,4
   21308:	f800283a 	ret

0002130c <blue_average>:

int blue_average(){
	int sum = 0;
	for(int y = 0; y <15; y++){
		for (int x = 0; x < 20; x++){
			alt_u32 pixel =(IORD(PIXEL_BUFFER_WB_0_BASE, 16*x + y));
   2130c:	01c000f4 	movhi	r7,3
			}
		}
	return sum / (15*20);
}

int blue_average(){
   21310:	0005883a 	mov	r2,zero
	int sum = 0;
   21314:	0009883a 	mov	r4,zero
	for(int y = 0; y <15; y++){
		for (int x = 0; x < 20; x++){
			alt_u32 pixel =(IORD(PIXEL_BUFFER_WB_0_BASE, 16*x + y));
   21318:	39cc0004 	addi	r7,r7,12288
}

int blue_average(){
	int sum = 0;
	for(int y = 0; y <15; y++){
		for (int x = 0; x < 20; x++){
   2131c:	02014004 	movi	r8,1280
	return sum / (15*20);
}

int blue_average(){
	int sum = 0;
	for(int y = 0; y <15; y++){
   21320:	02400f04 	movi	r9,60
			}
		}
	return sum / (15*20);
}

int blue_average(){
   21324:	0007883a 	mov	r3,zero
	int sum = 0;
	for(int y = 0; y <15; y++){
		for (int x = 0; x < 20; x++){
			alt_u32 pixel =(IORD(PIXEL_BUFFER_WB_0_BASE, 16*x + y));
   21328:	11cd883a 	add	r6,r2,r7
   2132c:	30cb883a 	add	r5,r6,r3
   21330:	29400037 	ldwio	r5,0(r5)
			alt_u32 blue = pixel & 0x000000ff;
			sum += blue;
   21334:	29403fcc 	andi	r5,r5,255
   21338:	18c01004 	addi	r3,r3,64
   2133c:	2909883a 	add	r4,r5,r4
}

int blue_average(){
	int sum = 0;
	for(int y = 0; y <15; y++){
		for (int x = 0; x < 20; x++){
   21340:	1a3ffa1e 	bne	r3,r8,2132c <__alt_data_end+0xffff28cc>
   21344:	10800104 	addi	r2,r2,4
	return sum / (15*20);
}

int blue_average(){
	int sum = 0;
	for(int y = 0; y <15; y++){
   21348:	127ff61e 	bne	r2,r9,21324 <__alt_data_end+0xffff28c4>
			}
		}
	return sum / (15*20);
}

int blue_average(){
   2134c:	deffff04 	addi	sp,sp,-4
			alt_u32 pixel =(IORD(PIXEL_BUFFER_WB_0_BASE, 16*x + y));
			alt_u32 blue = pixel & 0x000000ff;
			sum += blue;
			}
		}
	return sum / (15*20);
   21350:	01404b04 	movi	r5,300
			}
		}
	return sum / (15*20);
}

int blue_average(){
   21354:	dfc00015 	stw	ra,0(sp)
			alt_u32 pixel =(IORD(PIXEL_BUFFER_WB_0_BASE, 16*x + y));
			alt_u32 blue = pixel & 0x000000ff;
			sum += blue;
			}
		}
	return sum / (15*20);
   21358:	00238840 	call	23884 <__divsi3>
}
   2135c:	dfc00017 	ldw	ra,0(sp)
   21360:	dec00104 	addi	sp,sp,4
   21364:	f800283a 	ret

00021368 <process_input>:
	static alt_u16  current_focus = 300;
	alt_u32 exposureTime = EXPOSURE_INIT;
	alt_u16 gain = GAIN_INIT;

	// touch KEY0 to trigger Auto focus
		   if((IORD(KEY_BASE,0)&0x03) == 0x02){
   21368:	00c000f4 	movhi	r3,3
#include "input.h"


void process_input(){
   2136c:	defffa04 	addi	sp,sp,-24
	static alt_u16  current_focus = 300;
	alt_u32 exposureTime = EXPOSURE_INIT;
	alt_u16 gain = GAIN_INIT;

	// touch KEY0 to trigger Auto focus
		   if((IORD(KEY_BASE,0)&0x03) == 0x02){
   21370:	18cf5804 	addi	r3,r3,15712
#include "input.h"


void process_input(){
   21374:	dfc00515 	stw	ra,20(sp)
   21378:	dcc00415 	stw	r19,16(sp)
   2137c:	dc800315 	stw	r18,12(sp)
   21380:	dc400215 	stw	r17,8(sp)
   21384:	dc000115 	stw	r16,4(sp)
	static alt_u16  current_focus = 300;
	alt_u32 exposureTime = EXPOSURE_INIT;
	alt_u16 gain = GAIN_INIT;

	// touch KEY0 to trigger Auto focus
		   if((IORD(KEY_BASE,0)&0x03) == 0x02){
   21388:	18800037 	ldwio	r2,0(r3)
   2138c:	04800084 	movi	r18,2
   21390:	108000cc 	andi	r2,r2,3
   21394:	1480081e 	bne	r2,r18,213b8 <process_input+0x50>
			   usleep(100000);
   21398:	010000b4 	movhi	r4,2
   2139c:	2121a804 	addi	r4,r4,-31072
   213a0:	00252380 	call	25238 <usleep>
	    	   current_focus = Focus_Window(320,240);
   213a4:	01403c04 	movi	r5,240
   213a8:	01005004 	movi	r4,320
   213ac:	0020e2c0 	call	20e2c <Focus_Window>
   213b0:	d0a0030d 	sth	r2,-32756(gp)
   213b4:	00007306 	br	21584 <process_input+0x21c>
	    	   usleep(100000);
	       }
		   // touch KEY1 with selected routine to run
		   else if ((IORD(KEY_BASE,0)&0x03) == 0x01){
   213b8:	1c400037 	ldwio	r17,0(r3)
   213bc:	00800044 	movi	r2,1
   213c0:	8c4000cc 	andi	r17,r17,3
   213c4:	8880721e 	bne	r17,r2,21590 <process_input+0x228>
	    	   int sw = (IORD(SW_BASE, 0)& 0x03FF);
   213c8:	008000f4 	movhi	r2,3
   213cc:	108f5c04 	addi	r2,r2,15728
   213d0:	14000037 	ldwio	r16,0(r2)
	    	   IOWR(LED_BASE,0,511);
   213d4:	04c000f4 	movhi	r19,3
   213d8:	9ccf6004 	addi	r19,r19,15744
   213dc:	00807fc4 	movi	r2,511
   213e0:	98800035 	stwio	r2,0(r19)
	    	   usleep(500000);
   213e4:	01000234 	movhi	r4,8
   213e8:	21284804 	addi	r4,r4,-24288
   213ec:	00252380 	call	25238 <usleep>
	    	   IOWR(LED_BASE,0,0);
   213f0:	98000035 	stwio	zero,0(r19)
	    	   usleep(500000);
   213f4:	01000234 	movhi	r4,8
   213f8:	21284804 	addi	r4,r4,-24288
   213fc:	00252380 	call	25238 <usleep>

	    	   switch(sw){
   21400:	8080ffcc 	andi	r2,r16,1023
   21404:	00c00184 	movi	r3,6
   21408:	10c05826 	beq	r2,r3,2156c <process_input+0x204>
   2140c:	18801016 	blt	r3,r2,21450 <process_input+0xe8>
   21410:	014000c4 	movi	r5,3
   21414:	11405126 	beq	r2,r5,2155c <process_input+0x1f4>
   21418:	28800516 	blt	r5,r2,21430 <process_input+0xc8>
   2141c:	14401c26 	beq	r2,r17,21490 <process_input+0x128>
   21420:	1480581e 	bne	r2,r18,21584 <process_input+0x21c>
				   case 1 : {
					   auto_gain(120 , 2);
					   break;
				   }case 2: {
					   auto_wb(120 , 3);
   21424:	01001e04 	movi	r4,120
   21428:	0020a700 	call	20a70 <auto_wb>
					   break;
   2142c:	00005506 	br	21584 <process_input+0x21c>
	    	   IOWR(LED_BASE,0,511);
	    	   usleep(500000);
	    	   IOWR(LED_BASE,0,0);
	    	   usleep(500000);

	    	   switch(sw){
   21430:	00c00104 	movi	r3,4
   21434:	10c01a26 	beq	r2,r3,214a0 <process_input+0x138>
   21438:	00c00144 	movi	r3,5
   2143c:	10c0511e 	bne	r2,r3,21584 <process_input+0x21c>
				   }case 3: {
					   fir_load_unit(FIR_0_0_BASE);
					   fir_load_unit(FIR_0_1_BASE);
					   break;
				   }case 5: {
					   fir_load_avg(FIR_0_0_BASE);
   21440:	010000f4 	movhi	r4,3
   21444:	210a0004 	addi	r4,r4,10240
   21448:	0020fb00 	call	20fb0 <fir_load_avg>
   2144c:	00004a06 	br	21578 <process_input+0x210>
	    	   IOWR(LED_BASE,0,511);
	    	   usleep(500000);
	    	   IOWR(LED_BASE,0,0);
	    	   usleep(500000);

	    	   switch(sw){
   21450:	00c04004 	movi	r3,256
   21454:	10c03926 	beq	r2,r3,2153c <process_input+0x1d4>
   21458:	18800516 	blt	r3,r2,21470 <process_input+0x108>
   2145c:	00c00204 	movi	r3,8
   21460:	10c01b26 	beq	r2,r3,214d0 <process_input+0x168>
   21464:	00c00404 	movi	r3,16
   21468:	10c02626 	beq	r2,r3,21504 <process_input+0x19c>
   2146c:	00004506 	br	21584 <process_input+0x21c>
   21470:	00c08004 	movi	r3,512
   21474:	10c03526 	beq	r2,r3,2154c <process_input+0x1e4>
   21478:	00c0c004 	movi	r3,768
   2147c:	10c0411e 	bne	r2,r3,21584 <process_input+0x21c>
				   }case 6: {
					   fir_load_sobel(FIR_0_0_BASE);
					   fir_load_unit(FIR_0_1_BASE);
					   break;
				   } case 768: {
					   one = !one;
   21480:	d0a08017 	ldw	r2,-32256(gp)
   21484:	1005003a 	cmpeq	r2,r2,zero
   21488:	d0a08015 	stw	r2,-32256(gp)
					   break;
   2148c:	00003d06 	br	21584 <process_input+0x21c>
	    	   IOWR(LED_BASE,0,0);
	    	   usleep(500000);

	    	   switch(sw){
				   case 1 : {
					   auto_gain(120 , 2);
   21490:	900b883a 	mov	r5,r18
   21494:	01001e04 	movi	r4,120
   21498:	00209440 	call	20944 <auto_gain>
					   break;
   2149c:	00003906 	br	21584 <process_input+0x21c>
				   }case 2: {
					   auto_wb(120 , 3);
					   break;
				   }case 4: {
					   IOWR(RGB_TO_HSV_BASE, HSV_ENABLED, ~(IORD(RGB_TO_HSV_BASE, HSV_ENABLED)&0x1));
   214a0:	00c000f4 	movhi	r3,3
   214a4:	18cee004 	addi	r3,r3,15232
   214a8:	18800037 	ldwio	r2,0(r3)
   214ac:	1080004c 	andi	r2,r2,1
   214b0:	0084303a 	nor	r2,zero,r2
   214b4:	18800035 	stwio	r2,0(r3)
					   if(print){
   214b8:	d0a07417 	ldw	r2,-32304(gp)
   214bc:	10003126 	beq	r2,zero,21584 <process_input+0x21c>
						   printf("HSV: %x\n", IORD(RGB_TO_HSV_BASE, HSV_ENABLED));
   214c0:	19400037 	ldwio	r5,0(r3)
   214c4:	010000b4 	movhi	r4,2
   214c8:	2115c004 	addi	r4,r4,22272
   214cc:	00000b06 	br	214fc <process_input+0x194>
					   }
					   break;
				   }case 8: {
					   IOWR(COLOR_FILTER_0_BASE, APPLY_MASK, ~(IORD(COLOR_FILTER_0_BASE, APPLY_MASK)&0x1));
   214d0:	00c000f4 	movhi	r3,3
   214d4:	18cf0204 	addi	r3,r3,15368
   214d8:	18800037 	ldwio	r2,0(r3)
   214dc:	1080004c 	andi	r2,r2,1
   214e0:	0084303a 	nor	r2,zero,r2
   214e4:	18800035 	stwio	r2,0(r3)
					   if(print){
   214e8:	d0a07417 	ldw	r2,-32304(gp)
   214ec:	10002526 	beq	r2,zero,21584 <process_input+0x21c>
						   printf("MASK:  %x\n", IORD(COLOR_FILTER_0_BASE, APPLY_MASK));
   214f0:	19400037 	ldwio	r5,0(r3)
   214f4:	010000b4 	movhi	r4,2
   214f8:	2115c304 	addi	r4,r4,22284
   214fc:	0023cd80 	call	23cd8 <printf>
   21500:	00002006 	br	21584 <process_input+0x21c>
					   }
					   break;
				   }case 16: {
					    IOWR(COM_COUNTER_0_BASE, THRESH_ENABLED, ~(IORD(COM_COUNTER_0_BASE, THRESH_ENABLED)&0x1));
   21504:	00c000f4 	movhi	r3,3
   21508:	18cef804 	addi	r3,r3,15328
   2150c:	18800037 	ldwio	r2,0(r3)
   21510:	1080004c 	andi	r2,r2,1
   21514:	0084303a 	nor	r2,zero,r2
   21518:	18800035 	stwio	r2,0(r3)

					   if(print){
   2151c:	d0a07417 	ldw	r2,-32304(gp)
   21520:	10001826 	beq	r2,zero,21584 <process_input+0x21c>
						   printf("Thresh:  %x\n", IORD(COLOR_FILTER_0_BASE, THRESH_ENABLED));
   21524:	008000f4 	movhi	r2,3
   21528:	108f0804 	addi	r2,r2,15392
   2152c:	11400037 	ldwio	r5,0(r2)
   21530:	010000b4 	movhi	r4,2
   21534:	2115c604 	addi	r4,r4,22296
   21538:	003ff006 	br	214fc <__alt_data_end+0xffff2a9c>
					   }
					   break;
				   }case 256: {
					   halt = !halt;
   2153c:	d0a08117 	ldw	r2,-32252(gp)
   21540:	1005003a 	cmpeq	r2,r2,zero
   21544:	d0a08115 	stw	r2,-32252(gp)
					   break;
   21548:	00000e06 	br	21584 <process_input+0x21c>
				   }case 512: {
					   slow = !slow;
   2154c:	d0a07817 	ldw	r2,-32288(gp)
   21550:	1005003a 	cmpeq	r2,r2,zero
   21554:	d0a07815 	stw	r2,-32288(gp)
					   break;
   21558:	00000a06 	br	21584 <process_input+0x21c>
				   }case 3: {
					   fir_load_unit(FIR_0_0_BASE);
   2155c:	010000f4 	movhi	r4,3
   21560:	210a0004 	addi	r4,r4,10240
   21564:	0020f840 	call	20f84 <fir_load_unit>
   21568:	00000306 	br	21578 <process_input+0x210>
				   }case 5: {
					   fir_load_avg(FIR_0_0_BASE);
					   fir_load_unit(FIR_0_1_BASE);
					   break;
				   }case 6: {
					   fir_load_sobel(FIR_0_0_BASE);
   2156c:	010000f4 	movhi	r4,3
   21570:	210a0004 	addi	r4,r4,10240
   21574:	0020fd80 	call	20fd8 <fir_load_sobel>
					   fir_load_unit(FIR_0_1_BASE);
   21578:	010000f4 	movhi	r4,3
   2157c:	21060004 	addi	r4,r4,6144
   21580:	0020f840 	call	20f84 <fir_load_unit>
					   one = !one;
					   break;
				   }
	    	   }

		   usleep(100000);
   21584:	010000b4 	movhi	r4,2
   21588:	2121a804 	addi	r4,r4,-31072
   2158c:	00252380 	call	25238 <usleep>

	       }

		   //Process input commands
		  int in = alt_getchar();
   21590:	0024df80 	call	24df8 <alt_getchar>
		  switch (in) {
   21594:	00c014c4 	movi	r3,83
   21598:	10c04926 	beq	r2,r3,216c0 <process_input+0x358>
   2159c:	18801c16 	blt	r3,r2,21610 <process_input+0x2a8>
   215a0:	00c01204 	movi	r3,72
   215a4:	10c03226 	beq	r2,r3,21670 <process_input+0x308>
   215a8:	18800d16 	blt	r3,r2,215e0 <process_input+0x278>
   215ac:	00c010c4 	movi	r3,67
   215b0:	10c04726 	beq	r2,r3,216d0 <process_input+0x368>
   215b4:	00c01104 	movi	r3,68
   215b8:	10c07b1e 	bne	r2,r3,217a8 <process_input+0x440>
							   alt_putchar(' ');
						   }
					   }
				   break;}
			   case 'D': {
					   printf("%x %x %x %x\n", stripe_count,  stripe_dist, stripe_pos_min, stripe_pos_max);
   215bc:	d0a07d17 	ldw	r2,-32268(gp)
   215c0:	d1e07c17 	ldw	r7,-32272(gp)
   215c4:	d1a07a17 	ldw	r6,-32280(gp)
   215c8:	d1608317 	ldw	r5,-32244(gp)
   215cc:	010000b4 	movhi	r4,2
   215d0:	d8800015 	stw	r2,0(sp)
   215d4:	2115cb04 	addi	r4,r4,22316
   215d8:	0023cd80 	call	23cd8 <printf>
				   break;}
   215dc:	00007206 	br	217a8 <process_input+0x440>

	       }

		   //Process input commands
		  int in = alt_getchar();
		  switch (in) {
   215e0:	00c01404 	movi	r3,80
   215e4:	10c01b26 	beq	r2,r3,21654 <process_input+0x2ec>
   215e8:	00c01484 	movi	r3,82
   215ec:	10c06e1e 	bne	r2,r3,217a8 <process_input+0x440>
			   case 'R': {
				   //Process request
				   print_observations(observations);
   215f0:	d1207717 	ldw	r4,-32292(gp)
				   OV8865_FOCUS_Move_to(current_focus);
				   //printf("\nFocus = %x ",current_focus);
				   break;}
		  	  };

}
   215f4:	dfc00517 	ldw	ra,20(sp)
   215f8:	dcc00417 	ldw	r19,16(sp)
   215fc:	dc800317 	ldw	r18,12(sp)
   21600:	dc400217 	ldw	r17,8(sp)
   21604:	dc000117 	ldw	r16,4(sp)
   21608:	dec00604 	addi	sp,sp,24
		   //Process input commands
		  int in = alt_getchar();
		  switch (in) {
			   case 'R': {
				   //Process request
				   print_observations(observations);
   2160c:	00236b81 	jmpi	236b8 <print_observations>

	       }

		   //Process input commands
		  int in = alt_getchar();
		  switch (in) {
   21610:	00c01984 	movi	r3,102
   21614:	10c05626 	beq	r2,r3,21770 <process_input+0x408>
   21618:	18800616 	blt	r3,r2,21634 <process_input+0x2cc>
   2161c:	00c01904 	movi	r3,100
   21620:	10c03c26 	beq	r2,r3,21714 <process_input+0x3ac>
   21624:	00c01944 	movi	r3,101
   21628:	10c05f1e 	bne	r2,r3,217a8 <process_input+0x440>
				   	Focus_Init();
					break;}

			   case 'e': {
				   exposureTime += EXPOSURE_STEP;
				   OV8865SetExposure(exposureTime);
   2162c:	0108c004 	movi	r4,8960
   21630:	00003906 	br	21718 <process_input+0x3b0>

	       }

		   //Process input commands
		  int in = alt_getchar();
		  switch (in) {
   21634:	00c01c84 	movi	r3,114
   21638:	10c04626 	beq	r2,r3,21754 <process_input+0x3ec>
   2163c:	00c01d04 	movi	r3,116
   21640:	10c03c26 	beq	r2,r3,21734 <process_input+0x3cc>
   21644:	00c019c4 	movi	r3,103
   21648:	10c0571e 	bne	r2,r3,217a8 <process_input+0x440>
				   OV8865SetGain(gain);
				   //printf("\nGain = %x ", gain);
				   break;}
			   case 'g': {
				   gain -= GAIN_STEP;
				   OV8865SetGain(gain);
   2164c:	01005004 	movi	r4,320
   21650:	00003906 	br	21738 <process_input+0x3d0>
				   OV8865_FOCUS_Move_to(current_focus);
				   //printf("\nFocus = %x ",current_focus);
				   break;}
		  	  };

}
   21654:	dfc00517 	ldw	ra,20(sp)
   21658:	dcc00417 	ldw	r19,16(sp)
   2165c:	dc800317 	ldw	r18,12(sp)
   21660:	dc400217 	ldw	r17,8(sp)
   21664:	dc000117 	ldw	r16,4(sp)
   21668:	dec00604 	addi	sp,sp,24
				   //Process request
				   print_observations(observations);
				   break;}
			   case 'P': {
				   //Process request
				   print_image();
   2166c:	00210941 	jmpi	21094 <print_image>
				   break;}

			   case 'H': {
					   for(int i = 0; i<20; i++){
						   alt_printf("%x ", histogram[i]);
   21670:	048000b4 	movhi	r18,2

	       }

		   //Process input commands
		  int in = alt_getchar();
		  switch (in) {
   21674:	0021883a 	mov	r16,zero
				   print_image();
				   break;}

			   case 'H': {
					   for(int i = 0; i<20; i++){
						   alt_printf("%x ", histogram[i]);
   21678:	94998304 	addi	r18,r18,26124
						   if( i == 19 ){
   2167c:	04c004c4 	movi	r19,19
				   //Process request
				   print_image();
				   break;}

			   case 'H': {
					   for(int i = 0; i<20; i++){
   21680:	04400504 	movi	r17,20
						   alt_printf("%x ", histogram[i]);
   21684:	8405883a 	add	r2,r16,r16
   21688:	1085883a 	add	r2,r2,r2
   2168c:	1485883a 	add	r2,r2,r18
   21690:	11400017 	ldw	r5,0(r2)
   21694:	010000b4 	movhi	r4,2
   21698:	2115ca04 	addi	r4,r4,22312
   2169c:	0024f480 	call	24f48 <alt_printf>
						   if( i == 19 ){
   216a0:	84c0021e 	bne	r16,r19,216ac <process_input+0x344>
							   alt_putchar('\n');
   216a4:	01000284 	movi	r4,10
   216a8:	00000106 	br	216b0 <process_input+0x348>
						   }else{
							   alt_putchar(' ');
   216ac:	01000804 	movi	r4,32
				   //Process request
				   print_image();
				   break;}

			   case 'H': {
					   for(int i = 0; i<20; i++){
   216b0:	84000044 	addi	r16,r16,1
						   alt_printf("%x ", histogram[i]);
						   if( i == 19 ){
							   alt_putchar('\n');
						   }else{
							   alt_putchar(' ');
   216b4:	00250b80 	call	250b8 <alt_putchar>
				   //Process request
				   print_image();
				   break;}

			   case 'H': {
					   for(int i = 0; i<20; i++){
   216b8:	847ff21e 	bne	r16,r17,21684 <__alt_data_end+0xffff2c24>
   216bc:	00003a06 	br	217a8 <process_input+0x440>
				   break;}
			   case 'D': {
					   printf("%x %x %x %x\n", stripe_count,  stripe_dist, stripe_pos_min, stripe_pos_max);
				   break;}
			   case 'S': {
				   halt = !halt;
   216c0:	d0a08117 	ldw	r2,-32252(gp)
   216c4:	1005003a 	cmpeq	r2,r2,zero
   216c8:	d0a08115 	stw	r2,-32252(gp)
				   break;}
   216cc:	00003606 	br	217a8 <process_input+0x440>
			   case 'C': {
				   //Autocalibration
				   	Focus_Init();
   216d0:	0020ce80 	call	20ce8 <Focus_Init>
				   	auto_gain(160,2);
   216d4:	01400084 	movi	r5,2
   216d8:	01002804 	movi	r4,160
   216dc:	00209440 	call	20944 <auto_gain>
				   	auto_wb(128 ,2);
   216e0:	01400084 	movi	r5,2
   216e4:	01002004 	movi	r4,128
   216e8:	0020a700 	call	20a70 <auto_wb>
				   	auto_gain(160,2);
   216ec:	01400084 	movi	r5,2
   216f0:	01002804 	movi	r4,160
   216f4:	00209440 	call	20944 <auto_gain>
				   OV8865_FOCUS_Move_to(current_focus);
				   //printf("\nFocus = %x ",current_focus);
				   break;}
		  	  };

}
   216f8:	dfc00517 	ldw	ra,20(sp)
   216fc:	dcc00417 	ldw	r19,16(sp)
   21700:	dc800317 	ldw	r18,12(sp)
   21704:	dc400217 	ldw	r17,8(sp)
   21708:	dc000117 	ldw	r16,4(sp)
   2170c:	dec00604 	addi	sp,sp,24
				   //Autocalibration
				   	Focus_Init();
				   	auto_gain(160,2);
				   	auto_wb(128 ,2);
				   	auto_gain(160,2);
				   	Focus_Init();
   21710:	0020ce81 	jmpi	20ce8 <Focus_Init>
				   OV8865SetExposure(exposureTime);
				   //printf("\nExposure = %x ", exposureTime);
				   break;}
			   case 'd': {
				   exposureTime -= EXPOSURE_STEP;
				   OV8865SetExposure(exposureTime);
   21714:	01084004 	movi	r4,8448
				   OV8865_FOCUS_Move_to(current_focus);
				   //printf("\nFocus = %x ",current_focus);
				   break;}
		  	  };

}
   21718:	dfc00517 	ldw	ra,20(sp)
   2171c:	dcc00417 	ldw	r19,16(sp)
   21720:	dc800317 	ldw	r18,12(sp)
   21724:	dc400217 	ldw	r17,8(sp)
   21728:	dc000117 	ldw	r16,4(sp)
   2172c:	dec00604 	addi	sp,sp,24
				   OV8865SetExposure(exposureTime);
				   //printf("\nExposure = %x ", exposureTime);
				   break;}
			   case 'd': {
				   exposureTime -= EXPOSURE_STEP;
				   OV8865SetExposure(exposureTime);
   21730:	0021e0c1 	jmpi	21e0c <OV8865SetExposure>
				   //printf("\nExposure = %x ", exposureTime);
				   break;}
			   case 't': {
				   gain += GAIN_STEP;
				   OV8865SetGain(gain);
   21734:	01007004 	movi	r4,448
				   OV8865_FOCUS_Move_to(current_focus);
				   //printf("\nFocus = %x ",current_focus);
				   break;}
		  	  };

}
   21738:	dfc00517 	ldw	ra,20(sp)
   2173c:	dcc00417 	ldw	r19,16(sp)
   21740:	dc800317 	ldw	r18,12(sp)
   21744:	dc400217 	ldw	r17,8(sp)
   21748:	dc000117 	ldw	r16,4(sp)
   2174c:	dec00604 	addi	sp,sp,24
				   OV8865SetGain(gain);
				   //printf("\nGain = %x ", gain);
				   break;}
			   case 'g': {
				   gain -= GAIN_STEP;
				   OV8865SetGain(gain);
   21750:	0021eb01 	jmpi	21eb0 <OV8865SetGain>
				   //printf("\nGain = %x ", gain);
				   break;}
			   case 'r': {
				   current_focus += manual_focus_step;
   21754:	d0a0030b 	ldhu	r2,-32756(gp)
				   if(current_focus >1023) current_focus = 1023;
   21758:	00c0ffc4 	movi	r3,1023
				   gain -= GAIN_STEP;
				   OV8865SetGain(gain);
				   //printf("\nGain = %x ", gain);
				   break;}
			   case 'r': {
				   current_focus += manual_focus_step;
   2175c:	10800c84 	addi	r2,r2,50
				   if(current_focus >1023) current_focus = 1023;
   21760:	113fffcc 	andi	r4,r2,65535
   21764:	1900072e 	bgeu	r3,r4,21784 <process_input+0x41c>
   21768:	d0e0030d 	sth	r3,-32756(gp)
   2176c:	00000606 	br	21788 <process_input+0x420>
				   OV8865_FOCUS_Move_to(current_focus);
				   //printf("\nFocus = %x ",current_focus);
				   break;}
			   case 'f': {
				   if(current_focus > manual_focus_step) current_focus -= manual_focus_step;
   21770:	d0a0030b 	ldhu	r2,-32756(gp)
   21774:	01000c84 	movi	r4,50
   21778:	10ffffcc 	andi	r3,r2,65535
   2177c:	20c0022e 	bgeu	r4,r3,21788 <process_input+0x420>
   21780:	10bff384 	addi	r2,r2,-50
   21784:	d0a0030d 	sth	r2,-32756(gp)
				   OV8865_FOCUS_Move_to(current_focus);
   21788:	d120030b 	ldhu	r4,-32756(gp)
				   //printf("\nFocus = %x ",current_focus);
				   break;}
		  	  };

}
   2178c:	dfc00517 	ldw	ra,20(sp)
   21790:	dcc00417 	ldw	r19,16(sp)
   21794:	dc800317 	ldw	r18,12(sp)
   21798:	dc400217 	ldw	r17,8(sp)
   2179c:	dc000117 	ldw	r16,4(sp)
   217a0:	dec00604 	addi	sp,sp,24
				   OV8865_FOCUS_Move_to(current_focus);
				   //printf("\nFocus = %x ",current_focus);
				   break;}
			   case 'f': {
				   if(current_focus > manual_focus_step) current_focus -= manual_focus_step;
				   OV8865_FOCUS_Move_to(current_focus);
   217a4:	0021d941 	jmpi	21d94 <OV8865_FOCUS_Move_to>
				   //printf("\nFocus = %x ",current_focus);
				   break;}
		  	  };

}
   217a8:	dfc00517 	ldw	ra,20(sp)
   217ac:	dcc00417 	ldw	r19,16(sp)
   217b0:	dc800317 	ldw	r18,12(sp)
   217b4:	dc400217 	ldw	r17,8(sp)
   217b8:	dc000117 	ldw	r16,4(sp)
   217bc:	dec00604 	addi	sp,sp,24
   217c0:	f800283a 	ret

000217c4 <get_building_hist>:



void get_building_hist(){

	fir_load_sobel(FIR_0_0_BASE);
   217c4:	010000f4 	movhi	r4,3
#include "global.h"




void get_building_hist(){
   217c8:	defffb04 	addi	sp,sp,-20

	fir_load_sobel(FIR_0_0_BASE);
   217cc:	210a0004 	addi	r4,r4,10240
#include "global.h"




void get_building_hist(){
   217d0:	dfc00415 	stw	ra,16(sp)
   217d4:	dcc00315 	stw	r19,12(sp)
   217d8:	dc800215 	stw	r18,8(sp)
   217dc:	dc400115 	stw	r17,4(sp)
   217e0:	dc000015 	stw	r16,0(sp)

	fir_load_sobel(FIR_0_0_BASE);
   217e4:	0020fd80 	call	20fd8 <fir_load_sobel>
	IOWR(COM_COUNTER_0_BASE, THRESH_Y, 64);
   217e8:	008000f4 	movhi	r2,3
   217ec:	108ef904 	addi	r2,r2,15332
   217f0:	00c01004 	movi	r3,64
   217f4:	10c00035 	stwio	r3,0(r2)
	IOWR(COLOR_FILTER_0_BASE, APPLY_MASK, 0);
   217f8:	008000f4 	movhi	r2,3
   217fc:	108f0204 	addi	r2,r2,15368
   21800:	10000035 	stwio	zero,0(r2)
	wait_sop();
	wait_eop();

	for (int i = 0; i<20; i++){
		histogram[i] = IORD(EDGE_BINS_0_BASE, i);
   21804:	04bfff74 	movhi	r18,65533
   21808:	044000b4 	movhi	r17,2
void get_building_hist(){

	fir_load_sobel(FIR_0_0_BASE);
	IOWR(COM_COUNTER_0_BASE, THRESH_Y, 64);
	IOWR(COLOR_FILTER_0_BASE, APPLY_MASK, 0);
	wait_sop();
   2180c:	00238800 	call	23880 <wait_sop>
	wait_eop();

	for (int i = 0; i<20; i++){
   21810:	0021883a 	mov	r16,zero

	fir_load_sobel(FIR_0_0_BASE);
	IOWR(COM_COUNTER_0_BASE, THRESH_Y, 64);
	IOWR(COLOR_FILTER_0_BASE, APPLY_MASK, 0);
	wait_sop();
	wait_eop();
   21814:	00238780 	call	23878 <wait_eop>
   21818:	04f38014 	movui	r19,52736

	for (int i = 0; i<20; i++){
		histogram[i] = IORD(EDGE_BINS_0_BASE, i);
   2181c:	94b20004 	addi	r18,r18,-14336
   21820:	8c598304 	addi	r17,r17,26124
   21824:	84c5883a 	add	r2,r16,r19
   21828:	1085883a 	add	r2,r2,r2
   2182c:	1085883a 	add	r2,r2,r2
   21830:	11800037 	ldwio	r6,0(r2)
		alt_printf("Bin %x: %x \n", i, histogram[i]);
   21834:	010000b4 	movhi	r4,2
	IOWR(COLOR_FILTER_0_BASE, APPLY_MASK, 0);
	wait_sop();
	wait_eop();

	for (int i = 0; i<20; i++){
		histogram[i] = IORD(EDGE_BINS_0_BASE, i);
   21838:	1485883a 	add	r2,r2,r18
   2183c:	1445883a 	add	r2,r2,r17
   21840:	11800015 	stw	r6,0(r2)
		alt_printf("Bin %x: %x \n", i, histogram[i]);
   21844:	800b883a 	mov	r5,r16
   21848:	2115cf04 	addi	r4,r4,22332
   2184c:	0024f480 	call	24f48 <alt_printf>
	IOWR(COM_COUNTER_0_BASE, THRESH_Y, 64);
	IOWR(COLOR_FILTER_0_BASE, APPLY_MASK, 0);
	wait_sop();
	wait_eop();

	for (int i = 0; i<20; i++){
   21850:	84000044 	addi	r16,r16,1
   21854:	00800504 	movi	r2,20
   21858:	80bff21e 	bne	r16,r2,21824 <__alt_data_end+0xffff2dc4>
		alt_printf("Bin %x: %x \n", i, histogram[i]);
	}

	//fir_load_avg();
	return;
}
   2185c:	dfc00417 	ldw	ra,16(sp)
   21860:	dcc00317 	ldw	r19,12(sp)
   21864:	dc800217 	ldw	r18,8(sp)
   21868:	dc400117 	ldw	r17,4(sp)
   2186c:	dc000017 	ldw	r16,0(sp)
   21870:	dec00504 	addi	sp,sp,20
   21874:	f800283a 	ret

00021878 <main>:



int main(){
   21878:	defffc04 	addi	sp,sp,-16

	print = 0;
	IOWR(LED_BASE, 0, 0);
   2187c:	008000f4 	movhi	r2,3
	return;
}



int main(){
   21880:	dfc00315 	stw	ra,12(sp)
   21884:	dc800215 	stw	r18,8(sp)
   21888:	dc400115 	stw	r17,4(sp)
   2188c:	dc000015 	stw	r16,0(sp)

	print = 0;
   21890:	d0207415 	stw	zero,-32304(gp)
	IOWR(LED_BASE, 0, 0);
   21894:	108f6004 	addi	r2,r2,15744
   21898:	10000035 	stwio	zero,0(r2)

	//Sets stdin to nonblocking
	fcntl(STDIN_FILENO, F_SETFL, O_NONBLOCK);
   2189c:	01900004 	movi	r6,16384
   218a0:	01400104 	movi	r5,4
   218a4:	0009883a 	mov	r4,zero
   218a8:	0024d400 	call	24d40 <fcntl>
	if (print){
   218ac:	d0a07417 	ldw	r2,-32304(gp)
   218b0:	10000326 	beq	r2,zero,218c0 <main+0x48>
		printf("Imperial College EEE2 Project version\n");
   218b4:	010000b4 	movhi	r4,2
   218b8:	2115d304 	addi	r4,r4,22348
   218bc:	0023dc80 	call	23dc8 <puts>
	}
  IOWR(MIPI_PWDN_N_BASE, 0x00, 0x00);
   218c0:	048000f4 	movhi	r18,3
   218c4:	948f5004 	addi	r18,r18,15680
   218c8:	90000035 	stwio	zero,0(r18)
  IOWR(MIPI_RESET_N_BASE, 0x00, 0x00);
   218cc:	040000f4 	movhi	r16,3
   218d0:	840f5404 	addi	r16,r16,15696
   218d4:	80000035 	stwio	zero,0(r16)

  usleep(2000);
   218d8:	0101f404 	movi	r4,2000
   218dc:	00252380 	call	25238 <usleep>
  IOWR(MIPI_PWDN_N_BASE, 0x00, 0xFF);
   218e0:	04403fc4 	movi	r17,255
   218e4:	94400035 	stwio	r17,0(r18)
  usleep(2000);
   218e8:	0101f404 	movi	r4,2000
   218ec:	00252380 	call	25238 <usleep>
  IOWR(MIPI_RESET_N_BASE, 0x00, 0xFF);
   218f0:	84400035 	stwio	r17,0(r16)

  usleep(2000);
   218f4:	0101f404 	movi	r4,2000
   218f8:	00252380 	call	25238 <usleep>


  // MIPI Init
   if (!MIPI_Init() & print){
   218fc:	00227f80 	call	227f8 <MIPI_Init>
   21900:	d0e07417 	ldw	r3,-32304(gp)
   21904:	1005003a 	cmpeq	r2,r2,zero
   21908:	10c4703a 	and	r2,r2,r3
   2190c:	10000326 	beq	r2,zero,2191c <main+0xa4>
	  printf("MIPI_Init Init failed!\r\n");
   21910:	010000b4 	movhi	r4,2
   21914:	2115dd04 	addi	r4,r4,22388
   21918:	0023dc80 	call	23dc8 <puts>
  }

	mipi_clear_error();
   2191c:	00225740 	call	22574 <mipi_clear_error>
	usleep(50*1000);
   21920:	0130d414 	movui	r4,50000
   21924:	00252380 	call	25238 <usleep>
	mipi_clear_error();
   21928:	00225740 	call	22574 <mipi_clear_error>
	usleep(1000*1000);
   2192c:	010003f4 	movhi	r4,15
   21930:	21109004 	addi	r4,r4,16960
   21934:	00252380 	call	25238 <usleep>
	mipi_show_error_info();
   21938:	00226200 	call	22620 <mipi_show_error_info>
	printf("\n");
   2193c:	01000284 	movi	r4,10
   21940:	0023d2c0 	call	23d2c <putchar>

	fir_load_unit(FIR_0_0_BASE);
   21944:	010000f4 	movhi	r4,3
   21948:	210a0004 	addi	r4,r4,10240
   2194c:	0020f840 	call	20f84 <fir_load_unit>
	fir_load_unit(FIR_0_1_BASE);
   21950:	010000f4 	movhi	r4,3
   21954:	21060004 	addi	r4,r4,6144
   21958:	0020f840 	call	20f84 <fir_load_unit>
	fir_load_unit(FIR_1_BASE);
   2195c:	010000f4 	movhi	r4,3
   21960:	21080004 	addi	r4,r4,8192
   21964:	0020f840 	call	20f84 <fir_load_unit>
	fir_load_unit(FIR_2_BASE);
   21968:	010000f4 	movhi	r4,3
   2196c:	21040004 	addi	r4,r4,4096
   21970:	0020f840 	call	20f84 <fir_load_unit>

//Camera parameters initialization
//////////////////////////////////////////////////////////
	OV8865SetExposure(EXPOSURE_INIT);
   21974:	01088004 	movi	r4,8704
   21978:	0021e0c0 	call	21e0c <OV8865SetExposure>

	//Selective initialization
	int sw = (IORD(SW_BASE, 0)& 0x03FF);
   2197c:	008000f4 	movhi	r2,3
   21980:	108f5c04 	addi	r2,r2,15728
   21984:	14000037 	ldwio	r16,0(r2)
	if(sw == 1){
   21988:	00800044 	movi	r2,1
//Camera parameters initialization
//////////////////////////////////////////////////////////
	OV8865SetExposure(EXPOSURE_INIT);

	//Selective initialization
	int sw = (IORD(SW_BASE, 0)& 0x03FF);
   2198c:	8400ffcc 	andi	r16,r16,1023
	if(sw == 1){
   21990:	80800a1e 	bne	r16,r2,219bc <main+0x144>
		//Marco's place calibration
		OV8865SetGain(603);
   21994:	010096c4 	movi	r4,603
   21998:	0021eb00 	call	21eb0 <OV8865SetGain>
		OV8865SetRedGain(1000);
   2199c:	0100fa04 	movi	r4,1000
   219a0:	0021fa80 	call	21fa8 <OV8865SetRedGain>
		OV8865SetGreenGain(894);
   219a4:	0100df84 	movi	r4,894
   219a8:	00220500 	call	22050 <OV8865SetGreenGain>
		OV8865SetBlueGain(1927);
   219ac:	0101e1c4 	movi	r4,1927
   219b0:	00220e00 	call	220e0 <OV8865SetBlueGain>

		//Initialize observation data structures
		observations = initialize_observations_marco();
   219b4:	00234980 	call	23498 <initialize_observations_marco>
   219b8:	00001606 	br	21a14 <main+0x19c>
	}else if(sw == 2){
   219bc:	00800084 	movi	r2,2
   219c0:	80800b1e 	bne	r16,r2,219f0 <main+0x178>
			auto_gain(160,2);
   219c4:	800b883a 	mov	r5,r16
   219c8:	01002804 	movi	r4,160
   219cc:	00209440 	call	20944 <auto_gain>
			auto_wb(128 ,2);
   219d0:	800b883a 	mov	r5,r16
   219d4:	01002004 	movi	r4,128
   219d8:	0020a700 	call	20a70 <auto_wb>
			auto_gain(160,2);
   219dc:	800b883a 	mov	r5,r16
   219e0:	01002804 	movi	r4,160
   219e4:	00209440 	call	20944 <auto_gain>
			Focus_Init();
   219e8:	0020ce80 	call	20ce8 <Focus_Init>
   219ec:	00000806 	br	21a10 <main+0x198>
			//Initialize observation data structures
			observations = initialize_observations();
	}else{
		//Lab calibration
		OV8865SetGain(1224);
   219f0:	01013204 	movi	r4,1224
   219f4:	0021eb00 	call	21eb0 <OV8865SetGain>
		OV8865SetRedGain(930);
   219f8:	0100e884 	movi	r4,930
   219fc:	0021fa80 	call	21fa8 <OV8865SetRedGain>
		OV8865SetGreenGain(760);
   21a00:	0100be04 	movi	r4,760
   21a04:	00220500 	call	22050 <OV8865SetGreenGain>
		OV8865SetBlueGain(1222);
   21a08:	01013184 	movi	r4,1222
   21a0c:	00220e00 	call	220e0 <OV8865SetBlueGain>

		//Initialize observation data structures
		observations = initialize_observations();
   21a10:	00233400 	call	23340 <initialize_observations>
   21a14:	d0a07715 	stw	r2,-32292(gp)

////////////////////////////////////////////////////////////////


	//Apply HSV transform
	IOWR(RGB_TO_HSV_BASE, HSV_ENABLED, 0x0);
   21a18:	008000f4 	movhi	r2,3
   21a1c:	108ee004 	addi	r2,r2,15232
   21a20:	10000035 	stwio	zero,0(r2)

	//Color filter setup
	IOWR(COLOR_FILTER_0_BASE, APPLY_MASK, 0);
   21a24:	008000f4 	movhi	r2,3
   21a28:	108f0204 	addi	r2,r2,15368
   21a2c:	10000035 	stwio	zero,0(r2)

	//COM counter setup
	IOWR(COM_COUNTER_0_BASE, THRESH_ENABLED, 0);
   21a30:	008000f4 	movhi	r2,3
   21a34:	108ef804 	addi	r2,r2,15328
   21a38:	10000035 	stwio	zero,0(r2)
	IOWR(COM_COUNTER_0_BASE, THRESH_Y, 140);
   21a3c:	008000f4 	movhi	r2,3
   21a40:	108ef904 	addi	r2,r2,15332
   21a44:	00c02304 	movi	r3,140
   21a48:	10c00035 	stwio	r3,0(r2)
	IOWR(COM_COUNTER_0_BASE, THRESH_X, 10);
   21a4c:	008000f4 	movhi	r2,3
   21a50:	108efa04 	addi	r2,r2,15336
   21a54:	00c00284 	movi	r3,10
   21a58:	10c00035 	stwio	r3,0(r2)
	IOWR(COM_COUNTER_0_BASE, THRESH_Y_MAX, 470);
   21a5c:	008000f4 	movhi	r2,3
   21a60:	108efb04 	addi	r2,r2,15340
   21a64:	00c07584 	movi	r3,470
   21a68:	10c00035 	stwio	r3,0(r2)
	IOWR(COM_COUNTER_0_BASE, THRESH_X_MAX, 630);
   21a6c:	008000f4 	movhi	r2,3
   21a70:	108efc04 	addi	r2,r2,15344
   21a74:	00c09d84 	movi	r3,630
   21a78:	10c00035 	stwio	r3,0(r2)

	//Force disable center dots
	IOWR(PIXEL_GRABBER_HSV_BASE, GRAB_INDICATOR, 0);
   21a7c:	008000f4 	movhi	r2,3
   21a80:	108ec204 	addi	r2,r2,15112
   21a84:	10000035 	stwio	zero,0(r2)
	IOWR(PIXEL_GRABBER_RGB_BASE, GRAB_INDICATOR, 0);
   21a88:	008000f4 	movhi	r2,3
   21a8c:	108ed204 	addi	r2,r2,15176
   21a90:	10000035 	stwio	zero,0(r2)


	fir_load_unit(FIR_0_0_BASE);
   21a94:	010000f4 	movhi	r4,3
   21a98:	210a0004 	addi	r4,r4,10240
   21a9c:	0020f840 	call	20f84 <fir_load_unit>

	//Focus initialization
	Focus_Init();
   21aa0:	0020ce80 	call	20ce8 <Focus_Init>
	OV8865_FOCUS_Move_to(300);
   21aa4:	01004b04 	movi	r4,300
   21aa8:	0021d940 	call	21d94 <OV8865_FOCUS_Move_to>

	usleep(100000);
   21aac:	010000b4 	movhi	r4,2
   21ab0:	2121a804 	addi	r4,r4,-31072
   21ab4:	00252380 	call	25238 <usleep>

	delay = 40000;
   21ab8:	00a71014 	movui	r2,40000
   21abc:	d0a07f15 	stw	r2,-32260(gp)
	halt = 0;
	slow = 0;
	observation_idx = 0;
	number_observations = 8;
   21ac0:	00800204 	movi	r2,8
   21ac4:	d0a07e15 	stw	r2,-32264(gp)

	  	  process_input();

	  	  if(print){
				//Read Pixel Grab
			   rgb = IORD(PIXEL_GRABBER_RGB_BASE, GRAB_VALUE);
   21ac8:	040000f4 	movhi	r16,3
	delay = 40000;
	halt = 0;
	slow = 0;
	observation_idx = 0;
	number_observations = 8;
	one = 1;
   21acc:	00800044 	movi	r2,1
	  	  process_input();

	  	  if(print){
				//Read Pixel Grab
			   rgb = IORD(PIXEL_GRABBER_RGB_BASE, GRAB_VALUE);
			   hsv = IORD(PIXEL_GRABBER_HSV_BASE, GRAB_VALUE);
   21ad0:	044000f4 	movhi	r17,3
	OV8865_FOCUS_Move_to(300);

	usleep(100000);

	delay = 40000;
	halt = 0;
   21ad4:	d0208115 	stw	zero,-32252(gp)
	slow = 0;
   21ad8:	d0207815 	stw	zero,-32288(gp)
	observation_idx = 0;
   21adc:	d0207b15 	stw	zero,-32276(gp)
	number_observations = 8;
	one = 1;
   21ae0:	d0a08015 	stw	r2,-32256(gp)
	frames_elapsed  = 0;
   21ae4:	d0207515 	stw	zero,-32300(gp)

	  	  process_input();

	  	  if(print){
				//Read Pixel Grab
			   rgb = IORD(PIXEL_GRABBER_RGB_BASE, GRAB_VALUE);
   21ae8:	840ed104 	addi	r16,r16,15172
			   hsv = IORD(PIXEL_GRABBER_HSV_BASE, GRAB_VALUE);
   21aec:	8c4ec104 	addi	r17,r17,15108
	  		  //printf("Pre-pipe: %x\n", IORD(PIXEL_GRABBER_RGB_0_BASE,1));
	  		  //printf("Post mask: %x\n", IORD(PIXEL_GRABBER_RGB_2_BASE,1));
	  		 // printf("Post filter: %x\n", IORD(PIXEL_GRABBER_RGB_3_BASE,1));
	  	  }

	  	  process_input();
   21af0:	00213680 	call	21368 <process_input>

	  	  if(print){
   21af4:	d0a07417 	ldw	r2,-32304(gp)
   21af8:	10000d26 	beq	r2,zero,21b30 <main+0x2b8>
				//Read Pixel Grab
			   rgb = IORD(PIXEL_GRABBER_RGB_BASE, GRAB_VALUE);
   21afc:	81000037 	ldwio	r4,0(r16)
   21b00:	d1207615 	stw	r4,-32296(gp)
			   hsv = IORD(PIXEL_GRABBER_HSV_BASE, GRAB_VALUE);
   21b04:	89400037 	ldwio	r5,0(r17)
   21b08:	d1607915 	stw	r5,-32284(gp)
			   print_as_rgb(rgb, hsv);
   21b0c:	00237e00 	call	237e0 <print_as_rgb>

			printf("Collecting %c \n", observations[observation_idx].code );
   21b10:	d0a07b17 	ldw	r2,-32276(gp)
   21b14:	d0e07717 	ldw	r3,-32292(gp)
   21b18:	010000b4 	movhi	r4,2
   21b1c:	10800b24 	muli	r2,r2,44
   21b20:	2115e304 	addi	r4,r4,22412
   21b24:	1885883a 	add	r2,r3,r2
   21b28:	11400007 	ldb	r5,0(r2)
   21b2c:	0023cd80 	call	23cd8 <printf>
			}

	  	if (one) one_pipeline();
   21b30:	d0a08017 	ldw	r2,-32256(gp)
   21b34:	10000226 	beq	r2,zero,21b40 <main+0x2c8>
   21b38:	00228800 	call	22880 <one_pipeline>
   21b3c:	003fec06 	br	21af0 <__alt_data_end+0xffff3090>
	  	else three_pipelines();
   21b40:	0022ca40 	call	22ca4 <three_pipelines>
   21b44:	003fea06 	br	21af0 <__alt_data_end+0xffff3090>

00021b48 <nSWAP16>:
	//y =  (((x) >> 8) & 0xff) | (((x) & 0xff) << 8);

//	y = x;
	y = (x >> 8) & 0x00ff;
	y |= (x << 8) & 0xff00;
	return y;
   21b48:	2004923a 	slli	r2,r4,8
   21b4c:	213fffcc 	andi	r4,r4,65535
   21b50:	2008d23a 	srli	r4,r4,8
}
   21b54:	1104b03a 	or	r2,r2,r4
   21b58:	f800283a 	ret

00021b5c <MipiBridgeRegWrite>:


void MipiBridgeRegWrite(alt_u16 Addr, alt_u16 Value){
   21b5c:	defffd04 	addi	sp,sp,-12
	const alt_u8 device_address = MIPI_BRIDGE_I2C_ADDR;
	OC_I2CL_Write(I2C_OPENCORES_MIPI_BASE, device_address, Addr, (alt_u8 *)&Value, sizeof(Value));
   21b60:	21bfffcc 	andi	r6,r4,65535
   21b64:	00800084 	movi	r2,2
   21b68:	010000f4 	movhi	r4,3
	y |= (x << 8) & 0xff00;
	return y;
}


void MipiBridgeRegWrite(alt_u16 Addr, alt_u16 Value){
   21b6c:	d940010d 	sth	r5,4(sp)
	const alt_u8 device_address = MIPI_BRIDGE_I2C_ADDR;
	OC_I2CL_Write(I2C_OPENCORES_MIPI_BASE, device_address, Addr, (alt_u8 *)&Value, sizeof(Value));
   21b70:	d8800015 	stw	r2,0(sp)
   21b74:	d9c00104 	addi	r7,sp,4
   21b78:	01400704 	movi	r5,28
   21b7c:	210f4004 	addi	r4,r4,15616
	y |= (x << 8) & 0xff00;
	return y;
}


void MipiBridgeRegWrite(alt_u16 Addr, alt_u16 Value){
   21b80:	dfc00215 	stw	ra,8(sp)
	const alt_u8 device_address = MIPI_BRIDGE_I2C_ADDR;
	OC_I2CL_Write(I2C_OPENCORES_MIPI_BASE, device_address, Addr, (alt_u8 *)&Value, sizeof(Value));
   21b84:	00206240 	call	20624 <OC_I2CL_Write>
}
   21b88:	dfc00217 	ldw	ra,8(sp)
   21b8c:	dec00304 	addi	sp,sp,12
   21b90:	f800283a 	ret

00021b94 <MipiBridgeRegRead>:

alt_u16 MipiBridgeRegRead(alt_u16 Addr){
   21b94:	defffd04 	addi	sp,sp,-12
	alt_u16 Value,tValue;
	const alt_u8 device_address = MIPI_BRIDGE_I2C_ADDR;

	OC_I2CL_Read(I2C_OPENCORES_MIPI_BASE,device_address, Addr,(alt_u8 *)&Value,sizeof(Value));
   21b98:	21bfffcc 	andi	r6,r4,65535
   21b9c:	00800084 	movi	r2,2
   21ba0:	010000f4 	movhi	r4,3
   21ba4:	d8800015 	stw	r2,0(sp)
   21ba8:	d9c00104 	addi	r7,sp,4
   21bac:	01400704 	movi	r5,28
   21bb0:	210f4004 	addi	r4,r4,15616
void MipiBridgeRegWrite(alt_u16 Addr, alt_u16 Value){
	const alt_u8 device_address = MIPI_BRIDGE_I2C_ADDR;
	OC_I2CL_Write(I2C_OPENCORES_MIPI_BASE, device_address, Addr, (alt_u8 *)&Value, sizeof(Value));
}

alt_u16 MipiBridgeRegRead(alt_u16 Addr){
   21bb4:	dfc00215 	stw	ra,8(sp)
	alt_u16 Value,tValue;
	const alt_u8 device_address = MIPI_BRIDGE_I2C_ADDR;

	OC_I2CL_Read(I2C_OPENCORES_MIPI_BASE,device_address, Addr,(alt_u8 *)&Value,sizeof(Value));
   21bb8:	00207840 	call	20784 <OC_I2CL_Read>

	tValue = nSWAP16(Value);

	return (tValue);
   21bbc:	d8c0010b 	ldhu	r3,4(sp)
   21bc0:	1804923a 	slli	r2,r3,8
   21bc4:	1806d23a 	srli	r3,r3,8
}
   21bc8:	10c4b03a 	or	r2,r2,r3
   21bcc:	dfc00217 	ldw	ra,8(sp)
   21bd0:	dec00304 	addi	sp,sp,12
   21bd4:	f800283a 	ret

00021bd8 <MipiBridgeInit>:
void MipiBridgeInit(void){

	alt_u16 data;
    int i, num;

    if (print){
   21bd8:	d0a07417 	ldw	r2,-32304(gp)
}




void MipiBridgeInit(void){
   21bdc:	defffa04 	addi	sp,sp,-24
   21be0:	dfc00515 	stw	ra,20(sp)
   21be4:	dd000415 	stw	r20,16(sp)
   21be8:	dcc00315 	stw	r19,12(sp)
   21bec:	dc800215 	stw	r18,8(sp)
   21bf0:	dc400115 	stw	r17,4(sp)
   21bf4:	dc000015 	stw	r16,0(sp)

	alt_u16 data;
    int i, num;

    if (print){
   21bf8:	10000326 	beq	r2,zero,21c08 <MipiBridgeInit+0x30>
    	printf("\nStart MipiBridgeInit!\n");
   21bfc:	010000b4 	movhi	r4,2
   21c00:	2115e704 	addi	r4,r4,22428
   21c04:	0023dc80 	call	23dc8 <puts>
    }
	data = MipiBridgeRegRead(0x0000); // read chip and revision id;
   21c08:	0009883a 	mov	r4,zero
   21c0c:	0021b940 	call	21b94 <MipiBridgeRegRead>

	if (print){
   21c10:	d0e07417 	ldw	r3,-32304(gp)
   21c14:	18000426 	beq	r3,zero,21c28 <MipiBridgeInit+0x50>
		printf("Chip and Revision ID is 0x%04xh(expected: 0x4401);\n",data);
   21c18:	010000b4 	movhi	r4,2
   21c1c:	117fffcc 	andi	r5,r2,65535
   21c20:	2115ed04 	addi	r4,r4,22452
   21c24:	0023cd80 	call	23cd8 <printf>
   21c28:	040000b4 	movhi	r16,2
   21c2c:	84160004 	addi	r16,r16,22528
}




void MipiBridgeInit(void){
   21c30:	0023883a 	mov	r17,zero
	}

    num = sizeof(MipiBridgeReg)/sizeof(MipiBridgeReg[0]);

    for(i=0;i<num;i++){
   	 if (MipiBridgeReg[i].Addr == 0xFFFF)   usleep(MipiBridgeReg[i].Data*1000);
   21c34:	84ffff84 	addi	r19,r16,-2
   21c38:	053fffd4 	movui	r20,65535
		printf("Chip and Revision ID is 0x%04xh(expected: 0x4401);\n",data);
	}

    num = sizeof(MipiBridgeReg)/sizeof(MipiBridgeReg[0]);

    for(i=0;i<num;i++){
   21c3c:	04800d04 	movi	r18,52
   	 if (MipiBridgeReg[i].Addr == 0xFFFF)   usleep(MipiBridgeReg[i].Data*1000);
   21c40:	8cc5883a 	add	r2,r17,r19
   21c44:	1100000b 	ldhu	r4,0(r2)
   21c48:	2500041e 	bne	r4,r20,21c5c <MipiBridgeInit+0x84>
   21c4c:	8100000b 	ldhu	r4,0(r16)
   21c50:	2100fa24 	muli	r4,r4,1000
   21c54:	00252380 	call	25238 <usleep>
   21c58:	00000206 	br	21c64 <MipiBridgeInit+0x8c>
        else MipiBridgeRegWrite(MipiBridgeReg[i].Addr,  MipiBridgeReg[i].Data);
   21c5c:	8140000b 	ldhu	r5,0(r16)
   21c60:	0021b5c0 	call	21b5c <MipiBridgeRegWrite>
   21c64:	8c400104 	addi	r17,r17,4
   21c68:	84000104 	addi	r16,r16,4
		printf("Chip and Revision ID is 0x%04xh(expected: 0x4401);\n",data);
	}

    num = sizeof(MipiBridgeReg)/sizeof(MipiBridgeReg[0]);

    for(i=0;i<num;i++){
   21c6c:	8cbff41e 	bne	r17,r18,21c40 <__alt_data_end+0xffff31e0>
//     MipiBridgeRegWrite(0x0058,((cap<<6) + (HsRxRs<<4) + ClkDly_data));
//     MipiBridgeRegWrite(0x005A,((cap<<6) + (HsRxRs<<4) + ClkDly_data));
//     MipiBridgeRegWrite(0x005C,((cap<<6) + (HsRxRs<<4) + ClkDly_data));
//     MipiBridgeRegWrite(0x005E,((cap<<6) + (HsRxRs<<4) + ClkDly_data));
//
    if (print){
   21c70:	d0a07417 	ldw	r2,-32304(gp)
   21c74:	10000a26 	beq	r2,zero,21ca0 <MipiBridgeInit+0xc8>
    	printf("End MipiBridgeInit!\n\n");
   21c78:	010000b4 	movhi	r4,2
   21c7c:	2115fa04 	addi	r4,r4,22504
    }
}
   21c80:	dfc00517 	ldw	ra,20(sp)
   21c84:	dd000417 	ldw	r20,16(sp)
   21c88:	dcc00317 	ldw	r19,12(sp)
   21c8c:	dc800217 	ldw	r18,8(sp)
   21c90:	dc400117 	ldw	r17,4(sp)
   21c94:	dc000017 	ldw	r16,0(sp)
   21c98:	dec00604 	addi	sp,sp,24
//     MipiBridgeRegWrite(0x005A,((cap<<6) + (HsRxRs<<4) + ClkDly_data));
//     MipiBridgeRegWrite(0x005C,((cap<<6) + (HsRxRs<<4) + ClkDly_data));
//     MipiBridgeRegWrite(0x005E,((cap<<6) + (HsRxRs<<4) + ClkDly_data));
//
    if (print){
    	printf("End MipiBridgeInit!\n\n");
   21c9c:	0023dc81 	jmpi	23dc8 <puts>
    }
}
   21ca0:	dfc00517 	ldw	ra,20(sp)
   21ca4:	dd000417 	ldw	r20,16(sp)
   21ca8:	dcc00317 	ldw	r19,12(sp)
   21cac:	dc800217 	ldw	r18,8(sp)
   21cb0:	dc400117 	ldw	r17,4(sp)
   21cb4:	dc000017 	ldw	r16,0(sp)
   21cb8:	dec00604 	addi	sp,sp,24
   21cbc:	f800283a 	ret

00021cc0 <OV8865_read_cmos_sensor_8>:
   };




alt_u8 OV8865_read_cmos_sensor_8(alt_u16 Addr){
   21cc0:	defffd04 	addi	sp,sp,-12
	const alt_u8 device_address = MIPI_I2C_ADDR;
	alt_u8 Value;

	//OC_I2CL_Write(I2C_OPENCORES_CAMERA_BASE, device_address, SWAP16(Addr), (alt_u8 *)&Value, sizeof(Value));
	OC_I2CL_Read(I2C_OPENCORES_CAMERA_BASE, device_address, Addr, (alt_u8 *)&Value, sizeof(Value));
   21cc4:	21bfffcc 	andi	r6,r4,65535
   21cc8:	00800044 	movi	r2,1
   21ccc:	010000f4 	movhi	r4,3
   21cd0:	d8800015 	stw	r2,0(sp)
   21cd4:	d9c00104 	addi	r7,sp,4
   21cd8:	01401b04 	movi	r5,108
   21cdc:	210f3804 	addi	r4,r4,15584
   };




alt_u8 OV8865_read_cmos_sensor_8(alt_u16 Addr){
   21ce0:	dfc00215 	stw	ra,8(sp)
	const alt_u8 device_address = MIPI_I2C_ADDR;
	alt_u8 Value;

	//OC_I2CL_Write(I2C_OPENCORES_CAMERA_BASE, device_address, SWAP16(Addr), (alt_u8 *)&Value, sizeof(Value));
	OC_I2CL_Read(I2C_OPENCORES_CAMERA_BASE, device_address, Addr, (alt_u8 *)&Value, sizeof(Value));
   21ce4:	00207840 	call	20784 <OC_I2CL_Read>

	return (Value);
}
   21ce8:	d8800103 	ldbu	r2,4(sp)
   21cec:	dfc00217 	ldw	ra,8(sp)
   21cf0:	dec00304 	addi	sp,sp,12
   21cf4:	f800283a 	ret

00021cf8 <OV8865_write_cmos_sensor_8>:


void OV8865_write_cmos_sensor_8(alt_u16 Addr, alt_u8 Value){
   21cf8:	defffd04 	addi	sp,sp,-12
	const alt_u8 device_address = MIPI_I2C_ADDR;
	//OC_I2CL_Write(I2C_OPENCORES_CAMERA_BASE, device_address, SWAP16(Addr), (alt_u8 *)&Value, sizeof(Value));
	OC_I2CL_Write(I2C_OPENCORES_CAMERA_BASE, device_address, Addr, (alt_u8 *)&Value, sizeof(Value));
   21cfc:	21bfffcc 	andi	r6,r4,65535
   21d00:	00800044 	movi	r2,1
   21d04:	010000f4 	movhi	r4,3

	return (Value);
}


void OV8865_write_cmos_sensor_8(alt_u16 Addr, alt_u8 Value){
   21d08:	d9400105 	stb	r5,4(sp)
	const alt_u8 device_address = MIPI_I2C_ADDR;
	//OC_I2CL_Write(I2C_OPENCORES_CAMERA_BASE, device_address, SWAP16(Addr), (alt_u8 *)&Value, sizeof(Value));
	OC_I2CL_Write(I2C_OPENCORES_CAMERA_BASE, device_address, Addr, (alt_u8 *)&Value, sizeof(Value));
   21d0c:	d8800015 	stw	r2,0(sp)
   21d10:	d9c00104 	addi	r7,sp,4
   21d14:	01401b04 	movi	r5,108
   21d18:	210f3804 	addi	r4,r4,15584

	return (Value);
}


void OV8865_write_cmos_sensor_8(alt_u16 Addr, alt_u8 Value){
   21d1c:	dfc00215 	stw	ra,8(sp)
	const alt_u8 device_address = MIPI_I2C_ADDR;
	//OC_I2CL_Write(I2C_OPENCORES_CAMERA_BASE, device_address, SWAP16(Addr), (alt_u8 *)&Value, sizeof(Value));
	OC_I2CL_Write(I2C_OPENCORES_CAMERA_BASE, device_address, Addr, (alt_u8 *)&Value, sizeof(Value));
   21d20:	00206240 	call	20624 <OC_I2CL_Write>
}
   21d24:	dfc00217 	ldw	ra,8(sp)
   21d28:	dec00304 	addi	sp,sp,12
   21d2c:	f800283a 	ret

00021d30 <OV8865_write_AF>:


void OV8865_write_AF(alt_u8 msb, alt_u8 lsb){
   21d30:	defffd04 	addi	sp,sp,-12
	// VCM149C
	const alt_u8 device_address = MIPI_AF_I2C_ADDR;
	OC_I2C_Write(I2C_OPENCORES_CAMERA_BASE, device_address, msb, (alt_u8 *)&lsb, sizeof(lsb));
   21d34:	21803fcc 	andi	r6,r4,255
   21d38:	00800044 	movi	r2,1
   21d3c:	010000f4 	movhi	r4,3
	//OC_I2CL_Write(I2C_OPENCORES_CAMERA_BASE, device_address, SWAP16(Addr), (alt_u8 *)&Value, sizeof(Value));
	OC_I2CL_Write(I2C_OPENCORES_CAMERA_BASE, device_address, Addr, (alt_u8 *)&Value, sizeof(Value));
}


void OV8865_write_AF(alt_u8 msb, alt_u8 lsb){
   21d40:	d9400105 	stb	r5,4(sp)
	// VCM149C
	const alt_u8 device_address = MIPI_AF_I2C_ADDR;
	OC_I2C_Write(I2C_OPENCORES_CAMERA_BASE, device_address, msb, (alt_u8 *)&lsb, sizeof(lsb));
   21d44:	d8800015 	stw	r2,0(sp)
   21d48:	d9c00104 	addi	r7,sp,4
   21d4c:	01400604 	movi	r5,24
   21d50:	210f3804 	addi	r4,r4,15584
	//OC_I2CL_Write(I2C_OPENCORES_CAMERA_BASE, device_address, SWAP16(Addr), (alt_u8 *)&Value, sizeof(Value));
	OC_I2CL_Write(I2C_OPENCORES_CAMERA_BASE, device_address, Addr, (alt_u8 *)&Value, sizeof(Value));
}


void OV8865_write_AF(alt_u8 msb, alt_u8 lsb){
   21d54:	dfc00215 	stw	ra,8(sp)
	// VCM149C
	const alt_u8 device_address = MIPI_AF_I2C_ADDR;
	OC_I2C_Write(I2C_OPENCORES_CAMERA_BASE, device_address, msb, (alt_u8 *)&lsb, sizeof(lsb));
   21d58:	00202340 	call	20234 <OC_I2C_Write>
}
   21d5c:	dfc00217 	ldw	ra,8(sp)
   21d60:	dec00304 	addi	sp,sp,12
   21d64:	f800283a 	ret

00021d68 <OV8865_read_AF>:

void OV8865_read_AF(void){
   21d68:	defffe04 	addi	sp,sp,-8
	// VCM149C
	const alt_u8 device_address = MIPI_AF_I2C_ADDR;
	alt_u8 szData8[2];
	bool bSuccess;

		bSuccess = OC_I2C_Read_Continue(I2C_OPENCORES_CAMERA_BASE, device_address, szData8, sizeof(szData8));
   21d6c:	010000f4 	movhi	r4,3
   21d70:	01c00084 	movi	r7,2
   21d74:	d80d883a 	mov	r6,sp
   21d78:	01400604 	movi	r5,24
   21d7c:	210f3804 	addi	r4,r4,15584
	// VCM149C
	const alt_u8 device_address = MIPI_AF_I2C_ADDR;
	OC_I2C_Write(I2C_OPENCORES_CAMERA_BASE, device_address, msb, (alt_u8 *)&lsb, sizeof(lsb));
}

void OV8865_read_AF(void){
   21d80:	dfc00115 	stw	ra,4(sp)
	// VCM149C
	const alt_u8 device_address = MIPI_AF_I2C_ADDR;
	alt_u8 szData8[2];
	bool bSuccess;

		bSuccess = OC_I2C_Read_Continue(I2C_OPENCORES_CAMERA_BASE, device_address, szData8, sizeof(szData8));
   21d84:	00205200 	call	20520 <OC_I2C_Read_Continue>
		//if (bSuccess & print)
			//printf("Read MSB=%xh, LSB=%xh\r\n", szData8[0], szData8[1]);
}
   21d88:	dfc00117 	ldw	ra,4(sp)
   21d8c:	dec00204 	addi	sp,sp,8
   21d90:	f800283a 	ret

00021d94 <OV8865_FOCUS_Move_to>:


void OV8865_FOCUS_Move_to(alt_u16 a_u2MovePosition)
{
   21d94:	defffe04 	addi	sp,sp,-8
   21d98:	dc000015 	stw	r16,0(sp)
   21d9c:	dfc00115 	stw	ra,4(sp)
   21da0:	2021883a 	mov	r16,r4
   21da4:	0080ffc4 	movi	r2,1023
   21da8:	213fffcc 	andi	r4,r4,65535
   21dac:	1100012e 	bgeu	r2,r4,21db4 <OV8865_FOCUS_Move_to+0x20>
   21db0:	1021883a 	mov	r16,r2
  if (a_u2MovePosition > 1023)   {a_u2MovePosition = 1023;}
  if (a_u2MovePosition < 0)     {a_u2MovePosition = 0;}
  int bSuccess;

  Focus_Released(); // waiting for VCM release I2C bus
   21db4:	0020dcc0 	call	20dcc <Focus_Released>

	bSuccess = oc_i2c_init_ex(I2C_OPENCORES_CAMERA_BASE, 50*1000*1000,400*1000); //I2C: 400K
   21db8:	018001b4 	movhi	r6,6
   21dbc:	0140bef4 	movhi	r5,763
   21dc0:	010000f4 	movhi	r4,3
   21dc4:	3186a004 	addi	r6,r6,6784
   21dc8:	297c2004 	addi	r5,r5,-3968
   21dcc:	210f3804 	addi	r4,r4,15584
   21dd0:	00200a00 	call	200a0 <oc_i2c_init_ex>
  alt_u8 msb,lsb;
  msb = (a_u2MovePosition >> 4)&0x00FF;
  lsb = (a_u2MovePosition << 4 )&0x00F0;
  lsb += 0x06;
//	printf("Write MSB=%xh, LSB=%xh\r\n", msb, lsb);
	OV8865_write_AF(msb, lsb+0x6);
   21dd4:	813fffcc 	andi	r4,r16,65535
   21dd8:	200a913a 	slli	r5,r4,4
   21ddc:	2008d13a 	srli	r4,r4,4
   21de0:	29400304 	addi	r5,r5,12
   21de4:	29403fcc 	andi	r5,r5,255
   21de8:	0021d300 	call	21d30 <OV8865_write_AF>
	usleep(1000);
   21dec:	0100fa04 	movi	r4,1000
   21df0:	00252380 	call	25238 <usleep>
//	OV8865_read_AF();

	oc_i2c_uninit(I2C_OPENCORES_CAMERA_BASE);  // Release I2C bus , due to two I2C master shared!
   21df4:	010000f4 	movhi	r4,3
   21df8:	210f3804 	addi	r4,r4,15584

}
   21dfc:	dfc00117 	ldw	ra,4(sp)
   21e00:	dc000017 	ldw	r16,0(sp)
   21e04:	dec00204 	addi	sp,sp,8
//	printf("Write MSB=%xh, LSB=%xh\r\n", msb, lsb);
	OV8865_write_AF(msb, lsb+0x6);
	usleep(1000);
//	OV8865_read_AF();

	oc_i2c_uninit(I2C_OPENCORES_CAMERA_BASE);  // Release I2C bus , due to two I2C master shared!
   21e08:	002014c1 	jmpi	2014c <oc_i2c_uninit>

00021e0c <OV8865SetExposure>:

}

void OV8865SetExposure(alt_u32 exposure){
   21e0c:	defffe04 	addi	sp,sp,-8
   21e10:	dfc00115 	stw	ra,4(sp)
   21e14:	dc000015 	stw	r16,0(sp)
   21e18:	2021883a 	mov	r16,r4

	Focus_Released(); // waiting for VCM release I2C bus
   21e1c:	0020dcc0 	call	20dcc <Focus_Released>

	int bSuccess = oc_i2c_init_ex(I2C_OPENCORES_CAMERA_BASE, 50*1000*1000,400*1000); //I2C: 400K
   21e20:	018001b4 	movhi	r6,6
   21e24:	0140bef4 	movhi	r5,763
   21e28:	010000f4 	movhi	r4,3
   21e2c:	3186a004 	addi	r6,r6,6784
   21e30:	297c2004 	addi	r5,r5,-3968
   21e34:	210f3804 	addi	r4,r4,15584
   21e38:	00200a00 	call	200a0 <oc_i2c_init_ex>
	if (!bSuccess & print)
   21e3c:	d0e07417 	ldw	r3,-32304(gp)
   21e40:	1005003a 	cmpeq	r2,r2,zero
   21e44:	10c4703a 	and	r2,r2,r3
   21e48:	10000326 	beq	r2,zero,21e58 <OV8865SetExposure+0x4c>
		//printf("failed to init MIPI- Camera i2c\r\n");

	if (exposure > 0xFFFFF) exposure = 0xFFFFF;
   21e4c:	00800434 	movhi	r2,16
   21e50:	10bfffc4 	addi	r2,r2,-1
   21e54:	14000436 	bltu	r2,r16,21e68 <OV8865SetExposure+0x5c>
	if (exposure < 0x20) exposure = 0x20;
   21e58:	008007c4 	movi	r2,31
   21e5c:	14000336 	bltu	r2,r16,21e6c <OV8865SetExposure+0x60>
   21e60:	04000804 	movi	r16,32
   21e64:	00000106 	br	21e6c <OV8865SetExposure+0x60>

	int bSuccess = oc_i2c_init_ex(I2C_OPENCORES_CAMERA_BASE, 50*1000*1000,400*1000); //I2C: 400K
	if (!bSuccess & print)
		//printf("failed to init MIPI- Camera i2c\r\n");

	if (exposure > 0xFFFFF) exposure = 0xFFFFF;
   21e68:	1021883a 	mov	r16,r2
	if (exposure < 0x20) exposure = 0x20;

	OV8865_write_cmos_sensor_8(0x3500, (exposure >> 16) & 0x0F);
   21e6c:	800ad43a 	srli	r5,r16,16
   21e70:	010d4004 	movi	r4,13568
   21e74:	294003cc 	andi	r5,r5,15
   21e78:	0021cf80 	call	21cf8 <OV8865_write_cmos_sensor_8>
	OV8865_write_cmos_sensor_8(0x3501, (exposure >> 8) & 0xFF);
   21e7c:	800ad23a 	srli	r5,r16,8
   21e80:	010d4044 	movi	r4,13569
   21e84:	29403fcc 	andi	r5,r5,255
   21e88:	0021cf80 	call	21cf8 <OV8865_write_cmos_sensor_8>
	OV8865_write_cmos_sensor_8(0x3502, exposure & 0xFF);
   21e8c:	81403fcc 	andi	r5,r16,255
   21e90:	010d4084 	movi	r4,13570
   21e94:	0021cf80 	call	21cf8 <OV8865_write_cmos_sensor_8>


	oc_i2c_uninit(I2C_OPENCORES_CAMERA_BASE);
   21e98:	010000f4 	movhi	r4,3
   21e9c:	210f3804 	addi	r4,r4,15584
}
   21ea0:	dfc00117 	ldw	ra,4(sp)
   21ea4:	dc000017 	ldw	r16,0(sp)
   21ea8:	dec00204 	addi	sp,sp,8
	OV8865_write_cmos_sensor_8(0x3500, (exposure >> 16) & 0x0F);
	OV8865_write_cmos_sensor_8(0x3501, (exposure >> 8) & 0xFF);
	OV8865_write_cmos_sensor_8(0x3502, exposure & 0xFF);


	oc_i2c_uninit(I2C_OPENCORES_CAMERA_BASE);
   21eac:	002014c1 	jmpi	2014c <oc_i2c_uninit>

00021eb0 <OV8865SetGain>:
}

void OV8865SetGain(alt_u16 gain){
   21eb0:	defffd04 	addi	sp,sp,-12
   21eb4:	dfc00215 	stw	ra,8(sp)
   21eb8:	dc400115 	stw	r17,4(sp)
   21ebc:	dc000015 	stw	r16,0(sp)
   21ec0:	2023883a 	mov	r17,r4
   21ec4:	2021883a 	mov	r16,r4

	Focus_Released(); // waiting for VCM release I2C bus
   21ec8:	0020dcc0 	call	20dcc <Focus_Released>

	int bSuccess = oc_i2c_init_ex(I2C_OPENCORES_CAMERA_BASE, 50*1000*1000,400*1000); //I2C: 400K
   21ecc:	018001b4 	movhi	r6,6
   21ed0:	0140bef4 	movhi	r5,763
   21ed4:	010000f4 	movhi	r4,3
   21ed8:	3186a004 	addi	r6,r6,6784
   21edc:	297c2004 	addi	r5,r5,-3968
   21ee0:	210f3804 	addi	r4,r4,15584
   21ee4:	00200a00 	call	200a0 <oc_i2c_init_ex>
	if (!bSuccess & print)
   21ee8:	d0e07417 	ldw	r3,-32304(gp)
   21eec:	1005003a 	cmpeq	r2,r2,zero
   21ef0:	843fffcc 	andi	r16,r16,65535
   21ef4:	10c4703a 	and	r2,r2,r3
   21ef8:	10000226 	beq	r2,zero,21f04 <OV8865SetGain+0x54>
		//printf("failed to init MIPI- Camera i2c\r\n");

	if (gain > 0x7FF) gain = 0x7FF;
   21efc:	0081ffc4 	movi	r2,2047
   21f00:	14000436 	bltu	r2,r16,21f14 <OV8865SetGain+0x64>
	if (gain < 0x080) gain = 0x080;
   21f04:	00801fc4 	movi	r2,127
   21f08:	14000336 	bltu	r2,r16,21f18 <OV8865SetGain+0x68>
   21f0c:	04402004 	movi	r17,128
   21f10:	00000106 	br	21f18 <OV8865SetGain+0x68>

	int bSuccess = oc_i2c_init_ex(I2C_OPENCORES_CAMERA_BASE, 50*1000*1000,400*1000); //I2C: 400K
	if (!bSuccess & print)
		//printf("failed to init MIPI- Camera i2c\r\n");

	if (gain > 0x7FF) gain = 0x7FF;
   21f14:	1023883a 	mov	r17,r2
	if (gain < 0x080) gain = 0x080;

	OV8865_write_cmos_sensor_8(0x3508, (gain >> 8) & 0x0F);
   21f18:	880ad23a 	srli	r5,r17,8
   21f1c:	010d4204 	movi	r4,13576
   21f20:	294003cc 	andi	r5,r5,15
   21f24:	0021cf80 	call	21cf8 <OV8865_write_cmos_sensor_8>
	OV8865_write_cmos_sensor_8(0x3509, gain & 0xFF);
   21f28:	89403fcc 	andi	r5,r17,255
   21f2c:	010d4244 	movi	r4,13577
   21f30:	0021cf80 	call	21cf8 <OV8865_write_cmos_sensor_8>


	oc_i2c_uninit(I2C_OPENCORES_CAMERA_BASE);
   21f34:	010000f4 	movhi	r4,3
   21f38:	210f3804 	addi	r4,r4,15584
}
   21f3c:	dfc00217 	ldw	ra,8(sp)
   21f40:	dc400117 	ldw	r17,4(sp)
   21f44:	dc000017 	ldw	r16,0(sp)
   21f48:	dec00304 	addi	sp,sp,12

	OV8865_write_cmos_sensor_8(0x3508, (gain >> 8) & 0x0F);
	OV8865_write_cmos_sensor_8(0x3509, gain & 0xFF);


	oc_i2c_uninit(I2C_OPENCORES_CAMERA_BASE);
   21f4c:	002014c1 	jmpi	2014c <oc_i2c_uninit>

00021f50 <enableMWB>:
}

void enableMWB(){
   21f50:	deffff04 	addi	sp,sp,-4
   21f54:	dfc00015 	stw	ra,0(sp)

	Focus_Released(); // waiting for VCM release I2C bus
   21f58:	0020dcc0 	call	20dcc <Focus_Released>

	int bSuccess = oc_i2c_init_ex(I2C_OPENCORES_CAMERA_BASE, 50*1000*1000,400*1000); //I2C: 400K
   21f5c:	018001b4 	movhi	r6,6
   21f60:	0140bef4 	movhi	r5,763
   21f64:	010000f4 	movhi	r4,3
   21f68:	3186a004 	addi	r6,r6,6784
   21f6c:	297c2004 	addi	r5,r5,-3968
   21f70:	210f3804 	addi	r4,r4,15584
   21f74:	00200a00 	call	200a0 <oc_i2c_init_ex>
	if (!bSuccess & print )
   21f78:	d0e07417 	ldw	r3,-32304(gp)
   21f7c:	1005003a 	cmpeq	r2,r2,zero
   21f80:	10c4703a 	and	r2,r2,r3
   21f84:	10000326 	beq	r2,zero,21f94 <enableMWB+0x44>
		//printf("failed to init MIPI- Camera i2c\r\n");

	OV8865_write_cmos_sensor_8(0x501e, 0 & 0x3);
   21f88:	000b883a 	mov	r5,zero
   21f8c:	01140784 	movi	r4,20510
   21f90:	0021cf80 	call	21cf8 <OV8865_write_cmos_sensor_8>


	oc_i2c_uninit(I2C_OPENCORES_CAMERA_BASE);
   21f94:	010000f4 	movhi	r4,3
   21f98:	210f3804 	addi	r4,r4,15584
}
   21f9c:	dfc00017 	ldw	ra,0(sp)
   21fa0:	dec00104 	addi	sp,sp,4
		//printf("failed to init MIPI- Camera i2c\r\n");

	OV8865_write_cmos_sensor_8(0x501e, 0 & 0x3);


	oc_i2c_uninit(I2C_OPENCORES_CAMERA_BASE);
   21fa4:	002014c1 	jmpi	2014c <oc_i2c_uninit>

00021fa8 <OV8865SetRedGain>:
}

void OV8865SetRedGain(alt_u16 gain){
   21fa8:	defffd04 	addi	sp,sp,-12
   21fac:	dc400115 	stw	r17,4(sp)
   21fb0:	dc000015 	stw	r16,0(sp)
   21fb4:	dfc00215 	stw	ra,8(sp)
   21fb8:	2023883a 	mov	r17,r4
   21fbc:	2021883a 	mov	r16,r4

	Focus_Released(); // waiting for VCM release I2C bus
   21fc0:	0020dcc0 	call	20dcc <Focus_Released>

	int bSuccess = oc_i2c_init_ex(I2C_OPENCORES_CAMERA_BASE, 50*1000*1000,400*1000); //I2C: 400K
   21fc4:	018001b4 	movhi	r6,6
   21fc8:	0140bef4 	movhi	r5,763
   21fcc:	010000f4 	movhi	r4,3
   21fd0:	3186a004 	addi	r6,r6,6784
   21fd4:	297c2004 	addi	r5,r5,-3968
   21fd8:	210f3804 	addi	r4,r4,15584
   21fdc:	00200a00 	call	200a0 <oc_i2c_init_ex>
	if (!bSuccess && print)
   21fe0:	1000051e 	bne	r2,zero,21ff8 <OV8865SetRedGain+0x50>
   21fe4:	d0a07417 	ldw	r2,-32304(gp)
   21fe8:	10000326 	beq	r2,zero,21ff8 <OV8865SetRedGain+0x50>
		printf("failed to init MIPI- Camera i2c\r\n");
   21fec:	010000b4 	movhi	r4,2
   21ff0:	21160d04 	addi	r4,r4,22580
   21ff4:	0023dc80 	call	23dc8 <puts>

	if (gain > 0x7FF) gain = 0x7FF;
   21ff8:	8c7fffcc 	andi	r17,r17,65535
   21ffc:	0081ffc4 	movi	r2,2047
   22000:	14400436 	bltu	r2,r17,22014 <OV8865SetRedGain+0x6c>
	if (gain < 0x080) gain = 0x080;
   22004:	00801fc4 	movi	r2,127
   22008:	14400336 	bltu	r2,r17,22018 <OV8865SetRedGain+0x70>
   2200c:	04002004 	movi	r16,128
   22010:	00000106 	br	22018 <OV8865SetRedGain+0x70>

	int bSuccess = oc_i2c_init_ex(I2C_OPENCORES_CAMERA_BASE, 50*1000*1000,400*1000); //I2C: 400K
	if (!bSuccess && print)
		printf("failed to init MIPI- Camera i2c\r\n");

	if (gain > 0x7FF) gain = 0x7FF;
   22014:	1021883a 	mov	r16,r2
	if (gain < 0x080) gain = 0x080;

	OV8865_write_cmos_sensor_8(0x5019, gain & 0x3F);
   22018:	81400fcc 	andi	r5,r16,63
   2201c:	01140644 	movi	r4,20505
   22020:	0021cf80 	call	21cf8 <OV8865_write_cmos_sensor_8>
	OV8865_write_cmos_sensor_8(0x5018, gain>>6 & 0xFF);
   22024:	817fffcc 	andi	r5,r16,65535
   22028:	280ad1ba 	srli	r5,r5,6
   2202c:	01140604 	movi	r4,20504
   22030:	0021cf80 	call	21cf8 <OV8865_write_cmos_sensor_8>


	oc_i2c_uninit(I2C_OPENCORES_CAMERA_BASE);
   22034:	010000f4 	movhi	r4,3
   22038:	210f3804 	addi	r4,r4,15584
}
   2203c:	dfc00217 	ldw	ra,8(sp)
   22040:	dc400117 	ldw	r17,4(sp)
   22044:	dc000017 	ldw	r16,0(sp)
   22048:	dec00304 	addi	sp,sp,12

	OV8865_write_cmos_sensor_8(0x5019, gain & 0x3F);
	OV8865_write_cmos_sensor_8(0x5018, gain>>6 & 0xFF);


	oc_i2c_uninit(I2C_OPENCORES_CAMERA_BASE);
   2204c:	002014c1 	jmpi	2014c <oc_i2c_uninit>

00022050 <OV8865SetGreenGain>:
}
void OV8865SetGreenGain(alt_u16 gain){
   22050:	defffd04 	addi	sp,sp,-12
   22054:	dfc00215 	stw	ra,8(sp)
   22058:	dc400115 	stw	r17,4(sp)
   2205c:	dc000015 	stw	r16,0(sp)
   22060:	2023883a 	mov	r17,r4
   22064:	2021883a 	mov	r16,r4

	Focus_Released(); // waiting for VCM release I2C bus
   22068:	0020dcc0 	call	20dcc <Focus_Released>

	int bSuccess = oc_i2c_init_ex(I2C_OPENCORES_CAMERA_BASE, 50*1000*1000,400*1000); //I2C: 400K
   2206c:	018001b4 	movhi	r6,6
   22070:	0140bef4 	movhi	r5,763
   22074:	010000f4 	movhi	r4,3
   22078:	3186a004 	addi	r6,r6,6784
   2207c:	297c2004 	addi	r5,r5,-3968
   22080:	210f3804 	addi	r4,r4,15584
   22084:	00200a00 	call	200a0 <oc_i2c_init_ex>
	//if (!bSuccess && print)
		//printf("failed to init MIPI- Camera i2c\r\n");

	if (gain > 0x7FF) gain = 0x7FF;
   22088:	8c7fffcc 	andi	r17,r17,65535
   2208c:	0081ffc4 	movi	r2,2047
   22090:	14400436 	bltu	r2,r17,220a4 <OV8865SetGreenGain+0x54>
	if (gain < 0x080) gain = 0x080;
   22094:	00801fc4 	movi	r2,127
   22098:	14400336 	bltu	r2,r17,220a8 <OV8865SetGreenGain+0x58>
   2209c:	04002004 	movi	r16,128
   220a0:	00000106 	br	220a8 <OV8865SetGreenGain+0x58>

	int bSuccess = oc_i2c_init_ex(I2C_OPENCORES_CAMERA_BASE, 50*1000*1000,400*1000); //I2C: 400K
	//if (!bSuccess && print)
		//printf("failed to init MIPI- Camera i2c\r\n");

	if (gain > 0x7FF) gain = 0x7FF;
   220a4:	1021883a 	mov	r16,r2
	if (gain < 0x080) gain = 0x080;

	OV8865_write_cmos_sensor_8(0x501B, (gain) & 0x0F);
   220a8:	814003cc 	andi	r5,r16,15
   220ac:	011406c4 	movi	r4,20507
   220b0:	0021cf80 	call	21cf8 <OV8865_write_cmos_sensor_8>
	OV8865_write_cmos_sensor_8(0x501A, gain>>6 & 0xFF);
   220b4:	817fffcc 	andi	r5,r16,65535
   220b8:	280ad1ba 	srli	r5,r5,6
   220bc:	01140684 	movi	r4,20506
   220c0:	0021cf80 	call	21cf8 <OV8865_write_cmos_sensor_8>


	oc_i2c_uninit(I2C_OPENCORES_CAMERA_BASE);
   220c4:	010000f4 	movhi	r4,3
   220c8:	210f3804 	addi	r4,r4,15584
}
   220cc:	dfc00217 	ldw	ra,8(sp)
   220d0:	dc400117 	ldw	r17,4(sp)
   220d4:	dc000017 	ldw	r16,0(sp)
   220d8:	dec00304 	addi	sp,sp,12

	OV8865_write_cmos_sensor_8(0x501B, (gain) & 0x0F);
	OV8865_write_cmos_sensor_8(0x501A, gain>>6 & 0xFF);


	oc_i2c_uninit(I2C_OPENCORES_CAMERA_BASE);
   220dc:	002014c1 	jmpi	2014c <oc_i2c_uninit>

000220e0 <OV8865SetBlueGain>:
}

void OV8865SetBlueGain(alt_u16 gain){
   220e0:	defffd04 	addi	sp,sp,-12
   220e4:	dfc00215 	stw	ra,8(sp)
   220e8:	dc400115 	stw	r17,4(sp)
   220ec:	dc000015 	stw	r16,0(sp)
   220f0:	2023883a 	mov	r17,r4
   220f4:	2021883a 	mov	r16,r4

	Focus_Released(); // waiting for VCM release I2C bus
   220f8:	0020dcc0 	call	20dcc <Focus_Released>

	int bSuccess = oc_i2c_init_ex(I2C_OPENCORES_CAMERA_BASE, 50*1000*1000,400*1000); //I2C: 400K
   220fc:	018001b4 	movhi	r6,6
   22100:	0140bef4 	movhi	r5,763
   22104:	010000f4 	movhi	r4,3
   22108:	3186a004 	addi	r6,r6,6784
   2210c:	297c2004 	addi	r5,r5,-3968
   22110:	210f3804 	addi	r4,r4,15584
   22114:	00200a00 	call	200a0 <oc_i2c_init_ex>
	//if (!bSuccess && print)
		//printf("failed to init MIPI- Camera i2c\r\n");

	if (gain > 0x7FF) gain = 0x7FF;
   22118:	8c7fffcc 	andi	r17,r17,65535
   2211c:	0081ffc4 	movi	r2,2047
   22120:	14400436 	bltu	r2,r17,22134 <OV8865SetBlueGain+0x54>
	if (gain < 0x080) gain = 0x080;
   22124:	00801fc4 	movi	r2,127
   22128:	14400336 	bltu	r2,r17,22138 <OV8865SetBlueGain+0x58>
   2212c:	04002004 	movi	r16,128
   22130:	00000106 	br	22138 <OV8865SetBlueGain+0x58>

	int bSuccess = oc_i2c_init_ex(I2C_OPENCORES_CAMERA_BASE, 50*1000*1000,400*1000); //I2C: 400K
	//if (!bSuccess && print)
		//printf("failed to init MIPI- Camera i2c\r\n");

	if (gain > 0x7FF) gain = 0x7FF;
   22134:	1021883a 	mov	r16,r2
	if (gain < 0x080) gain = 0x080;

	OV8865_write_cmos_sensor_8(0x501D, (gain) & 0x3F);
   22138:	81400fcc 	andi	r5,r16,63
   2213c:	01140744 	movi	r4,20509
   22140:	0021cf80 	call	21cf8 <OV8865_write_cmos_sensor_8>
	OV8865_write_cmos_sensor_8(0x501C, gain>>6 & 0xFF);
   22144:	817fffcc 	andi	r5,r16,65535
   22148:	280ad1ba 	srli	r5,r5,6
   2214c:	01140704 	movi	r4,20508
   22150:	0021cf80 	call	21cf8 <OV8865_write_cmos_sensor_8>


	oc_i2c_uninit(I2C_OPENCORES_CAMERA_BASE);
   22154:	010000f4 	movhi	r4,3
   22158:	210f3804 	addi	r4,r4,15584
}
   2215c:	dfc00217 	ldw	ra,8(sp)
   22160:	dc400117 	ldw	r17,4(sp)
   22164:	dc000017 	ldw	r16,0(sp)
   22168:	dec00304 	addi	sp,sp,12

	OV8865_write_cmos_sensor_8(0x501D, (gain) & 0x3F);
	OV8865_write_cmos_sensor_8(0x501C, gain>>6 & 0xFF);


	oc_i2c_uninit(I2C_OPENCORES_CAMERA_BASE);
   2216c:	002014c1 	jmpi	2014c <oc_i2c_uninit>

00022170 <OV8865ReadAvg>:
}

alt_u32 OV8865ReadAvg(){
   22170:	defffd04 	addi	sp,sp,-12
   22174:	dfc00215 	stw	ra,8(sp)
   22178:	dc400115 	stw	r17,4(sp)
   2217c:	dc000015 	stw	r16,0(sp)

	alt_u32 avg;

	Focus_Released(); // waiting for VCM release I2C bus
   22180:	0020dcc0 	call	20dcc <Focus_Released>

	int bSuccess = oc_i2c_init_ex(I2C_OPENCORES_CAMERA_BASE, 50*1000*1000,400*1000); //I2C: 400K
   22184:	040000f4 	movhi	r16,3
   22188:	840f3804 	addi	r16,r16,15584
   2218c:	018001b4 	movhi	r6,6
   22190:	0140bef4 	movhi	r5,763
   22194:	3186a004 	addi	r6,r6,6784
   22198:	297c2004 	addi	r5,r5,-3968
   2219c:	8009883a 	mov	r4,r16
   221a0:	00200a00 	call	200a0 <oc_i2c_init_ex>
	//if (!bSuccess && print)
		//printf("failed to init MIPI- Camera i2c\r\n");

	avg = OV8865_read_cmos_sensor_8(0x568A);
   221a4:	0115a284 	movi	r4,22154
   221a8:	0021cc00 	call	21cc0 <OV8865_read_cmos_sensor_8>
	oc_i2c_uninit(I2C_OPENCORES_CAMERA_BASE);
   221ac:	8009883a 	mov	r4,r16

	int bSuccess = oc_i2c_init_ex(I2C_OPENCORES_CAMERA_BASE, 50*1000*1000,400*1000); //I2C: 400K
	//if (!bSuccess && print)
		//printf("failed to init MIPI- Camera i2c\r\n");

	avg = OV8865_read_cmos_sensor_8(0x568A);
   221b0:	1023883a 	mov	r17,r2
	oc_i2c_uninit(I2C_OPENCORES_CAMERA_BASE);
   221b4:	002014c0 	call	2014c <oc_i2c_uninit>

	return avg;
}
   221b8:	88803fcc 	andi	r2,r17,255
   221bc:	dfc00217 	ldw	ra,8(sp)
   221c0:	dc400117 	ldw	r17,4(sp)
   221c4:	dc000017 	ldw	r16,0(sp)
   221c8:	dec00304 	addi	sp,sp,12
   221cc:	f800283a 	ret

000221d0 <OV8865ReadExposure>:

alt_u32 OV8865ReadExposure(){
   221d0:	defffd04 	addi	sp,sp,-12
   221d4:	dfc00215 	stw	ra,8(sp)
   221d8:	dc400115 	stw	r17,4(sp)
   221dc:	dc000015 	stw	r16,0(sp)

	alt_u32 exposure;

	Focus_Released(); // waiting for VCM release I2C bus

	int bSuccess = oc_i2c_init_ex(I2C_OPENCORES_CAMERA_BASE, 50*1000*1000,400*1000); //I2C: 400K
   221e0:	044000f4 	movhi	r17,3

alt_u32 OV8865ReadExposure(){

	alt_u32 exposure;

	Focus_Released(); // waiting for VCM release I2C bus
   221e4:	0020dcc0 	call	20dcc <Focus_Released>

	int bSuccess = oc_i2c_init_ex(I2C_OPENCORES_CAMERA_BASE, 50*1000*1000,400*1000); //I2C: 400K
   221e8:	8c4f3804 	addi	r17,r17,15584
   221ec:	018001b4 	movhi	r6,6
   221f0:	0140bef4 	movhi	r5,763
   221f4:	3186a004 	addi	r6,r6,6784
   221f8:	297c2004 	addi	r5,r5,-3968
   221fc:	8809883a 	mov	r4,r17
   22200:	00200a00 	call	200a0 <oc_i2c_init_ex>
	//if (!bSuccess && print)
		//printf("failed to init MIPI- Camera i2c\r\n");

	exposure = OV8865_read_cmos_sensor_8(0x3500);
   22204:	010d4004 	movi	r4,13568
   22208:	0021cc00 	call	21cc0 <OV8865_read_cmos_sensor_8>
	exposure = (exposure <<8) | OV8865_read_cmos_sensor_8(0x3501);
   2220c:	10803fcc 	andi	r2,r2,255
   22210:	1020923a 	slli	r16,r2,8
   22214:	010d4044 	movi	r4,13569
   22218:	0021cc00 	call	21cc0 <OV8865_read_cmos_sensor_8>
	exposure = (exposure <<8) | OV8865_read_cmos_sensor_8(0x3502);
   2221c:	10803fcc 	andi	r2,r2,255
   22220:	1420b03a 	or	r16,r2,r16
   22224:	010d4084 	movi	r4,13570
   22228:	8020923a 	slli	r16,r16,8
   2222c:	0021cc00 	call	21cc0 <OV8865_read_cmos_sensor_8>
   22230:	10803fcc 	andi	r2,r2,255

	oc_i2c_uninit(I2C_OPENCORES_CAMERA_BASE);
   22234:	8809883a 	mov	r4,r17
	//if (!bSuccess && print)
		//printf("failed to init MIPI- Camera i2c\r\n");

	exposure = OV8865_read_cmos_sensor_8(0x3500);
	exposure = (exposure <<8) | OV8865_read_cmos_sensor_8(0x3501);
	exposure = (exposure <<8) | OV8865_read_cmos_sensor_8(0x3502);
   22238:	1420b03a 	or	r16,r2,r16

	oc_i2c_uninit(I2C_OPENCORES_CAMERA_BASE);
   2223c:	002014c0 	call	2014c <oc_i2c_uninit>

	return exposure;
}
   22240:	8005883a 	mov	r2,r16
   22244:	dfc00217 	ldw	ra,8(sp)
   22248:	dc400117 	ldw	r17,4(sp)
   2224c:	dc000017 	ldw	r16,0(sp)
   22250:	dec00304 	addi	sp,sp,12
   22254:	f800283a 	ret

00022258 <MIPI_BIN_LEVEL>:




//ZOOM
void MIPI_BIN_LEVEL(alt_u8 level){
   22258:	defffd04 	addi	sp,sp,-12
   2225c:	dc400115 	stw	r17,4(sp)
   22260:	dc000015 	stw	r16,0(sp)
   22264:	2023883a 	mov	r17,r4
   22268:	dfc00215 	stw	ra,8(sp)
	if(level <= 1) level = 1;
   2226c:	21003fcc 	andi	r4,r4,255
   22270:	04000044 	movi	r16,1
   22274:	8100402e 	bgeu	r16,r4,22378 <MIPI_BIN_LEVEL+0x120>
	if(level >= 3) level = 3;
   22278:	00800084 	movi	r2,2
   2227c:	20800126 	beq	r4,r2,22284 <MIPI_BIN_LEVEL+0x2c>
   22280:	044000c4 	movi	r17,3

	  Focus_Released(); // waiting for VCM release I2C bus
   22284:	0020dcc0 	call	20dcc <Focus_Released>

	  int bSuccess;
		bSuccess = oc_i2c_init_ex(I2C_OPENCORES_CAMERA_BASE, 50*1000*1000,400*1000); //I2C: 400K
   22288:	018001b4 	movhi	r6,6
   2228c:	0140bef4 	movhi	r5,763
   22290:	010000f4 	movhi	r4,3
   22294:	3186a004 	addi	r6,r6,6784
   22298:	297c2004 	addi	r5,r5,-3968
   2229c:	210f3804 	addi	r4,r4,15584
   222a0:	00200a00 	call	200a0 <oc_i2c_init_ex>
		//if (!bSuccess && print)
			//printf("failed to init MIPI- Camera i2c\r\n");


	OV8865_write_cmos_sensor_8(0x0100, 0x00);
   222a4:	000b883a 	mov	r5,zero
   222a8:	01004004 	movi	r4,256
		OV8865_write_cmos_sensor_8(0x382b, 0x01);

		OV8865_write_cmos_sensor_8(0x3830, 8);
		OV8865_write_cmos_sensor_8(0x3836, 2);
	}
	else if(level == 2){
   222ac:	8c403fcc 	andi	r17,r17,255
   222b0:	04000084 	movi	r16,2
		bSuccess = oc_i2c_init_ex(I2C_OPENCORES_CAMERA_BASE, 50*1000*1000,400*1000); //I2C: 400K
		//if (!bSuccess && print)
			//printf("failed to init MIPI- Camera i2c\r\n");


	OV8865_write_cmos_sensor_8(0x0100, 0x00);
   222b4:	0021cf80 	call	21cf8 <OV8865_write_cmos_sensor_8>
		OV8865_write_cmos_sensor_8(0x382b, 0x01);

		OV8865_write_cmos_sensor_8(0x3830, 8);
		OV8865_write_cmos_sensor_8(0x3836, 2);
	}
	else if(level == 2){
   222b8:	8c00111e 	bne	r17,r16,22300 <MIPI_BIN_LEVEL+0xa8>

		OV8865_write_cmos_sensor_8(0x3814, 0x03);
   222bc:	014000c4 	movi	r5,3
   222c0:	010e0504 	movi	r4,14356
   222c4:	0021cf80 	call	21cf8 <OV8865_write_cmos_sensor_8>
		OV8865_write_cmos_sensor_8(0x3815, 0x01);
   222c8:	01400044 	movi	r5,1
   222cc:	010e0544 	movi	r4,14357
   222d0:	0021cf80 	call	21cf8 <OV8865_write_cmos_sensor_8>
		OV8865_write_cmos_sensor_8(0x382a, 0x03);
   222d4:	014000c4 	movi	r5,3
   222d8:	010e0a84 	movi	r4,14378
   222dc:	0021cf80 	call	21cf8 <OV8865_write_cmos_sensor_8>
		OV8865_write_cmos_sensor_8(0x382b, 0x01);
   222e0:	01400044 	movi	r5,1
   222e4:	010e0ac4 	movi	r4,14379
   222e8:	0021cf80 	call	21cf8 <OV8865_write_cmos_sensor_8>

		OV8865_write_cmos_sensor_8(0x3830, 4);
   222ec:	01400104 	movi	r5,4
   222f0:	010e0c04 	movi	r4,14384
   222f4:	0021cf80 	call	21cf8 <OV8865_write_cmos_sensor_8>
		OV8865_write_cmos_sensor_8(0x3836, 1);
   222f8:	01400044 	movi	r5,1
   222fc:	00001006 	br	22340 <MIPI_BIN_LEVEL+0xe8>

	}
	else if(level == 3){

		OV8865_write_cmos_sensor_8(0x3814, 0x07);
   22300:	014001c4 	movi	r5,7
   22304:	010e0504 	movi	r4,14356
   22308:	0021cf80 	call	21cf8 <OV8865_write_cmos_sensor_8>
		OV8865_write_cmos_sensor_8(0x3815, 0x01);
   2230c:	01400044 	movi	r5,1
   22310:	010e0544 	movi	r4,14357
   22314:	0021cf80 	call	21cf8 <OV8865_write_cmos_sensor_8>
		OV8865_write_cmos_sensor_8(0x382a, 0x07);
   22318:	014001c4 	movi	r5,7
   2231c:	010e0a84 	movi	r4,14378
   22320:	0021cf80 	call	21cf8 <OV8865_write_cmos_sensor_8>
		OV8865_write_cmos_sensor_8(0x382b, 0x01);
   22324:	01400044 	movi	r5,1
   22328:	010e0ac4 	movi	r4,14379
   2232c:	0021cf80 	call	21cf8 <OV8865_write_cmos_sensor_8>

		OV8865_write_cmos_sensor_8(0x3830, 8);
   22330:	01400204 	movi	r5,8
   22334:	010e0c04 	movi	r4,14384
   22338:	0021cf80 	call	21cf8 <OV8865_write_cmos_sensor_8>
		OV8865_write_cmos_sensor_8(0x3836, 2);
   2233c:	800b883a 	mov	r5,r16
   22340:	010e0d84 	movi	r4,14390
   22344:	0021cf80 	call	21cf8 <OV8865_write_cmos_sensor_8>
	}
    usleep(10000);
   22348:	0109c404 	movi	r4,10000
   2234c:	00252380 	call	25238 <usleep>
	OV8865_write_cmos_sensor_8(0x0100, 0x01);
   22350:	01400044 	movi	r5,1
   22354:	01004004 	movi	r4,256
   22358:	0021cf80 	call	21cf8 <OV8865_write_cmos_sensor_8>

	oc_i2c_uninit(I2C_OPENCORES_CAMERA_BASE);  // Release I2C bus , due to two I2C master shared!
   2235c:	010000f4 	movhi	r4,3
   22360:	210f3804 	addi	r4,r4,15584

}
   22364:	dfc00217 	ldw	ra,8(sp)
   22368:	dc400117 	ldw	r17,4(sp)
   2236c:	dc000017 	ldw	r16,0(sp)
   22370:	dec00304 	addi	sp,sp,12
		OV8865_write_cmos_sensor_8(0x3836, 2);
	}
    usleep(10000);
	OV8865_write_cmos_sensor_8(0x0100, 0x01);

	oc_i2c_uninit(I2C_OPENCORES_CAMERA_BASE);  // Release I2C bus , due to two I2C master shared!
   22374:	002014c1 	jmpi	2014c <oc_i2c_uninit>
//ZOOM
void MIPI_BIN_LEVEL(alt_u8 level){
	if(level <= 1) level = 1;
	if(level >= 3) level = 3;

	  Focus_Released(); // waiting for VCM release I2C bus
   22378:	0020dcc0 	call	20dcc <Focus_Released>

	  int bSuccess;
		bSuccess = oc_i2c_init_ex(I2C_OPENCORES_CAMERA_BASE, 50*1000*1000,400*1000); //I2C: 400K
   2237c:	018001b4 	movhi	r6,6
   22380:	0140bef4 	movhi	r5,763
   22384:	010000f4 	movhi	r4,3
   22388:	3186a004 	addi	r6,r6,6784
   2238c:	297c2004 	addi	r5,r5,-3968
   22390:	210f3804 	addi	r4,r4,15584
   22394:	00200a00 	call	200a0 <oc_i2c_init_ex>
		//if (!bSuccess && print)
			//printf("failed to init MIPI- Camera i2c\r\n");


	OV8865_write_cmos_sensor_8(0x0100, 0x00);
   22398:	000b883a 	mov	r5,zero
   2239c:	01004004 	movi	r4,256
   223a0:	0021cf80 	call	21cf8 <OV8865_write_cmos_sensor_8>

	if(level == 1){

		OV8865_write_cmos_sensor_8(0x3814, 0x01);
   223a4:	800b883a 	mov	r5,r16
   223a8:	010e0504 	movi	r4,14356
   223ac:	0021cf80 	call	21cf8 <OV8865_write_cmos_sensor_8>
		OV8865_write_cmos_sensor_8(0x3815, 0x01);
   223b0:	800b883a 	mov	r5,r16
   223b4:	010e0544 	movi	r4,14357
   223b8:	0021cf80 	call	21cf8 <OV8865_write_cmos_sensor_8>
		OV8865_write_cmos_sensor_8(0x382a, 0x01);
   223bc:	800b883a 	mov	r5,r16
   223c0:	010e0a84 	movi	r4,14378
   223c4:	0021cf80 	call	21cf8 <OV8865_write_cmos_sensor_8>
		OV8865_write_cmos_sensor_8(0x382b, 0x01);
   223c8:	800b883a 	mov	r5,r16
   223cc:	010e0ac4 	movi	r4,14379
   223d0:	0021cf80 	call	21cf8 <OV8865_write_cmos_sensor_8>

		OV8865_write_cmos_sensor_8(0x3830, 8);
   223d4:	01400204 	movi	r5,8
   223d8:	010e0c04 	movi	r4,14384
   223dc:	0021cf80 	call	21cf8 <OV8865_write_cmos_sensor_8>
		OV8865_write_cmos_sensor_8(0x3836, 2);
   223e0:	01400084 	movi	r5,2
   223e4:	003fd606 	br	22340 <__alt_data_end+0xffff38e0>

000223e8 <MipiCameraInit>:
//		OV8865_write_cmos_sensor_8(0x0100, 0x01);
//}


void MipiCameraInit(void)
{
   223e8:	defff904 	addi	sp,sp,-28
   223ec:	dfc00615 	stw	ra,24(sp)
   223f0:	dd400515 	stw	r21,20(sp)
   223f4:	dd000415 	stw	r20,16(sp)
   223f8:	dcc00315 	stw	r19,12(sp)
   223fc:	dc800215 	stw	r18,8(sp)
   22400:	dc400115 	stw	r17,4(sp)
   22404:	dc000015 	stw	r16,0(sp)

    int i, num;
    int bSuccess;

    Focus_Released(); // waiting for VCM release I2C bus
   22408:	0020dcc0 	call	20dcc <Focus_Released>


		bSuccess = oc_i2c_init_ex(I2C_OPENCORES_CAMERA_BASE, 50*1000*1000,400*1000); //I2C: 400K
   2240c:	018001b4 	movhi	r6,6
   22410:	0140bef4 	movhi	r5,763
   22414:	010000f4 	movhi	r4,3
   22418:	3186a004 	addi	r6,r6,6784
   2241c:	297c2004 	addi	r5,r5,-3968
   22420:	210f3804 	addi	r4,r4,15584
   22424:	00200a00 	call	200a0 <oc_i2c_init_ex>
		if (!bSuccess && print)
   22428:	1000051e 	bne	r2,zero,22440 <MipiCameraInit+0x58>
   2242c:	d0a07417 	ldw	r2,-32304(gp)
   22430:	10000326 	beq	r2,zero,22440 <MipiCameraInit+0x58>
			printf("failed to init MIPI- Camera i2c\r\n");
   22434:	010000b4 	movhi	r4,2
   22438:	21160d04 	addi	r4,r4,22580
   2243c:	0023dc80 	call	23dc8 <puts>
//        OC_I2C_Write(I2C_OPENCORES_CAMERA_BASE, ii, 0x30,  (alt_u8 *)&data, 1);
//        usleep(10000);
//    }
//

		if(print){
   22440:	d0a07417 	ldw	r2,-32304(gp)
   22444:	10000626 	beq	r2,zero,22460 <MipiCameraInit+0x78>
			 OV8865DB("\nStart MipiCameraInit -OV8865!\r\n");
   22448:	010000b4 	movhi	r4,2
   2244c:	21161604 	addi	r4,r4,22616
   22450:	0023dc80 	call	23dc8 <puts>
			 OV8865DB("Write Read Test!\n");
   22454:	010000b4 	movhi	r4,2
   22458:	21161e04 	addi	r4,r4,22648
   2245c:	0023dc80 	call	23dc8 <puts>
//		OV8865_write_cmos_sensor_8(0x0100, 0x01);
//}


void MipiCameraInit(void)
{
   22460:	0021883a 	mov	r16,zero

		if(print){
			 OV8865DB("\nStart MipiCameraInit -OV8865!\r\n");
			 OV8865DB("Write Read Test!\n");
		}
	    for(i=0;i<10;i++){
   22464:	04400284 	movi	r17,10
	       OV8865_write_cmos_sensor_8(0x3809,i);
   22468:	800b883a 	mov	r5,r16
   2246c:	010e0244 	movi	r4,14345
   22470:	0021cf80 	call	21cf8 <OV8865_write_cmos_sensor_8>
	      usleep(100);
   22474:	01001904 	movi	r4,100
   22478:	00252380 	call	25238 <usleep>
	      	  if (print){
   2247c:	d0a07417 	ldw	r2,-32304(gp)
   22480:	10000726 	beq	r2,zero,224a0 <MipiCameraInit+0xb8>
	      		  printf("%d (%d)\n",OV8865_read_cmos_sensor_8(0x3809),i);
   22484:	010e0244 	movi	r4,14345
   22488:	0021cc00 	call	21cc0 <OV8865_read_cmos_sensor_8>
   2248c:	010000b4 	movhi	r4,2
   22490:	800d883a 	mov	r6,r16
   22494:	11403fcc 	andi	r5,r2,255
   22498:	21162304 	addi	r4,r4,22668
   2249c:	0023cd80 	call	23cd8 <printf>
	      	  }
	      usleep(100);
   224a0:	01001904 	movi	r4,100

		if(print){
			 OV8865DB("\nStart MipiCameraInit -OV8865!\r\n");
			 OV8865DB("Write Read Test!\n");
		}
	    for(i=0;i<10;i++){
   224a4:	84000044 	addi	r16,r16,1
	       OV8865_write_cmos_sensor_8(0x3809,i);
	      usleep(100);
	      	  if (print){
	      		  printf("%d (%d)\n",OV8865_read_cmos_sensor_8(0x3809),i);
	      	  }
	      usleep(100);
   224a8:	00252380 	call	25238 <usleep>

		if(print){
			 OV8865DB("\nStart MipiCameraInit -OV8865!\r\n");
			 OV8865DB("Write Read Test!\n");
		}
	    for(i=0;i<10;i++){
   224ac:	847fee1e 	bne	r16,r17,22468 <__alt_data_end+0xffff3a08>
   224b0:	040000b4 	movhi	r16,2
   224b4:	84162f04 	addi	r16,r16,22716
   224b8:	0023883a 	mov	r17,zero
	      usleep(100);
	    }
	 num = sizeof(MipiCameraReg)/sizeof(MipiCameraReg[0]);
     for(i=0;i<num;i++){

    	 if (MipiCameraReg[i].Type == TIME_DELAY)   usleep(MipiCameraReg[i].Data*100);
   224bc:	84bfff04 	addi	r18,r16,-4
   224c0:	04c000c4 	movi	r19,3
    	 else if(MipiCameraReg[i].Type == END_OF_SCRIPT)   break;
   224c4:	05000104 	movi	r20,4
    	 else if(MipiCameraReg[i].Type == 0x6c)   OV8865_write_cmos_sensor_8(MipiCameraReg[i].Addr, MipiCameraReg[i].Data);
   224c8:	05401b04 	movi	r21,108
	      usleep(100);
	    }
	 num = sizeof(MipiCameraReg)/sizeof(MipiCameraReg[0]);
     for(i=0;i<num;i++){

    	 if (MipiCameraReg[i].Type == TIME_DELAY)   usleep(MipiCameraReg[i].Data*100);
   224cc:	8c85883a 	add	r2,r17,r18
   224d0:	10800003 	ldbu	r2,0(r2)
   224d4:	14c0041e 	bne	r2,r19,224e8 <MipiCameraInit+0x100>
   224d8:	81000003 	ldbu	r4,0(r16)
   224dc:	21001924 	muli	r4,r4,100
   224e0:	00252380 	call	25238 <usleep>
   224e4:	00001506 	br	2253c <MipiCameraInit+0x154>
    	 else if(MipiCameraReg[i].Type == END_OF_SCRIPT)   break;
   224e8:	1500101e 	bne	r2,r20,2252c <MipiCameraInit+0x144>
    	 else if(MipiCameraReg[i].Type == 0x6c)   OV8865_write_cmos_sensor_8(MipiCameraReg[i].Addr, MipiCameraReg[i].Data);
     }


 	oc_i2c_uninit(I2C_OPENCORES_CAMERA_BASE);  // Release I2C bus , due to two I2C master shared!
   224ec:	010000f4 	movhi	r4,3
   224f0:	210f3804 	addi	r4,r4,15584
   224f4:	002014c0 	call	2014c <oc_i2c_uninit>


 	if (print){
   224f8:	d0a07417 	ldw	r2,-32304(gp)
   224fc:	10001426 	beq	r2,zero,22550 <MipiCameraInit+0x168>
 		OV8865DB("\nEnd MipiCameraInit! -OV8865!\r\n\n");
   22500:	010000b4 	movhi	r4,2
   22504:	21162604 	addi	r4,r4,22680
 	}
}
   22508:	dfc00617 	ldw	ra,24(sp)
   2250c:	dd400517 	ldw	r21,20(sp)
   22510:	dd000417 	ldw	r20,16(sp)
   22514:	dcc00317 	ldw	r19,12(sp)
   22518:	dc800217 	ldw	r18,8(sp)
   2251c:	dc400117 	ldw	r17,4(sp)
   22520:	dc000017 	ldw	r16,0(sp)
   22524:	dec00704 	addi	sp,sp,28

 	oc_i2c_uninit(I2C_OPENCORES_CAMERA_BASE);  // Release I2C bus , due to two I2C master shared!


 	if (print){
 		OV8865DB("\nEnd MipiCameraInit! -OV8865!\r\n\n");
   22528:	0023dc81 	jmpi	23dc8 <puts>
	 num = sizeof(MipiCameraReg)/sizeof(MipiCameraReg[0]);
     for(i=0;i<num;i++){

    	 if (MipiCameraReg[i].Type == TIME_DELAY)   usleep(MipiCameraReg[i].Data*100);
    	 else if(MipiCameraReg[i].Type == END_OF_SCRIPT)   break;
    	 else if(MipiCameraReg[i].Type == 0x6c)   OV8865_write_cmos_sensor_8(MipiCameraReg[i].Addr, MipiCameraReg[i].Data);
   2252c:	1540031e 	bne	r2,r21,2253c <MipiCameraInit+0x154>
   22530:	81400003 	ldbu	r5,0(r16)
   22534:	813fff8b 	ldhu	r4,-2(r16)
   22538:	0021cf80 	call	21cf8 <OV8865_write_cmos_sensor_8>
   2253c:	8c400184 	addi	r17,r17,6
	      		  printf("%d (%d)\n",OV8865_read_cmos_sensor_8(0x3809),i);
	      	  }
	      usleep(100);
	    }
	 num = sizeof(MipiCameraReg)/sizeof(MipiCameraReg[0]);
     for(i=0;i<num;i++){
   22540:	0081dd04 	movi	r2,1908
   22544:	84000184 	addi	r16,r16,6
   22548:	88bfe01e 	bne	r17,r2,224cc <__alt_data_end+0xffff3a6c>
   2254c:	003fe706 	br	224ec <__alt_data_end+0xffff3a8c>


 	if (print){
 		OV8865DB("\nEnd MipiCameraInit! -OV8865!\r\n\n");
 	}
}
   22550:	dfc00617 	ldw	ra,24(sp)
   22554:	dd400517 	ldw	r21,20(sp)
   22558:	dd000417 	ldw	r20,16(sp)
   2255c:	dcc00317 	ldw	r19,12(sp)
   22560:	dc800217 	ldw	r18,8(sp)
   22564:	dc400117 	ldw	r17,4(sp)
   22568:	dc000017 	ldw	r16,0(sp)
   2256c:	dec00704 	addi	sp,sp,28
   22570:	f800283a 	ret

00022574 <mipi_clear_error>:

#include "mipi_setup.h"


void mipi_clear_error(void){
   22574:	defffe04 	addi	sp,sp,-8
	MipiBridgeRegWrite(MIPI_REG_CSIStatus,0x01FF); // clear error
   22578:	01407fc4 	movi	r5,511
   2257c:	01001904 	movi	r4,100

#include "mipi_setup.h"


void mipi_clear_error(void){
   22580:	dfc00115 	stw	ra,4(sp)
   22584:	dc000015 	stw	r16,0(sp)
	MipiBridgeRegWrite(MIPI_REG_CSIStatus,0x01FF); // clear error
   22588:	0021b5c0 	call	21b5c <MipiBridgeRegWrite>
	MipiBridgeRegWrite(MIPI_REG_MDLSynErr,0x0000); // clear error
   2258c:	000b883a 	mov	r5,zero
   22590:	01001a04 	movi	r4,104
   22594:	0021b5c0 	call	21b5c <MipiBridgeRegWrite>
	MipiBridgeRegWrite(MIPI_REG_FrmErrCnt,0x0000); // clear error
   22598:	000b883a 	mov	r5,zero
   2259c:	01002004 	movi	r4,128
   225a0:	0021b5c0 	call	21b5c <MipiBridgeRegWrite>
	MipiBridgeRegWrite(MIPI_REG_MDLErrCnt, 0x0000); // clear error
   225a4:	04002404 	movi	r16,144
   225a8:	8009883a 	mov	r4,r16
   225ac:	000b883a 	mov	r5,zero
   225b0:	0021b5c0 	call	21b5c <MipiBridgeRegWrite>

  	MipiBridgeRegWrite(0x0082,0x00);
   225b4:	000b883a 	mov	r5,zero
   225b8:	01002084 	movi	r4,130
   225bc:	0021b5c0 	call	21b5c <MipiBridgeRegWrite>
  	MipiBridgeRegWrite(0x0084,0x00);
   225c0:	000b883a 	mov	r5,zero
   225c4:	01002104 	movi	r4,132
   225c8:	0021b5c0 	call	21b5c <MipiBridgeRegWrite>
  	MipiBridgeRegWrite(0x0086,0x00);
   225cc:	000b883a 	mov	r5,zero
   225d0:	01002184 	movi	r4,134
   225d4:	0021b5c0 	call	21b5c <MipiBridgeRegWrite>
  	MipiBridgeRegWrite(0x0088,0x00);
   225d8:	000b883a 	mov	r5,zero
   225dc:	01002204 	movi	r4,136
   225e0:	0021b5c0 	call	21b5c <MipiBridgeRegWrite>
  	MipiBridgeRegWrite(0x008A,0x00);
   225e4:	000b883a 	mov	r5,zero
   225e8:	01002284 	movi	r4,138
   225ec:	0021b5c0 	call	21b5c <MipiBridgeRegWrite>
  	MipiBridgeRegWrite(0x008C,0x00);
   225f0:	000b883a 	mov	r5,zero
   225f4:	01002304 	movi	r4,140
   225f8:	0021b5c0 	call	21b5c <MipiBridgeRegWrite>
  	MipiBridgeRegWrite(0x008E,0x00);
   225fc:	000b883a 	mov	r5,zero
   22600:	01002384 	movi	r4,142
   22604:	0021b5c0 	call	21b5c <MipiBridgeRegWrite>
  	MipiBridgeRegWrite(0x0090,0x00);
   22608:	000b883a 	mov	r5,zero
   2260c:	8009883a 	mov	r4,r16
}
   22610:	dfc00117 	ldw	ra,4(sp)
   22614:	dc000017 	ldw	r16,0(sp)
   22618:	dec00204 	addi	sp,sp,8
  	MipiBridgeRegWrite(0x0086,0x00);
  	MipiBridgeRegWrite(0x0088,0x00);
  	MipiBridgeRegWrite(0x008A,0x00);
  	MipiBridgeRegWrite(0x008C,0x00);
  	MipiBridgeRegWrite(0x008E,0x00);
  	MipiBridgeRegWrite(0x0090,0x00);
   2261c:	0021b5c1 	jmpi	21b5c <MipiBridgeRegWrite>

00022620 <mipi_show_error_info>:
}

void mipi_show_error_info(void){
   22620:	defff904 	addi	sp,sp,-28

	alt_u16 PHY_status, SCI_status, MDLSynErr, FrmErrCnt, MDLErrCnt;

	PHY_status = MipiBridgeRegRead(MIPI_REG_PHYSta);
   22624:	01001884 	movi	r4,98
  	MipiBridgeRegWrite(0x008C,0x00);
  	MipiBridgeRegWrite(0x008E,0x00);
  	MipiBridgeRegWrite(0x0090,0x00);
}

void mipi_show_error_info(void){
   22628:	dfc00615 	stw	ra,24(sp)
   2262c:	dcc00515 	stw	r19,20(sp)
   22630:	dc800415 	stw	r18,16(sp)
   22634:	dc400315 	stw	r17,12(sp)
   22638:	dc000215 	stw	r16,8(sp)

	alt_u16 PHY_status, SCI_status, MDLSynErr, FrmErrCnt, MDLErrCnt;

	PHY_status = MipiBridgeRegRead(MIPI_REG_PHYSta);
   2263c:	0021b940 	call	21b94 <MipiBridgeRegRead>
	SCI_status = MipiBridgeRegRead(MIPI_REG_CSIStatus);
   22640:	01001904 	movi	r4,100

void mipi_show_error_info(void){

	alt_u16 PHY_status, SCI_status, MDLSynErr, FrmErrCnt, MDLErrCnt;

	PHY_status = MipiBridgeRegRead(MIPI_REG_PHYSta);
   22644:	1023883a 	mov	r17,r2
	SCI_status = MipiBridgeRegRead(MIPI_REG_CSIStatus);
   22648:	0021b940 	call	21b94 <MipiBridgeRegRead>
	MDLSynErr = MipiBridgeRegRead(MIPI_REG_MDLSynErr);
   2264c:	01001a04 	movi	r4,104
void mipi_show_error_info(void){

	alt_u16 PHY_status, SCI_status, MDLSynErr, FrmErrCnt, MDLErrCnt;

	PHY_status = MipiBridgeRegRead(MIPI_REG_PHYSta);
	SCI_status = MipiBridgeRegRead(MIPI_REG_CSIStatus);
   22650:	1025883a 	mov	r18,r2
	MDLSynErr = MipiBridgeRegRead(MIPI_REG_MDLSynErr);
   22654:	0021b940 	call	21b94 <MipiBridgeRegRead>
	FrmErrCnt = MipiBridgeRegRead(MIPI_REG_FrmErrCnt);
   22658:	01002004 	movi	r4,128

	alt_u16 PHY_status, SCI_status, MDLSynErr, FrmErrCnt, MDLErrCnt;

	PHY_status = MipiBridgeRegRead(MIPI_REG_PHYSta);
	SCI_status = MipiBridgeRegRead(MIPI_REG_CSIStatus);
	MDLSynErr = MipiBridgeRegRead(MIPI_REG_MDLSynErr);
   2265c:	1027883a 	mov	r19,r2
	FrmErrCnt = MipiBridgeRegRead(MIPI_REG_FrmErrCnt);
   22660:	0021b940 	call	21b94 <MipiBridgeRegRead>
	MDLErrCnt = MipiBridgeRegRead(MIPI_REG_MDLErrCnt);
   22664:	01002404 	movi	r4,144
	alt_u16 PHY_status, SCI_status, MDLSynErr, FrmErrCnt, MDLErrCnt;

	PHY_status = MipiBridgeRegRead(MIPI_REG_PHYSta);
	SCI_status = MipiBridgeRegRead(MIPI_REG_CSIStatus);
	MDLSynErr = MipiBridgeRegRead(MIPI_REG_MDLSynErr);
	FrmErrCnt = MipiBridgeRegRead(MIPI_REG_FrmErrCnt);
   22668:	1021883a 	mov	r16,r2
	MDLErrCnt = MipiBridgeRegRead(MIPI_REG_MDLErrCnt);
   2266c:	0021b940 	call	21b94 <MipiBridgeRegRead>
	if (print){
   22670:	d0e07417 	ldw	r3,-32304(gp)
   22674:	18000a26 	beq	r3,zero,226a0 <mipi_show_error_info+0x80>
	printf("PHY_status=%xh, CSI_status=%xh, MDLSynErr=%xh, FrmErrCnt=%xh, MDLErrCnt=%xh\r\n", PHY_status, SCI_status, MDLSynErr,FrmErrCnt, MDLErrCnt);
   22678:	10bfffcc 	andi	r2,r2,65535
   2267c:	843fffcc 	andi	r16,r16,65535
   22680:	010000b4 	movhi	r4,2
   22684:	d8800115 	stw	r2,4(sp)
   22688:	dc000015 	stw	r16,0(sp)
   2268c:	99ffffcc 	andi	r7,r19,65535
   22690:	91bfffcc 	andi	r6,r18,65535
   22694:	897fffcc 	andi	r5,r17,65535
   22698:	21180b04 	addi	r4,r4,24620
   2269c:	0023cd80 	call	23cd8 <printf>
	}
}
   226a0:	dfc00617 	ldw	ra,24(sp)
   226a4:	dcc00517 	ldw	r19,20(sp)
   226a8:	dc800417 	ldw	r18,16(sp)
   226ac:	dc400317 	ldw	r17,12(sp)
   226b0:	dc000217 	ldw	r16,8(sp)
   226b4:	dec00704 	addi	sp,sp,28
   226b8:	f800283a 	ret

000226bc <mipi_show_error_info_more>:

void mipi_show_error_info_more(void){
	if (print){
   226bc:	d0a07417 	ldw	r2,-32304(gp)
   226c0:	10004c26 	beq	r2,zero,227f4 <mipi_show_error_info_more+0x138>
	if (print){
	printf("PHY_status=%xh, CSI_status=%xh, MDLSynErr=%xh, FrmErrCnt=%xh, MDLErrCnt=%xh\r\n", PHY_status, SCI_status, MDLSynErr,FrmErrCnt, MDLErrCnt);
	}
}

void mipi_show_error_info_more(void){
   226c4:	deffff04 	addi	sp,sp,-4
	if (print){
		printf("FrmErrCnt = %d\n",MipiBridgeRegRead(0x0080));
   226c8:	01002004 	movi	r4,128
	if (print){
	printf("PHY_status=%xh, CSI_status=%xh, MDLSynErr=%xh, FrmErrCnt=%xh, MDLErrCnt=%xh\r\n", PHY_status, SCI_status, MDLSynErr,FrmErrCnt, MDLErrCnt);
	}
}

void mipi_show_error_info_more(void){
   226cc:	dfc00015 	stw	ra,0(sp)
	if (print){
		printf("FrmErrCnt = %d\n",MipiBridgeRegRead(0x0080));
   226d0:	0021b940 	call	21b94 <MipiBridgeRegRead>
   226d4:	010000b4 	movhi	r4,2
   226d8:	100b883a 	mov	r5,r2
   226dc:	21181f04 	addi	r4,r4,24700
   226e0:	0023cd80 	call	23cd8 <printf>
		printf("CRCErrCnt = %d\n",MipiBridgeRegRead(0x0082));
   226e4:	01002084 	movi	r4,130
   226e8:	0021b940 	call	21b94 <MipiBridgeRegRead>
   226ec:	010000b4 	movhi	r4,2
   226f0:	100b883a 	mov	r5,r2
   226f4:	21182304 	addi	r4,r4,24716
   226f8:	0023cd80 	call	23cd8 <printf>
		printf("CorErrCnt = %d\n",MipiBridgeRegRead(0x0084));
   226fc:	01002104 	movi	r4,132
   22700:	0021b940 	call	21b94 <MipiBridgeRegRead>
   22704:	010000b4 	movhi	r4,2
   22708:	100b883a 	mov	r5,r2
   2270c:	21182704 	addi	r4,r4,24732
   22710:	0023cd80 	call	23cd8 <printf>
		printf("HdrErrCnt = %d\n",MipiBridgeRegRead(0x0086));
   22714:	01002184 	movi	r4,134
   22718:	0021b940 	call	21b94 <MipiBridgeRegRead>
   2271c:	010000b4 	movhi	r4,2
   22720:	100b883a 	mov	r5,r2
   22724:	21182b04 	addi	r4,r4,24748
   22728:	0023cd80 	call	23cd8 <printf>
		printf("EIDErrCnt = %d\n",MipiBridgeRegRead(0x0088));
   2272c:	01002204 	movi	r4,136
   22730:	0021b940 	call	21b94 <MipiBridgeRegRead>
   22734:	010000b4 	movhi	r4,2
   22738:	100b883a 	mov	r5,r2
   2273c:	21182f04 	addi	r4,r4,24764
   22740:	0023cd80 	call	23cd8 <printf>
		printf("CtlErrCnt = %d\n",MipiBridgeRegRead(0x008A));
   22744:	01002284 	movi	r4,138
   22748:	0021b940 	call	21b94 <MipiBridgeRegRead>
   2274c:	010000b4 	movhi	r4,2
   22750:	100b883a 	mov	r5,r2
   22754:	21183304 	addi	r4,r4,24780
   22758:	0023cd80 	call	23cd8 <printf>
		printf("SoTErrCnt = %d\n",MipiBridgeRegRead(0x008C));
   2275c:	01002304 	movi	r4,140
   22760:	0021b940 	call	21b94 <MipiBridgeRegRead>
   22764:	010000b4 	movhi	r4,2
   22768:	100b883a 	mov	r5,r2
   2276c:	21183704 	addi	r4,r4,24796
   22770:	0023cd80 	call	23cd8 <printf>
		printf("SynErrCnt = %d\n",MipiBridgeRegRead(0x008E));
   22774:	01002384 	movi	r4,142
   22778:	0021b940 	call	21b94 <MipiBridgeRegRead>
   2277c:	010000b4 	movhi	r4,2
   22780:	100b883a 	mov	r5,r2
   22784:	21183b04 	addi	r4,r4,24812
   22788:	0023cd80 	call	23cd8 <printf>
		printf("MDLErrCnt = %d\n",MipiBridgeRegRead(0x0090));
   2278c:	01002404 	movi	r4,144
   22790:	0021b940 	call	21b94 <MipiBridgeRegRead>
   22794:	010000b4 	movhi	r4,2
   22798:	100b883a 	mov	r5,r2
   2279c:	21183f04 	addi	r4,r4,24828
   227a0:	0023cd80 	call	23cd8 <printf>
		printf("FIFOSTATUS = %d\n",MipiBridgeRegRead(0x00F8));
   227a4:	01003e04 	movi	r4,248
   227a8:	0021b940 	call	21b94 <MipiBridgeRegRead>
   227ac:	010000b4 	movhi	r4,2
   227b0:	100b883a 	mov	r5,r2
   227b4:	21184304 	addi	r4,r4,24844
   227b8:	0023cd80 	call	23cd8 <printf>
		printf("DataType = 0x%04x\n",MipiBridgeRegRead(0x006A));
   227bc:	01001a84 	movi	r4,106
   227c0:	0021b940 	call	21b94 <MipiBridgeRegRead>
   227c4:	010000b4 	movhi	r4,2
   227c8:	100b883a 	mov	r5,r2
   227cc:	21184804 	addi	r4,r4,24864
   227d0:	0023cd80 	call	23cd8 <printf>
		printf("CSIPktLen = %d\n",MipiBridgeRegRead(0x006E));
   227d4:	01001b84 	movi	r4,110
   227d8:	0021b940 	call	21b94 <MipiBridgeRegRead>
   227dc:	010000b4 	movhi	r4,2
   227e0:	100b883a 	mov	r5,r2
   227e4:	21184d04 	addi	r4,r4,24884
	}
}
   227e8:	dfc00017 	ldw	ra,0(sp)
   227ec:	dec00104 	addi	sp,sp,4
		printf("SoTErrCnt = %d\n",MipiBridgeRegRead(0x008C));
		printf("SynErrCnt = %d\n",MipiBridgeRegRead(0x008E));
		printf("MDLErrCnt = %d\n",MipiBridgeRegRead(0x0090));
		printf("FIFOSTATUS = %d\n",MipiBridgeRegRead(0x00F8));
		printf("DataType = 0x%04x\n",MipiBridgeRegRead(0x006A));
		printf("CSIPktLen = %d\n",MipiBridgeRegRead(0x006E));
   227f0:	0023cd81 	jmpi	23cd8 <printf>
   227f4:	f800283a 	ret

000227f8 <MIPI_Init>:

bool MIPI_Init(void){
	bool bSuccess;


	bSuccess = oc_i2c_init_ex(I2C_OPENCORES_MIPI_BASE, 50*1000*1000,400*1000); //I2C: 400K
   227f8:	018001b4 	movhi	r6,6
   227fc:	0140bef4 	movhi	r5,763
   22800:	010000f4 	movhi	r4,3
	}
}



bool MIPI_Init(void){
   22804:	defffe04 	addi	sp,sp,-8
	bool bSuccess;


	bSuccess = oc_i2c_init_ex(I2C_OPENCORES_MIPI_BASE, 50*1000*1000,400*1000); //I2C: 400K
   22808:	3186a004 	addi	r6,r6,6784
   2280c:	297c2004 	addi	r5,r5,-3968
   22810:	210f4004 	addi	r4,r4,15616
	}
}



bool MIPI_Init(void){
   22814:	dc000015 	stw	r16,0(sp)
   22818:	dfc00115 	stw	ra,4(sp)
	bool bSuccess;


	bSuccess = oc_i2c_init_ex(I2C_OPENCORES_MIPI_BASE, 50*1000*1000,400*1000); //I2C: 400K
   2281c:	00200a00 	call	200a0 <oc_i2c_init_ex>
	if (!bSuccess & print)
   22820:	1007003a 	cmpeq	r3,r2,zero

bool MIPI_Init(void){
	bool bSuccess;


	bSuccess = oc_i2c_init_ex(I2C_OPENCORES_MIPI_BASE, 50*1000*1000,400*1000); //I2C: 400K
   22824:	1021883a 	mov	r16,r2
	if (!bSuccess & print)
   22828:	d0a07417 	ldw	r2,-32304(gp)
   2282c:	1884703a 	and	r2,r3,r2
   22830:	10000326 	beq	r2,zero,22840 <MIPI_Init+0x48>
		printf("failed to init MIPI- Bridge i2c\r\n");
   22834:	010000b4 	movhi	r4,2
   22838:	21185104 	addi	r4,r4,24900
   2283c:	0023dc80 	call	23dc8 <puts>

    usleep(50*1000);
   22840:	0130d414 	movui	r4,50000
   22844:	00252380 	call	25238 <usleep>
    MipiBridgeInit();
   22848:	0021bd80 	call	21bd8 <MipiBridgeInit>

    usleep(500*1000);
   2284c:	01000234 	movhi	r4,8
   22850:	21284804 	addi	r4,r4,-24288
   22854:	00252380 	call	25238 <usleep>

    MipiCameraInit();
   22858:	00223e80 	call	223e8 <MipiCameraInit>
    MIPI_BIN_LEVEL(DEFAULT_LEVEL);
   2285c:	010000c4 	movi	r4,3
   22860:	00222580 	call	22258 <MIPI_BIN_LEVEL>

 	usleep(1000);
   22864:	0100fa04 	movi	r4,1000
   22868:	00252380 	call	25238 <usleep>
	return bSuccess;
}
   2286c:	8005883a 	mov	r2,r16
   22870:	dfc00117 	ldw	ra,4(sp)
   22874:	dc000017 	ldw	r16,0(sp)
   22878:	dec00204 	addi	sp,sp,8
   2287c:	f800283a 	ret

00022880 <one_pipeline>:
#include "pipeline.h"

void one_pipeline(){
	if (slow == 1) usleep(1000000);
   22880:	d0e07817 	ldw	r3,-32288(gp)
#include "pipeline.h"

void one_pipeline(){
   22884:	defff504 	addi	sp,sp,-44
   22888:	dfc00a15 	stw	ra,40(sp)
   2288c:	df000915 	stw	fp,36(sp)
   22890:	ddc00815 	stw	r23,32(sp)
   22894:	dd800715 	stw	r22,28(sp)
   22898:	dd400615 	stw	r21,24(sp)
   2289c:	dd000515 	stw	r20,20(sp)
   228a0:	dcc00415 	stw	r19,16(sp)
   228a4:	dc800315 	stw	r18,12(sp)
   228a8:	dc400215 	stw	r17,8(sp)
   228ac:	dc000115 	stw	r16,4(sp)
	if (slow == 1) usleep(1000000);
   228b0:	00800044 	movi	r2,1
   228b4:	1880031e 	bne	r3,r2,228c4 <one_pipeline+0x44>
   228b8:	010003f4 	movhi	r4,15
   228bc:	21109004 	addi	r4,r4,16960
   228c0:	00252380 	call	25238 <usleep>
		  	  if (!halt){
   228c4:	d0a08117 	ldw	r2,-32252(gp)
   228c8:	1000ea1e 	bne	r2,zero,22c74 <one_pipeline+0x3f4>

				code = observations[observation_idx].code;
   228cc:	d0a07b17 	ldw	r2,-32276(gp)
   228d0:	d0e07717 	ldw	r3,-32292(gp)
   228d4:	10800b24 	muli	r2,r2,44
   228d8:	1885883a 	add	r2,r3,r2
   228dc:	10800003 	ldbu	r2,0(r2)
				//printf("Code: %c", code);

				//Apply HSV transform
				IOWR(RGB_TO_HSV_BASE, HSV_ENABLED, 0x1);
   228e0:	00c00044 	movi	r3,1

void one_pipeline(){
	if (slow == 1) usleep(1000000);
		  	  if (!halt){

				code = observations[observation_idx].code;
   228e4:	d0a08205 	stb	r2,-32248(gp)
				//printf("Code: %c", code);

				//Apply HSV transform
				IOWR(RGB_TO_HSV_BASE, HSV_ENABLED, 0x1);
   228e8:	008000f4 	movhi	r2,3
   228ec:	108ee004 	addi	r2,r2,15232
   228f0:	10c00035 	stwio	r3,0(r2)



				//Color filter setup
				if (observations[observation_idx].code == 'W' || observations[observation_idx].code == 'X'){
   228f4:	d0a07b17 	ldw	r2,-32276(gp)
   228f8:	d1207717 	ldw	r4,-32292(gp)
   228fc:	070000f4 	movhi	fp,3
   22900:	10800b24 	muli	r2,r2,44
   22904:	05c000f4 	movhi	r23,3
   22908:	058000f4 	movhi	r22,3
   2290c:	2085883a 	add	r2,r4,r2
   22910:	10800003 	ldbu	r2,0(r2)
   22914:	010000f4 	movhi	r4,3
   22918:	054000f4 	movhi	r21,3
   2291c:	10bfea44 	addi	r2,r2,-87
   22920:	050000f4 	movhi	r20,3
   22924:	04c000f4 	movhi	r19,3
   22928:	048000f4 	movhi	r18,3
   2292c:	044000f4 	movhi	r17,3
   22930:	040000f4 	movhi	r16,3
   22934:	10803fcc 	andi	r2,r2,255
   22938:	210f0204 	addi	r4,r4,15368
   2293c:	e70ef804 	addi	fp,fp,15328
   22940:	bdcef904 	addi	r23,r23,15332
   22944:	b58efa04 	addi	r22,r22,15336
   22948:	ad4ef004 	addi	r21,r21,15296
   2294c:	a50ef304 	addi	r20,r20,15308
   22950:	9ccef104 	addi	r19,r19,15300
   22954:	948ef204 	addi	r18,r18,15304
   22958:	8c4ef404 	addi	r17,r17,15312
   2295c:	840ef504 	addi	r16,r16,15316
   22960:	18807936 	bltu	r3,r2,22b48 <one_pipeline+0x2c8>
					IOWR(COLOR_FILTER_0_BASE, APPLY_MASK, 0);
   22964:	20000035 	stwio	zero,0(r4)

					if (observations[observation_idx].code == 'W' ){
   22968:	d0a07b17 	ldw	r2,-32276(gp)
   2296c:	d0e07717 	ldw	r3,-32292(gp)
   22970:	10800b24 	muli	r2,r2,44
   22974:	1885883a 	add	r2,r3,r2
   22978:	10800007 	ldb	r2,0(r2)
   2297c:	00c015c4 	movi	r3,87
   22980:	10c0041e 	bne	r2,r3,22994 <one_pipeline+0x114>
						fir_load_sobel(FIR_0_0_BASE);
   22984:	010000f4 	movhi	r4,3
   22988:	210a0004 	addi	r4,r4,10240
   2298c:	0020fd80 	call	20fd8 <fir_load_sobel>
   22990:	00000506 	br	229a8 <one_pipeline+0x128>
						fir_load_vertical(FIR_0_1_BASE);

					}else if (observations[observation_idx].code == 'X'){
   22994:	00c01604 	movi	r3,88
   22998:	10c0061e 	bne	r2,r3,229b4 <one_pipeline+0x134>
						fir_load_inv_sobel(FIR_0_0_BASE);
   2299c:	010000f4 	movhi	r4,3
   229a0:	210a0004 	addi	r4,r4,10240
   229a4:	00210180 	call	21018 <fir_load_inv_sobel>
						fir_load_vertical(FIR_0_1_BASE);
   229a8:	010000f4 	movhi	r4,3
   229ac:	21060004 	addi	r4,r4,6144
   229b0:	00210580 	call	21058 <fir_load_vertical>
					}

					//COM counter setup
					IOWR(COM_COUNTER_0_BASE, THRESH_ENABLED, 1);
   229b4:	00800044 	movi	r2,1
   229b8:	e0800035 	stwio	r2,0(fp)
					IOWR(COM_COUNTER_0_BASE, THRESH_Y, 100);
   229bc:	00801904 	movi	r2,100
   229c0:	b8800035 	stwio	r2,0(r23)
					IOWR(COM_COUNTER_0_BASE, THRESH_X, 10);
   229c4:	00800284 	movi	r2,10
   229c8:	b0800035 	stwio	r2,0(r22)
					IOWR(COM_COUNTER_0_BASE, THRESHOLD_GATE, observations[observation_idx].threshold);
   229cc:	d0a07b17 	ldw	r2,-32276(gp)
   229d0:	d0e07717 	ldw	r3,-32292(gp)
   229d4:	10800b24 	muli	r2,r2,44
   229d8:	1885883a 	add	r2,r3,r2
   229dc:	10800317 	ldw	r2,12(r2)
   229e0:	a8800035 	stwio	r2,0(r21)


					//Wait two frame times
						usleep(delay);
   229e4:	d1207f17 	ldw	r4,-32260(gp)
   229e8:	00252380 	call	25238 <usleep>


					//Collect results
					observations[observation_idx].mass = IORD(COM_COUNTER_0_BASE, COM_MASS);
   229ec:	d5a07b17 	ldw	r22,-32276(gp)
   229f0:	d5e07717 	ldw	r23,-32292(gp)
   229f4:	b5400b24 	muli	r21,r22,44
   229f8:	bd6b883a 	add	r21,r23,r21
   229fc:	a5000037 	ldwio	r20,0(r20)
   22a00:	ad000615 	stw	r20,24(r21)
					observations[observation_idx].com_x = IORD(COM_COUNTER_0_BASE, COM_X)/observations[observation_idx].mass;
   22a04:	99000037 	ldwio	r4,0(r19)
   22a08:	a00b883a 	mov	r5,r20
   22a0c:	00238840 	call	23884 <__divsi3>
   22a10:	a8800415 	stw	r2,16(r21)
					observations[observation_idx].com_y = IORD(COM_COUNTER_0_BASE, COM_Y)/observations[observation_idx].mass;
   22a14:	91000037 	ldwio	r4,0(r18)
   22a18:	a00b883a 	mov	r5,r20
   22a1c:	00238840 	call	23884 <__divsi3>
   22a20:	a8800515 	stw	r2,20(r21)

					observations[observation_idx].bb_left = IORD(COM_COUNTER_0_BASE, BB_LOW_X);
   22a24:	88800037 	ldwio	r2,0(r17)
   22a28:	a8800715 	stw	r2,28(r21)
					observations[observation_idx].bb_top = IORD(COM_COUNTER_0_BASE, BB_LOW_Y);
   22a2c:	80800037 	ldwio	r2,0(r16)
					observations[observation_idx].bb_right = IORD(COM_COUNTER_0_BASE, BB_HIGH_X);
   22a30:	00c000f4 	movhi	r3,3
   22a34:	18cef604 	addi	r3,r3,15320
					observations[observation_idx].mass = IORD(COM_COUNTER_0_BASE, COM_MASS);
					observations[observation_idx].com_x = IORD(COM_COUNTER_0_BASE, COM_X)/observations[observation_idx].mass;
					observations[observation_idx].com_y = IORD(COM_COUNTER_0_BASE, COM_Y)/observations[observation_idx].mass;

					observations[observation_idx].bb_left = IORD(COM_COUNTER_0_BASE, BB_LOW_X);
					observations[observation_idx].bb_top = IORD(COM_COUNTER_0_BASE, BB_LOW_Y);
   22a38:	a8800815 	stw	r2,32(r21)
					observations[observation_idx].bb_right = IORD(COM_COUNTER_0_BASE, BB_HIGH_X);
   22a3c:	18800037 	ldwio	r2,0(r3)
					observations[observation_idx].bb_bottom = IORD(COM_COUNTER_0_BASE, BB_HIGH_Y);
   22a40:	00c000f4 	movhi	r3,3
   22a44:	18cef704 	addi	r3,r3,15324
					observations[observation_idx].com_x = IORD(COM_COUNTER_0_BASE, COM_X)/observations[observation_idx].mass;
					observations[observation_idx].com_y = IORD(COM_COUNTER_0_BASE, COM_Y)/observations[observation_idx].mass;

					observations[observation_idx].bb_left = IORD(COM_COUNTER_0_BASE, BB_LOW_X);
					observations[observation_idx].bb_top = IORD(COM_COUNTER_0_BASE, BB_LOW_Y);
					observations[observation_idx].bb_right = IORD(COM_COUNTER_0_BASE, BB_HIGH_X);
   22a48:	a8800915 	stw	r2,36(r21)
					observations[observation_idx].bb_bottom = IORD(COM_COUNTER_0_BASE, BB_HIGH_Y);
   22a4c:	18800037 	ldwio	r2,0(r3)

					if (observations[observation_idx].code == 'W' ){
   22a50:	00c015c4 	movi	r3,87
					observations[observation_idx].com_y = IORD(COM_COUNTER_0_BASE, COM_Y)/observations[observation_idx].mass;

					observations[observation_idx].bb_left = IORD(COM_COUNTER_0_BASE, BB_LOW_X);
					observations[observation_idx].bb_top = IORD(COM_COUNTER_0_BASE, BB_LOW_Y);
					observations[observation_idx].bb_right = IORD(COM_COUNTER_0_BASE, BB_HIGH_X);
					observations[observation_idx].bb_bottom = IORD(COM_COUNTER_0_BASE, BB_HIGH_Y);
   22a54:	a8800a15 	stw	r2,40(r21)

					if (observations[observation_idx].code == 'W' ){
   22a58:	a8800007 	ldb	r2,0(r21)
   22a5c:	10c01f1e 	bne	r2,r3,22adc <one_pipeline+0x25c>
   22a60:	008000f4 	movhi	r2,3
						for (int i = 0; i < 20; i++){
							histogram[i] = IORD(EDGE_BINS_0_BASE, i);
   22a64:	01ffff74 	movhi	r7,65533
   22a68:	018000b4 	movhi	r6,2
					observations[observation_idx].bb_top = IORD(COM_COUNTER_0_BASE, BB_LOW_Y);
					observations[observation_idx].bb_right = IORD(COM_COUNTER_0_BASE, BB_HIGH_X);
					observations[observation_idx].bb_bottom = IORD(COM_COUNTER_0_BASE, BB_HIGH_Y);

					if (observations[observation_idx].code == 'W' ){
						for (int i = 0; i < 20; i++){
   22a6c:	010000f4 	movhi	r4,3
   22a70:	108e0004 	addi	r2,r2,14336
							histogram[i] = IORD(EDGE_BINS_0_BASE, i);
   22a74:	39f20004 	addi	r7,r7,-14336
   22a78:	31998304 	addi	r6,r6,26124
					observations[observation_idx].bb_top = IORD(COM_COUNTER_0_BASE, BB_LOW_Y);
					observations[observation_idx].bb_right = IORD(COM_COUNTER_0_BASE, BB_HIGH_X);
					observations[observation_idx].bb_bottom = IORD(COM_COUNTER_0_BASE, BB_HIGH_Y);

					if (observations[observation_idx].code == 'W' ){
						for (int i = 0; i < 20; i++){
   22a7c:	210e1404 	addi	r4,r4,14416
							histogram[i] = IORD(EDGE_BINS_0_BASE, i);
   22a80:	11400037 	ldwio	r5,0(r2)
   22a84:	11c7883a 	add	r3,r2,r7
   22a88:	1987883a 	add	r3,r3,r6
   22a8c:	19400015 	stw	r5,0(r3)
   22a90:	10800104 	addi	r2,r2,4
					observations[observation_idx].bb_top = IORD(COM_COUNTER_0_BASE, BB_LOW_Y);
					observations[observation_idx].bb_right = IORD(COM_COUNTER_0_BASE, BB_HIGH_X);
					observations[observation_idx].bb_bottom = IORD(COM_COUNTER_0_BASE, BB_HIGH_Y);

					if (observations[observation_idx].code == 'W' ){
						for (int i = 0; i < 20; i++){
   22a94:	113ffa1e 	bne	r2,r4,22a80 <__alt_data_end+0xffff4020>
							histogram[i] = IORD(EDGE_BINS_0_BASE, i);
						}

						stripe_count = IORD(OBSTACLE_DIST_0_BASE, STRIPE_COUNT);
   22a98:	008000f4 	movhi	r2,3
   22a9c:	108eb104 	addi	r2,r2,15044
   22aa0:	10800037 	ldwio	r2,0(r2)
   22aa4:	d0a08315 	stw	r2,-32244(gp)
						stripe_dist = IORD(OBSTACLE_DIST_0_BASE, STRIPE_DIST);
   22aa8:	008000f4 	movhi	r2,3
   22aac:	108eb204 	addi	r2,r2,15048
   22ab0:	10800037 	ldwio	r2,0(r2)
   22ab4:	d0a07a15 	stw	r2,-32280(gp)
						stripe_pos_min = IORD(OBSTACLE_DIST_0_BASE, STRIPE_POS_MIN);
   22ab8:	008000f4 	movhi	r2,3
   22abc:	108eb304 	addi	r2,r2,15052
   22ac0:	10800037 	ldwio	r2,0(r2)
   22ac4:	d0a07c15 	stw	r2,-32272(gp)
						stripe_pos_max = IORD(OBSTACLE_DIST_0_BASE, STRIPE_POS_MAX);
   22ac8:	008000f4 	movhi	r2,3
   22acc:	108eb404 	addi	r2,r2,15056
   22ad0:	10800037 	ldwio	r2,0(r2)
   22ad4:	d0a07d15 	stw	r2,-32268(gp)
   22ad8:	00006006 	br	22c5c <one_pipeline+0x3dc>

					}else if (observations[observation_idx].code == 'X'){
   22adc:	00c01604 	movi	r3,88
   22ae0:	10c05e1e 	bne	r2,r3,22c5c <one_pipeline+0x3dc>
   22ae4:	00c000f4 	movhi	r3,3
						for (int i = 0; i < 20; i++){
							histogram_processed[i] = histogram + IORD(EDGE_BINS_0_BASE, i);
   22ae8:	023fff74 	movhi	r8,65533
   22aec:	01c000b4 	movhi	r7,2
   22af0:	018000b4 	movhi	r6,2
						stripe_dist = IORD(OBSTACLE_DIST_0_BASE, STRIPE_DIST);
						stripe_pos_min = IORD(OBSTACLE_DIST_0_BASE, STRIPE_POS_MIN);
						stripe_pos_max = IORD(OBSTACLE_DIST_0_BASE, STRIPE_POS_MAX);

					}else if (observations[observation_idx].code == 'X'){
						for (int i = 0; i < 20; i++){
   22af4:	014000f4 	movhi	r5,3
   22af8:	18ce0004 	addi	r3,r3,14336
							histogram_processed[i] = histogram + IORD(EDGE_BINS_0_BASE, i);
   22afc:	42320004 	addi	r8,r8,-14336
   22b00:	39d96f04 	addi	r7,r7,26044
   22b04:	31998304 	addi	r6,r6,26124
						stripe_dist = IORD(OBSTACLE_DIST_0_BASE, STRIPE_DIST);
						stripe_pos_min = IORD(OBSTACLE_DIST_0_BASE, STRIPE_POS_MIN);
						stripe_pos_max = IORD(OBSTACLE_DIST_0_BASE, STRIPE_POS_MAX);

					}else if (observations[observation_idx].code == 'X'){
						for (int i = 0; i < 20; i++){
   22b08:	294e1404 	addi	r5,r5,14416
							histogram_processed[i] = histogram + IORD(EDGE_BINS_0_BASE, i);
   22b0c:	18800037 	ldwio	r2,0(r3)
   22b10:	1085883a 	add	r2,r2,r2
   22b14:	1a09883a 	add	r4,r3,r8
   22b18:	1085883a 	add	r2,r2,r2
   22b1c:	21c9883a 	add	r4,r4,r7
   22b20:	1185883a 	add	r2,r2,r6
   22b24:	20800015 	stw	r2,0(r4)
   22b28:	18c00104 	addi	r3,r3,4
						stripe_dist = IORD(OBSTACLE_DIST_0_BASE, STRIPE_DIST);
						stripe_pos_min = IORD(OBSTACLE_DIST_0_BASE, STRIPE_POS_MIN);
						stripe_pos_max = IORD(OBSTACLE_DIST_0_BASE, STRIPE_POS_MAX);

					}else if (observations[observation_idx].code == 'X'){
						for (int i = 0; i < 20; i++){
   22b2c:	197ff71e 	bne	r3,r5,22b0c <__alt_data_end+0xffff40ac>
							histogram_processed[i] = histogram + IORD(EDGE_BINS_0_BASE, i);
						}

						merge_observations(&observations[observation_idx-1], &observations[observation_idx]);
   22b30:	b1400b24 	muli	r5,r22,44
   22b34:	293ff504 	addi	r4,r5,-44
   22b38:	b909883a 	add	r4,r23,r4
   22b3c:	b94b883a 	add	r5,r23,r5
   22b40:	00235d40 	call	235d4 <merge_observations>
   22b44:	00004506 	br	22c5c <one_pipeline+0x3dc>
					}


				}else {
					IOWR(COLOR_FILTER_0_BASE, APPLY_MASK, 1);
   22b48:	20c00035 	stwio	r3,0(r4)
					IOWR(COLOR_FILTER_0_BASE, THRESHOLD_LOW, observations[observation_idx].mask_bottom);
   22b4c:	d0a07b17 	ldw	r2,-32276(gp)
   22b50:	d1207717 	ldw	r4,-32292(gp)
   22b54:	10800b24 	muli	r2,r2,44
   22b58:	2085883a 	add	r2,r4,r2
   22b5c:	11000117 	ldw	r4,4(r2)
   22b60:	008000f4 	movhi	r2,3
   22b64:	108f0004 	addi	r2,r2,15360
   22b68:	11000035 	stwio	r4,0(r2)
					IOWR(COLOR_FILTER_0_BASE, THRESHOLD_HIGH, observations[observation_idx].mask_top);
   22b6c:	d0a07b17 	ldw	r2,-32276(gp)
   22b70:	d1207717 	ldw	r4,-32292(gp)
   22b74:	10800b24 	muli	r2,r2,44
   22b78:	2085883a 	add	r2,r4,r2
   22b7c:	11000217 	ldw	r4,8(r2)
   22b80:	008000f4 	movhi	r2,3
   22b84:	108f0104 	addi	r2,r2,15364
   22b88:	11000035 	stwio	r4,0(r2)

					//fir_load_avg(FIR_0_0_BASE);
					fir_load_unit(FIR_0_0_BASE);
   22b8c:	010000f4 	movhi	r4,3
   22b90:	210a0004 	addi	r4,r4,10240
   22b94:	d8c00015 	stw	r3,0(sp)
   22b98:	0020f840 	call	20f84 <fir_load_unit>


					//COM counter setup
					IOWR(COM_COUNTER_0_BASE, THRESH_ENABLED, 1);
   22b9c:	d8c00017 	ldw	r3,0(sp)
   22ba0:	e0c00035 	stwio	r3,0(fp)
					IOWR(COM_COUNTER_0_BASE, THRESH_Y, 100);
   22ba4:	00801904 	movi	r2,100
   22ba8:	b8800035 	stwio	r2,0(r23)
					IOWR(COM_COUNTER_0_BASE, THRESH_X, 10);
   22bac:	00800284 	movi	r2,10
   22bb0:	b0800035 	stwio	r2,0(r22)
					IOWR(COM_COUNTER_0_BASE, THRESH_Y_MAX, 470);
   22bb4:	008000f4 	movhi	r2,3
   22bb8:	108efb04 	addi	r2,r2,15340
   22bbc:	00c07584 	movi	r3,470
   22bc0:	10c00035 	stwio	r3,0(r2)
					IOWR(COM_COUNTER_0_BASE, THRESH_X_MAX, 630);
   22bc4:	008000f4 	movhi	r2,3
   22bc8:	108efc04 	addi	r2,r2,15344
   22bcc:	00c09d84 	movi	r3,630
   22bd0:	10c00035 	stwio	r3,0(r2)
					IOWR(COM_COUNTER_0_BASE, THRESHOLD_GATE, observations[observation_idx].threshold);
   22bd4:	d0a07b17 	ldw	r2,-32276(gp)
   22bd8:	d0e07717 	ldw	r3,-32292(gp)
   22bdc:	10800b24 	muli	r2,r2,44
   22be0:	1885883a 	add	r2,r3,r2
   22be4:	10800317 	ldw	r2,12(r2)
   22be8:	a8800035 	stwio	r2,0(r21)

					//Wait two frame times
					   usleep(delay);
   22bec:	d1207f17 	ldw	r4,-32260(gp)
   22bf0:	00252380 	call	25238 <usleep>


					//Collect results
					observations[observation_idx].mass = IORD(COM_COUNTER_0_BASE, COM_MASS);
   22bf4:	d5607b17 	ldw	r21,-32276(gp)
   22bf8:	a8800b24 	muli	r2,r21,44
   22bfc:	d5607717 	ldw	r21,-32292(gp)
   22c00:	a8ab883a 	add	r21,r21,r2
   22c04:	a5000037 	ldwio	r20,0(r20)
   22c08:	ad000615 	stw	r20,24(r21)
					observations[observation_idx].com_x = IORD(COM_COUNTER_0_BASE, COM_X)/observations[observation_idx].mass;
   22c0c:	99000037 	ldwio	r4,0(r19)
   22c10:	a00b883a 	mov	r5,r20
   22c14:	00238840 	call	23884 <__divsi3>
   22c18:	a8800415 	stw	r2,16(r21)
					observations[observation_idx].com_y = IORD(COM_COUNTER_0_BASE, COM_Y)/observations[observation_idx].mass;
   22c1c:	91000037 	ldwio	r4,0(r18)
   22c20:	a00b883a 	mov	r5,r20
   22c24:	00238840 	call	23884 <__divsi3>
   22c28:	a8800515 	stw	r2,20(r21)

					observations[observation_idx].bb_left = IORD(COM_COUNTER_0_BASE, BB_LOW_X);
   22c2c:	88800037 	ldwio	r2,0(r17)
   22c30:	a8800715 	stw	r2,28(r21)
					observations[observation_idx].bb_top = IORD(COM_COUNTER_0_BASE, BB_LOW_Y);
   22c34:	80800037 	ldwio	r2,0(r16)
					observations[observation_idx].bb_right = IORD(COM_COUNTER_0_BASE, BB_HIGH_X);
   22c38:	00c000f4 	movhi	r3,3
   22c3c:	18cef604 	addi	r3,r3,15320
					observations[observation_idx].mass = IORD(COM_COUNTER_0_BASE, COM_MASS);
					observations[observation_idx].com_x = IORD(COM_COUNTER_0_BASE, COM_X)/observations[observation_idx].mass;
					observations[observation_idx].com_y = IORD(COM_COUNTER_0_BASE, COM_Y)/observations[observation_idx].mass;

					observations[observation_idx].bb_left = IORD(COM_COUNTER_0_BASE, BB_LOW_X);
					observations[observation_idx].bb_top = IORD(COM_COUNTER_0_BASE, BB_LOW_Y);
   22c40:	a8800815 	stw	r2,32(r21)
					observations[observation_idx].bb_right = IORD(COM_COUNTER_0_BASE, BB_HIGH_X);
   22c44:	18800037 	ldwio	r2,0(r3)
					observations[observation_idx].bb_bottom = IORD(COM_COUNTER_0_BASE, BB_HIGH_Y);
   22c48:	00c000f4 	movhi	r3,3
   22c4c:	18cef704 	addi	r3,r3,15324
					observations[observation_idx].com_x = IORD(COM_COUNTER_0_BASE, COM_X)/observations[observation_idx].mass;
					observations[observation_idx].com_y = IORD(COM_COUNTER_0_BASE, COM_Y)/observations[observation_idx].mass;

					observations[observation_idx].bb_left = IORD(COM_COUNTER_0_BASE, BB_LOW_X);
					observations[observation_idx].bb_top = IORD(COM_COUNTER_0_BASE, BB_LOW_Y);
					observations[observation_idx].bb_right = IORD(COM_COUNTER_0_BASE, BB_HIGH_X);
   22c50:	a8800915 	stw	r2,36(r21)
					observations[observation_idx].bb_bottom = IORD(COM_COUNTER_0_BASE, BB_HIGH_Y);
   22c54:	18800037 	ldwio	r2,0(r3)
   22c58:	a8800a15 	stw	r2,40(r21)

				}


			   observation_idx++;
   22c5c:	d0a07b17 	ldw	r2,-32276(gp)
			   if (observation_idx == number_observations)observation_idx = 0;
   22c60:	d0e07e17 	ldw	r3,-32264(gp)
					observations[observation_idx].bb_bottom = IORD(COM_COUNTER_0_BASE, BB_HIGH_Y);

				}


			   observation_idx++;
   22c64:	10800044 	addi	r2,r2,1
   22c68:	d0a07b15 	stw	r2,-32276(gp)
			   if (observation_idx == number_observations)observation_idx = 0;
   22c6c:	10c0011e 	bne	r2,r3,22c74 <one_pipeline+0x3f4>
   22c70:	d0207b15 	stw	zero,-32276(gp)

		   }
}
   22c74:	dfc00a17 	ldw	ra,40(sp)
   22c78:	df000917 	ldw	fp,36(sp)
   22c7c:	ddc00817 	ldw	r23,32(sp)
   22c80:	dd800717 	ldw	r22,28(sp)
   22c84:	dd400617 	ldw	r21,24(sp)
   22c88:	dd000517 	ldw	r20,20(sp)
   22c8c:	dcc00417 	ldw	r19,16(sp)
   22c90:	dc800317 	ldw	r18,12(sp)
   22c94:	dc400217 	ldw	r17,8(sp)
   22c98:	dc000117 	ldw	r16,4(sp)
   22c9c:	dec00b04 	addi	sp,sp,44
   22ca0:	f800283a 	ret

00022ca4 <three_pipelines>:


void three_pipelines(){
	if (slow == 1) usleep(1000000);
   22ca4:	d0a07817 	ldw	r2,-32288(gp)

		   }
}


void three_pipelines(){
   22ca8:	defffa04 	addi	sp,sp,-24
   22cac:	dc000015 	stw	r16,0(sp)
   22cb0:	dfc00515 	stw	ra,20(sp)
   22cb4:	dd000415 	stw	r20,16(sp)
   22cb8:	dcc00315 	stw	r19,12(sp)
   22cbc:	dc800215 	stw	r18,8(sp)
   22cc0:	dc400115 	stw	r17,4(sp)
   22cc4:	04000044 	movi	r16,1
	if (slow == 1) usleep(1000000);
   22cc8:	1400031e 	bne	r2,r16,22cd8 <three_pipelines+0x34>
   22ccc:	010003f4 	movhi	r4,15
   22cd0:	21109004 	addi	r4,r4,16960
   22cd4:	00252380 	call	25238 <usleep>
		  	  if (!halt){
   22cd8:	d0a08117 	ldw	r2,-32252(gp)
   22cdc:	10018b1e 	bne	r2,zero,2330c <three_pipelines+0x668>
		  		static const int pipe2[3] = {3, 4, 5};
		  		static int pipe2_idx = 0;


				//Apply HSV transform no matter what
				IOWR(RGB_TO_HSV_BASE, HSV_ENABLED, 0x1);
   22ce0:	008000f4 	movhi	r2,3
   22ce4:	108ee004 	addi	r2,r2,15232
   22ce8:	14000035 	stwio	r16,0(r2)



				//Pipeline 0 setup
				IOWR(COLOR_FILTER_0_BASE, APPLY_MASK, 0);
   22cec:	008000f4 	movhi	r2,3
   22cf0:	108f0204 	addi	r2,r2,15368
   22cf4:	10000035 	stwio	zero,0(r2)

				if (observations[pipe0[pipe0_idx]].code == 'W' ){
   22cf8:	d0a08617 	ldw	r2,-32232(gp)
   22cfc:	d4600404 	addi	r17,gp,-32752
   22d00:	d0e07717 	ldw	r3,-32292(gp)
   22d04:	1085883a 	add	r2,r2,r2
   22d08:	1085883a 	add	r2,r2,r2
   22d0c:	8885883a 	add	r2,r17,r2
   22d10:	10800017 	ldw	r2,0(r2)
   22d14:	8825883a 	mov	r18,r17
   22d18:	10800b24 	muli	r2,r2,44
   22d1c:	1885883a 	add	r2,r3,r2
   22d20:	10800007 	ldb	r2,0(r2)
   22d24:	00c015c4 	movi	r3,87
   22d28:	10c0041e 	bne	r2,r3,22d3c <three_pipelines+0x98>
					fir_load_sobel(FIR_0_0_BASE);
   22d2c:	010000f4 	movhi	r4,3
   22d30:	210a0004 	addi	r4,r4,10240
   22d34:	0020fd80 	call	20fd8 <fir_load_sobel>
   22d38:	00000506 	br	22d50 <three_pipelines+0xac>
					fir_load_vertical(FIR_0_1_BASE);
				}else if (observations[pipe0[pipe0_idx]].code == 'X'){
   22d3c:	00c01604 	movi	r3,88
   22d40:	10c0061e 	bne	r2,r3,22d5c <three_pipelines+0xb8>
					fir_load_inv_sobel(FIR_0_0_BASE);
   22d44:	010000f4 	movhi	r4,3
   22d48:	210a0004 	addi	r4,r4,10240
   22d4c:	00210180 	call	21018 <fir_load_inv_sobel>
					fir_load_vertical(FIR_0_1_BASE);
   22d50:	010000f4 	movhi	r4,3
   22d54:	21060004 	addi	r4,r4,6144
   22d58:	00210580 	call	21058 <fir_load_vertical>
				}

				//COM counter setup
				IOWR(COM_COUNTER_0_BASE, THRESH_ENABLED, 1);
   22d5c:	008000f4 	movhi	r2,3
   22d60:	108ef804 	addi	r2,r2,15328
   22d64:	00c00044 	movi	r3,1
   22d68:	10c00035 	stwio	r3,0(r2)
				IOWR(COM_COUNTER_0_BASE, THRESH_Y, 100);
   22d6c:	008000f4 	movhi	r2,3
   22d70:	108ef904 	addi	r2,r2,15332
   22d74:	00c01904 	movi	r3,100
   22d78:	10c00035 	stwio	r3,0(r2)
				IOWR(COM_COUNTER_0_BASE, THRESH_X, 10);
   22d7c:	008000f4 	movhi	r2,3
   22d80:	108efa04 	addi	r2,r2,15336
   22d84:	00c00284 	movi	r3,10
   22d88:	10c00035 	stwio	r3,0(r2)
				IOWR(COM_COUNTER_0_BASE, THRESHOLD_GATE, observations[pipe0[pipe0_idx]].threshold);
   22d8c:	d0a08617 	ldw	r2,-32232(gp)
   22d90:	d0e07717 	ldw	r3,-32292(gp)
   22d94:	1085883a 	add	r2,r2,r2
   22d98:	1085883a 	add	r2,r2,r2
   22d9c:	9085883a 	add	r2,r18,r2
   22da0:	10800017 	ldw	r2,0(r2)
   22da4:	10800b24 	muli	r2,r2,44
   22da8:	1885883a 	add	r2,r3,r2
   22dac:	10c00317 	ldw	r3,12(r2)
   22db0:	008000f4 	movhi	r2,3
   22db4:	108ef004 	addi	r2,r2,15296
   22db8:	10c00035 	stwio	r3,0(r2)
				usleep(100000);
   22dbc:	010000b4 	movhi	r4,2
   22dc0:	2121a804 	addi	r4,r4,-31072
   22dc4:	00252380 	call	25238 <usleep>

				 //Pipeline 0 collect

				//Collect results
				observations[pipe0[pipe0_idx]].mass = IORD(COM_COUNTER_0_BASE, COM_MASS);
   22dc8:	d4608617 	ldw	r17,-32232(gp)
   22dcc:	d4e07717 	ldw	r19,-32292(gp)
   22dd0:	8c45883a 	add	r2,r17,r17
   22dd4:	1085883a 	add	r2,r2,r2
   22dd8:	9085883a 	add	r2,r18,r2
   22ddc:	14000017 	ldw	r16,0(r2)
   22de0:	008000f4 	movhi	r2,3
   22de4:	108ef304 	addi	r2,r2,15308
   22de8:	84000b24 	muli	r16,r16,44
   22dec:	9c21883a 	add	r16,r19,r16
   22df0:	15000037 	ldwio	r20,0(r2)
				observations[pipe0[pipe0_idx]].com_x = IORD(COM_COUNTER_0_BASE, COM_X)/observations[pipe0[pipe0_idx]].mass;
   22df4:	008000f4 	movhi	r2,3
   22df8:	108ef104 	addi	r2,r2,15300
				usleep(100000);

				 //Pipeline 0 collect

				//Collect results
				observations[pipe0[pipe0_idx]].mass = IORD(COM_COUNTER_0_BASE, COM_MASS);
   22dfc:	85000615 	stw	r20,24(r16)
				observations[pipe0[pipe0_idx]].com_x = IORD(COM_COUNTER_0_BASE, COM_X)/observations[pipe0[pipe0_idx]].mass;
   22e00:	11000037 	ldwio	r4,0(r2)
   22e04:	a00b883a 	mov	r5,r20
   22e08:	00238840 	call	23884 <__divsi3>
   22e0c:	80800415 	stw	r2,16(r16)
				observations[pipe0[pipe0_idx]].com_y = IORD(COM_COUNTER_0_BASE, COM_Y)/observations[pipe0[pipe0_idx]].mass;
   22e10:	008000f4 	movhi	r2,3
   22e14:	108ef204 	addi	r2,r2,15304
   22e18:	11000037 	ldwio	r4,0(r2)
   22e1c:	a00b883a 	mov	r5,r20
   22e20:	00238840 	call	23884 <__divsi3>
   22e24:	80800515 	stw	r2,20(r16)

				observations[pipe0[pipe0_idx]].bb_left = IORD(COM_COUNTER_0_BASE, BB_LOW_X);
   22e28:	008000f4 	movhi	r2,3
   22e2c:	108ef404 	addi	r2,r2,15312
   22e30:	10800037 	ldwio	r2,0(r2)
   22e34:	80800715 	stw	r2,28(r16)
				observations[pipe0[pipe0_idx]].bb_top = IORD(COM_COUNTER_0_BASE, BB_LOW_Y);
   22e38:	008000f4 	movhi	r2,3
   22e3c:	108ef504 	addi	r2,r2,15316
   22e40:	10800037 	ldwio	r2,0(r2)
   22e44:	80800815 	stw	r2,32(r16)
				observations[pipe0[pipe0_idx]].bb_right = IORD(COM_COUNTER_0_BASE, BB_HIGH_X);
   22e48:	008000f4 	movhi	r2,3
   22e4c:	108ef604 	addi	r2,r2,15320
   22e50:	10800037 	ldwio	r2,0(r2)
   22e54:	80800915 	stw	r2,36(r16)
				observations[pipe0[pipe0_idx]].bb_bottom = IORD(COM_COUNTER_0_BASE, BB_HIGH_Y);
   22e58:	008000f4 	movhi	r2,3
   22e5c:	108ef704 	addi	r2,r2,15324
   22e60:	10800037 	ldwio	r2,0(r2)

				if (observations[pipe0[pipe0_idx]].code == 'W' ){
   22e64:	00c015c4 	movi	r3,87
				observations[pipe0[pipe0_idx]].com_y = IORD(COM_COUNTER_0_BASE, COM_Y)/observations[pipe0[pipe0_idx]].mass;

				observations[pipe0[pipe0_idx]].bb_left = IORD(COM_COUNTER_0_BASE, BB_LOW_X);
				observations[pipe0[pipe0_idx]].bb_top = IORD(COM_COUNTER_0_BASE, BB_LOW_Y);
				observations[pipe0[pipe0_idx]].bb_right = IORD(COM_COUNTER_0_BASE, BB_HIGH_X);
				observations[pipe0[pipe0_idx]].bb_bottom = IORD(COM_COUNTER_0_BASE, BB_HIGH_Y);
   22e68:	80800a15 	stw	r2,40(r16)

				if (observations[pipe0[pipe0_idx]].code == 'W' ){
   22e6c:	80800007 	ldb	r2,0(r16)
   22e70:	10c00f1e 	bne	r2,r3,22eb0 <three_pipelines+0x20c>
   22e74:	008000f4 	movhi	r2,3
					for (int i = 0; i < 20; i++){
						histogram[i] = IORD(EDGE_BINS_0_BASE, i);
   22e78:	01ffff74 	movhi	r7,65533
   22e7c:	018000b4 	movhi	r6,2
				observations[pipe0[pipe0_idx]].bb_top = IORD(COM_COUNTER_0_BASE, BB_LOW_Y);
				observations[pipe0[pipe0_idx]].bb_right = IORD(COM_COUNTER_0_BASE, BB_HIGH_X);
				observations[pipe0[pipe0_idx]].bb_bottom = IORD(COM_COUNTER_0_BASE, BB_HIGH_Y);

				if (observations[pipe0[pipe0_idx]].code == 'W' ){
					for (int i = 0; i < 20; i++){
   22e80:	010000f4 	movhi	r4,3
   22e84:	108e0004 	addi	r2,r2,14336
						histogram[i] = IORD(EDGE_BINS_0_BASE, i);
   22e88:	39f20004 	addi	r7,r7,-14336
   22e8c:	31998304 	addi	r6,r6,26124
				observations[pipe0[pipe0_idx]].bb_top = IORD(COM_COUNTER_0_BASE, BB_LOW_Y);
				observations[pipe0[pipe0_idx]].bb_right = IORD(COM_COUNTER_0_BASE, BB_HIGH_X);
				observations[pipe0[pipe0_idx]].bb_bottom = IORD(COM_COUNTER_0_BASE, BB_HIGH_Y);

				if (observations[pipe0[pipe0_idx]].code == 'W' ){
					for (int i = 0; i < 20; i++){
   22e90:	210e1404 	addi	r4,r4,14416
						histogram[i] = IORD(EDGE_BINS_0_BASE, i);
   22e94:	11400037 	ldwio	r5,0(r2)
   22e98:	11c7883a 	add	r3,r2,r7
   22e9c:	1987883a 	add	r3,r3,r6
   22ea0:	19400015 	stw	r5,0(r3)
   22ea4:	10800104 	addi	r2,r2,4
				observations[pipe0[pipe0_idx]].bb_top = IORD(COM_COUNTER_0_BASE, BB_LOW_Y);
				observations[pipe0[pipe0_idx]].bb_right = IORD(COM_COUNTER_0_BASE, BB_HIGH_X);
				observations[pipe0[pipe0_idx]].bb_bottom = IORD(COM_COUNTER_0_BASE, BB_HIGH_Y);

				if (observations[pipe0[pipe0_idx]].code == 'W' ){
					for (int i = 0; i < 20; i++){
   22ea8:	113ffa1e 	bne	r2,r4,22e94 <__alt_data_end+0xffff4434>
   22eac:	00001e06 	br	22f28 <three_pipelines+0x284>
						histogram[i] = IORD(EDGE_BINS_0_BASE, i);
					}
				}else if (observations[pipe0[pipe0_idx]].code == 'X'){
   22eb0:	00c01604 	movi	r3,88
   22eb4:	10c01c1e 	bne	r2,r3,22f28 <three_pipelines+0x284>
   22eb8:	00c000f4 	movhi	r3,3
					for (int i = 0; i < 20; i++){
						histogram_processed[i] = histogram + IORD(EDGE_BINS_0_BASE, i);
   22ebc:	023fff74 	movhi	r8,65533
   22ec0:	01c000b4 	movhi	r7,2
   22ec4:	018000b4 	movhi	r6,2
				if (observations[pipe0[pipe0_idx]].code == 'W' ){
					for (int i = 0; i < 20; i++){
						histogram[i] = IORD(EDGE_BINS_0_BASE, i);
					}
				}else if (observations[pipe0[pipe0_idx]].code == 'X'){
					for (int i = 0; i < 20; i++){
   22ec8:	014000f4 	movhi	r5,3
   22ecc:	18ce0004 	addi	r3,r3,14336
						histogram_processed[i] = histogram + IORD(EDGE_BINS_0_BASE, i);
   22ed0:	42320004 	addi	r8,r8,-14336
   22ed4:	39d96f04 	addi	r7,r7,26044
   22ed8:	31998304 	addi	r6,r6,26124
				if (observations[pipe0[pipe0_idx]].code == 'W' ){
					for (int i = 0; i < 20; i++){
						histogram[i] = IORD(EDGE_BINS_0_BASE, i);
					}
				}else if (observations[pipe0[pipe0_idx]].code == 'X'){
					for (int i = 0; i < 20; i++){
   22edc:	294e1404 	addi	r5,r5,14416
						histogram_processed[i] = histogram + IORD(EDGE_BINS_0_BASE, i);
   22ee0:	18800037 	ldwio	r2,0(r3)
   22ee4:	1085883a 	add	r2,r2,r2
   22ee8:	1a09883a 	add	r4,r3,r8
   22eec:	1085883a 	add	r2,r2,r2
   22ef0:	21c9883a 	add	r4,r4,r7
   22ef4:	1185883a 	add	r2,r2,r6
   22ef8:	20800015 	stw	r2,0(r4)
   22efc:	18c00104 	addi	r3,r3,4
				if (observations[pipe0[pipe0_idx]].code == 'W' ){
					for (int i = 0; i < 20; i++){
						histogram[i] = IORD(EDGE_BINS_0_BASE, i);
					}
				}else if (observations[pipe0[pipe0_idx]].code == 'X'){
					for (int i = 0; i < 20; i++){
   22f00:	197ff71e 	bne	r3,r5,22ee0 <__alt_data_end+0xffff4480>
						histogram_processed[i] = histogram + IORD(EDGE_BINS_0_BASE, i);
					}

					merge_observations(&observations[pipe0[pipe0_idx]-1], &observations[pipe0[pipe0_idx]]);
   22f04:	8c63883a 	add	r17,r17,r17
   22f08:	8c63883a 	add	r17,r17,r17
   22f0c:	9463883a 	add	r17,r18,r17
   22f10:	89400017 	ldw	r5,0(r17)
   22f14:	29400b24 	muli	r5,r5,44
   22f18:	293ff504 	addi	r4,r5,-44
   22f1c:	9909883a 	add	r4,r19,r4
   22f20:	994b883a 	add	r5,r19,r5
   22f24:	00235d40 	call	235d4 <merge_observations>
				}

				//Increment pipe0 idx
				pipe0_idx++;
   22f28:	d0a08617 	ldw	r2,-32232(gp)
				if(pipe0_idx >= (sizeof(pipe0)/sizeof(int))){ pipe0_idx = 0;}
   22f2c:	04400044 	movi	r17,1

					merge_observations(&observations[pipe0[pipe0_idx]-1], &observations[pipe0[pipe0_idx]]);
				}

				//Increment pipe0 idx
				pipe0_idx++;
   22f30:	10800044 	addi	r2,r2,1
				if(pipe0_idx >= (sizeof(pipe0)/sizeof(int))){ pipe0_idx = 0;}
   22f34:	88800236 	bltu	r17,r2,22f40 <three_pipelines+0x29c>

					merge_observations(&observations[pipe0[pipe0_idx]-1], &observations[pipe0[pipe0_idx]]);
				}

				//Increment pipe0 idx
				pipe0_idx++;
   22f38:	d0a08615 	stw	r2,-32232(gp)
   22f3c:	00000106 	br	22f44 <three_pipelines+0x2a0>
				if(pipe0_idx >= (sizeof(pipe0)/sizeof(int))){ pipe0_idx = 0;}
   22f40:	d0208615 	stw	zero,-32232(gp)




				//Pipeline 1 setup
				IOWR(COLOR_FILTER_1_BASE, APPLY_MASK, 1);
   22f44:	008000f4 	movhi	r2,3
   22f48:	108e4204 	addi	r2,r2,14600
   22f4c:	14400035 	stwio	r17,0(r2)
				printf("MAsk bottom: %x\n", observations[pipe1[pipe1_idx]].mask_bottom);
   22f50:	d0a08517 	ldw	r2,-32236(gp)
   22f54:	040000b4 	movhi	r16,2
   22f58:	84186a04 	addi	r16,r16,25000
   22f5c:	1085883a 	add	r2,r2,r2
   22f60:	1085883a 	add	r2,r2,r2
   22f64:	8085883a 	add	r2,r16,r2
   22f68:	10800017 	ldw	r2,0(r2)
   22f6c:	d0e07717 	ldw	r3,-32292(gp)
   22f70:	010000b4 	movhi	r4,2
   22f74:	10800b24 	muli	r2,r2,44
   22f78:	21185a04 	addi	r4,r4,24936
   22f7c:	1885883a 	add	r2,r3,r2
   22f80:	11400117 	ldw	r5,4(r2)
   22f84:	0023cd80 	call	23cd8 <printf>
				IOWR(COLOR_FILTER_1_BASE, THRESHOLD_LOW, observations[pipe1[pipe1_idx]].mask_bottom);
   22f88:	d0a08517 	ldw	r2,-32236(gp)
   22f8c:	d0e07717 	ldw	r3,-32292(gp)
   22f90:	1085883a 	add	r2,r2,r2
   22f94:	1085883a 	add	r2,r2,r2
   22f98:	8085883a 	add	r2,r16,r2
   22f9c:	10800017 	ldw	r2,0(r2)
   22fa0:	10800b24 	muli	r2,r2,44
   22fa4:	1885883a 	add	r2,r3,r2
   22fa8:	10800117 	ldw	r2,4(r2)
   22fac:	00c000f4 	movhi	r3,3
   22fb0:	18ce4004 	addi	r3,r3,14592
   22fb4:	18800035 	stwio	r2,0(r3)
				printf("MAsk bottom: %x\n", IORD(COLOR_FILTER_1_BASE, THRESHOLD_LOW));
   22fb8:	19400037 	ldwio	r5,0(r3)
   22fbc:	010000b4 	movhi	r4,2
   22fc0:	21185a04 	addi	r4,r4,24936
   22fc4:	0023cd80 	call	23cd8 <printf>
				printf("MAsk top: %x\n", observations[pipe1[pipe1_idx]].mask_top);
   22fc8:	d0a08517 	ldw	r2,-32236(gp)
   22fcc:	d0e07717 	ldw	r3,-32292(gp)
   22fd0:	010000b4 	movhi	r4,2
   22fd4:	1085883a 	add	r2,r2,r2
   22fd8:	1085883a 	add	r2,r2,r2
   22fdc:	8085883a 	add	r2,r16,r2
   22fe0:	10800017 	ldw	r2,0(r2)
   22fe4:	21185f04 	addi	r4,r4,24956
   22fe8:	10800b24 	muli	r2,r2,44
   22fec:	1885883a 	add	r2,r3,r2
   22ff0:	11400217 	ldw	r5,8(r2)
   22ff4:	0023cd80 	call	23cd8 <printf>
				IOWR(COLOR_FILTER_1_BASE, THRESHOLD_HIGH, observations[pipe1[pipe1_idx]].mask_top);
   22ff8:	d0a08517 	ldw	r2,-32236(gp)
   22ffc:	d0e07717 	ldw	r3,-32292(gp)
   23000:	1085883a 	add	r2,r2,r2
   23004:	1085883a 	add	r2,r2,r2
   23008:	8085883a 	add	r2,r16,r2
   2300c:	10800017 	ldw	r2,0(r2)
   23010:	10800b24 	muli	r2,r2,44
   23014:	1885883a 	add	r2,r3,r2
   23018:	10c00217 	ldw	r3,8(r2)
   2301c:	008000f4 	movhi	r2,3
   23020:	108e4104 	addi	r2,r2,14596
   23024:	10c00035 	stwio	r3,0(r2)

				fir_load_unit(FIR_1_BASE);
   23028:	010000f4 	movhi	r4,3
   2302c:	21080004 	addi	r4,r4,8192
   23030:	0020f840 	call	20f84 <fir_load_unit>

				IOWR(COM_COUNTER_1_BASE, THRESH_ENABLED, 1);
   23034:	008000f4 	movhi	r2,3
   23038:	108ea804 	addi	r2,r2,15008
   2303c:	14400035 	stwio	r17,0(r2)
				IOWR(COM_COUNTER_1_BASE, THRESH_Y, 100);
   23040:	008000f4 	movhi	r2,3
   23044:	108ea904 	addi	r2,r2,15012
   23048:	00c01904 	movi	r3,100
   2304c:	10c00035 	stwio	r3,0(r2)
				IOWR(COM_COUNTER_1_BASE, THRESH_X, 10);
   23050:	008000f4 	movhi	r2,3
   23054:	108eaa04 	addi	r2,r2,15016
   23058:	00c00284 	movi	r3,10
   2305c:	10c00035 	stwio	r3,0(r2)
				IOWR(COM_COUNTER_1_BASE, THRESHOLD_GATE, observations[pipe1[pipe1_idx]].threshold);
   23060:	d0a08517 	ldw	r2,-32236(gp)
   23064:	d0e07717 	ldw	r3,-32292(gp)
   23068:	1085883a 	add	r2,r2,r2
   2306c:	1085883a 	add	r2,r2,r2
   23070:	8085883a 	add	r2,r16,r2
   23074:	10800017 	ldw	r2,0(r2)
   23078:	10800b24 	muli	r2,r2,44
   2307c:	1885883a 	add	r2,r3,r2
   23080:	10c00317 	ldw	r3,12(r2)
   23084:	008000f4 	movhi	r2,3
   23088:	108ea004 	addi	r2,r2,14976
   2308c:	10c00035 	stwio	r3,0(r2)

			  	usleep(100000);
   23090:	010000b4 	movhi	r4,2
   23094:	2121a804 	addi	r4,r4,-31072
   23098:	00252380 	call	25238 <usleep>

				//Pipeline 1 collect
				observations[pipe1[pipe1_idx]].mass = IORD(COM_COUNTER_1_BASE, COM_MASS);
   2309c:	d0a08517 	ldw	r2,-32236(gp)
   230a0:	048000f4 	movhi	r18,3
   230a4:	948ea304 	addi	r18,r18,14988
   230a8:	1085883a 	add	r2,r2,r2
   230ac:	1085883a 	add	r2,r2,r2
   230b0:	8085883a 	add	r2,r16,r2
   230b4:	14000017 	ldw	r16,0(r2)
   230b8:	80800b24 	muli	r2,r16,44
   230bc:	d4207717 	ldw	r16,-32292(gp)
   230c0:	80a1883a 	add	r16,r16,r2
   230c4:	94400037 	ldwio	r17,0(r18)
				observations[pipe1[pipe1_idx]].com_x = IORD(COM_COUNTER_1_BASE, COM_X)/observations[pipe1[pipe1_idx]].mass;
   230c8:	008000f4 	movhi	r2,3
   230cc:	108ea104 	addi	r2,r2,14980
				IOWR(COM_COUNTER_1_BASE, THRESHOLD_GATE, observations[pipe1[pipe1_idx]].threshold);

			  	usleep(100000);

				//Pipeline 1 collect
				observations[pipe1[pipe1_idx]].mass = IORD(COM_COUNTER_1_BASE, COM_MASS);
   230d0:	84400615 	stw	r17,24(r16)
				observations[pipe1[pipe1_idx]].com_x = IORD(COM_COUNTER_1_BASE, COM_X)/observations[pipe1[pipe1_idx]].mass;
   230d4:	11000037 	ldwio	r4,0(r2)
   230d8:	880b883a 	mov	r5,r17
   230dc:	00238840 	call	23884 <__divsi3>
   230e0:	80800415 	stw	r2,16(r16)
				observations[pipe1[pipe1_idx]].com_y = IORD(COM_COUNTER_1_BASE, COM_Y)/observations[pipe1[pipe1_idx]].mass;
   230e4:	008000f4 	movhi	r2,3
   230e8:	108ea204 	addi	r2,r2,14984
   230ec:	11000037 	ldwio	r4,0(r2)
   230f0:	880b883a 	mov	r5,r17
   230f4:	00238840 	call	23884 <__divsi3>
   230f8:	80800515 	stw	r2,20(r16)

				observations[pipe1[pipe1_idx]].bb_left = IORD(COM_COUNTER_1_BASE, BB_LOW_X);
   230fc:	008000f4 	movhi	r2,3
   23100:	108ea404 	addi	r2,r2,14992
   23104:	10800037 	ldwio	r2,0(r2)
   23108:	80800715 	stw	r2,28(r16)
				observations[pipe1[pipe1_idx]].bb_top = IORD(COM_COUNTER_1_BASE, BB_LOW_Y);
   2310c:	008000f4 	movhi	r2,3
   23110:	108ea504 	addi	r2,r2,14996
   23114:	10800037 	ldwio	r2,0(r2)
   23118:	80800815 	stw	r2,32(r16)
				observations[pipe1[pipe1_idx]].bb_right = IORD(COM_COUNTER_1_BASE, BB_HIGH_X);
   2311c:	008000f4 	movhi	r2,3
   23120:	108ea604 	addi	r2,r2,15000
   23124:	10800037 	ldwio	r2,0(r2)
   23128:	80800915 	stw	r2,36(r16)
				observations[pipe1[pipe1_idx]].bb_bottom = IORD(COM_COUNTER_1_BASE, BB_HIGH_Y);
   2312c:	008000f4 	movhi	r2,3
   23130:	108ea704 	addi	r2,r2,15004
   23134:	10800037 	ldwio	r2,0(r2)
   23138:	80800a15 	stw	r2,40(r16)


				printf("COM1 mass: %x", IORD(COM_COUNTER_1_BASE, COM_MASS));
   2313c:	91400037 	ldwio	r5,0(r18)
   23140:	010000b4 	movhi	r4,2
   23144:	21186304 	addi	r4,r4,24972
   23148:	0023cd80 	call	23cd8 <printf>

				pipe1_idx++;
   2314c:	d0a08517 	ldw	r2,-32236(gp)
				if(pipe1_idx >= (sizeof(pipe1)/sizeof(int))) pipe1_idx = 0;
   23150:	00c00084 	movi	r3,2
				observations[pipe1[pipe1_idx]].bb_bottom = IORD(COM_COUNTER_1_BASE, BB_HIGH_Y);


				printf("COM1 mass: %x", IORD(COM_COUNTER_1_BASE, COM_MASS));

				pipe1_idx++;
   23154:	10800044 	addi	r2,r2,1
				if(pipe1_idx >= (sizeof(pipe1)/sizeof(int))) pipe1_idx = 0;
   23158:	18800236 	bltu	r3,r2,23164 <three_pipelines+0x4c0>
				observations[pipe1[pipe1_idx]].bb_bottom = IORD(COM_COUNTER_1_BASE, BB_HIGH_Y);


				printf("COM1 mass: %x", IORD(COM_COUNTER_1_BASE, COM_MASS));

				pipe1_idx++;
   2315c:	d0a08515 	stw	r2,-32236(gp)
   23160:	00000106 	br	23168 <three_pipelines+0x4c4>
				if(pipe1_idx >= (sizeof(pipe1)/sizeof(int))) pipe1_idx = 0;
   23164:	d0208515 	stw	zero,-32236(gp)


				//Pipeline 2 setup
				IOWR(COLOR_FILTER_2_BASE, APPLY_MASK, 1);
   23168:	008000f4 	movhi	r2,3
   2316c:	04400044 	movi	r17,1
   23170:	108e9204 	addi	r2,r2,14920
   23174:	14400035 	stwio	r17,0(r2)
				IOWR(COLOR_FILTER_2_BASE, THRESHOLD_LOW, observations[pipe2[pipe2_idx]].mask_bottom);
   23178:	d0a08417 	ldw	r2,-32240(gp)
   2317c:	040000b4 	movhi	r16,2
   23180:	84186704 	addi	r16,r16,24988
   23184:	1085883a 	add	r2,r2,r2
   23188:	1085883a 	add	r2,r2,r2
   2318c:	8085883a 	add	r2,r16,r2
   23190:	10800017 	ldw	r2,0(r2)
   23194:	d0e07717 	ldw	r3,-32292(gp)
   23198:	10800b24 	muli	r2,r2,44
   2319c:	1885883a 	add	r2,r3,r2
   231a0:	10c00117 	ldw	r3,4(r2)
   231a4:	008000f4 	movhi	r2,3
   231a8:	108e9004 	addi	r2,r2,14912
   231ac:	10c00035 	stwio	r3,0(r2)
				IOWR(COLOR_FILTER_2_BASE, THRESHOLD_HIGH, observations[pipe2[pipe2_idx]].mask_top);
   231b0:	d0a08417 	ldw	r2,-32240(gp)
   231b4:	d0e07717 	ldw	r3,-32292(gp)
   231b8:	1085883a 	add	r2,r2,r2
   231bc:	1085883a 	add	r2,r2,r2
   231c0:	8085883a 	add	r2,r16,r2
   231c4:	10800017 	ldw	r2,0(r2)
   231c8:	10800b24 	muli	r2,r2,44
   231cc:	1885883a 	add	r2,r3,r2
   231d0:	10c00217 	ldw	r3,8(r2)
   231d4:	008000f4 	movhi	r2,3
   231d8:	108e9104 	addi	r2,r2,14916
   231dc:	10c00035 	stwio	r3,0(r2)

				fir_load_avg(FIR_2_BASE);
   231e0:	010000f4 	movhi	r4,3
   231e4:	21040004 	addi	r4,r4,4096
   231e8:	0020fb00 	call	20fb0 <fir_load_avg>


				//COM counter setup
				IOWR(COM_COUNTER_2_BASE, THRESH_ENABLED, 1);
   231ec:	008000f4 	movhi	r2,3
   231f0:	108e8804 	addi	r2,r2,14880
   231f4:	14400035 	stwio	r17,0(r2)
				IOWR(COM_COUNTER_2_BASE, THRESH_Y, 100);
   231f8:	008000f4 	movhi	r2,3
   231fc:	108e8904 	addi	r2,r2,14884
   23200:	00c01904 	movi	r3,100
   23204:	10c00035 	stwio	r3,0(r2)
				IOWR(COM_COUNTER_2_BASE, THRESH_X, 10);
   23208:	008000f4 	movhi	r2,3
   2320c:	108e8a04 	addi	r2,r2,14888
   23210:	00c00284 	movi	r3,10
   23214:	10c00035 	stwio	r3,0(r2)
				IOWR(COM_COUNTER_2_BASE, THRESHOLD_GATE, observations[pipe2[pipe2_idx]].threshold);
   23218:	d0a08417 	ldw	r2,-32240(gp)
   2321c:	d0e07717 	ldw	r3,-32292(gp)
   23220:	1085883a 	add	r2,r2,r2
   23224:	1085883a 	add	r2,r2,r2
   23228:	8085883a 	add	r2,r16,r2
   2322c:	10800017 	ldw	r2,0(r2)
   23230:	10800b24 	muli	r2,r2,44
   23234:	1885883a 	add	r2,r3,r2
   23238:	10c00317 	ldw	r3,12(r2)
   2323c:	008000f4 	movhi	r2,3
   23240:	108e8004 	addi	r2,r2,14848
   23244:	10c00035 	stwio	r3,0(r2)


				//Wait two frame times
			  	usleep(100000);
   23248:	010000b4 	movhi	r4,2
   2324c:	2121a804 	addi	r4,r4,-31072
   23250:	00252380 	call	25238 <usleep>

				//Pipeline 2 collect
				observations[pipe2[pipe2_idx]].mass = IORD(COM_COUNTER_2_BASE, COM_MASS);
   23254:	d4608417 	ldw	r17,-32240(gp)
   23258:	8c45883a 	add	r2,r17,r17
   2325c:	1085883a 	add	r2,r2,r2
   23260:	8085883a 	add	r2,r16,r2
   23264:	14000017 	ldw	r16,0(r2)
   23268:	80800b24 	muli	r2,r16,44
   2326c:	d4207717 	ldw	r16,-32292(gp)
   23270:	80a1883a 	add	r16,r16,r2
   23274:	008000f4 	movhi	r2,3
   23278:	108e8304 	addi	r2,r2,14860
   2327c:	14800037 	ldwio	r18,0(r2)
				observations[pipe2[pipe2_idx]].com_x = IORD(COM_COUNTER_2_BASE, COM_X)/observations[pipe2[pipe2_idx]].mass;
   23280:	008000f4 	movhi	r2,3
   23284:	108e8104 	addi	r2,r2,14852

				//Wait two frame times
			  	usleep(100000);

				//Pipeline 2 collect
				observations[pipe2[pipe2_idx]].mass = IORD(COM_COUNTER_2_BASE, COM_MASS);
   23288:	84800615 	stw	r18,24(r16)
				observations[pipe2[pipe2_idx]].com_x = IORD(COM_COUNTER_2_BASE, COM_X)/observations[pipe2[pipe2_idx]].mass;
   2328c:	11000037 	ldwio	r4,0(r2)
   23290:	900b883a 	mov	r5,r18
   23294:	00238840 	call	23884 <__divsi3>
   23298:	80800415 	stw	r2,16(r16)
				observations[pipe2[pipe2_idx]].com_y = IORD(COM_COUNTER_2_BASE, COM_Y)/observations[pipe2[pipe2_idx]].mass;
   2329c:	008000f4 	movhi	r2,3
   232a0:	108e8204 	addi	r2,r2,14856
   232a4:	11000037 	ldwio	r4,0(r2)
   232a8:	900b883a 	mov	r5,r18
   232ac:	00238840 	call	23884 <__divsi3>
   232b0:	80800515 	stw	r2,20(r16)

				observations[pipe2[pipe2_idx]].bb_left = IORD(COM_COUNTER_2_BASE, BB_LOW_X);
   232b4:	008000f4 	movhi	r2,3
   232b8:	108e8404 	addi	r2,r2,14864
   232bc:	10800037 	ldwio	r2,0(r2)
   232c0:	80800715 	stw	r2,28(r16)
				observations[pipe2[pipe2_idx]].bb_top = IORD(COM_COUNTER_2_BASE, BB_LOW_Y);
   232c4:	008000f4 	movhi	r2,3
   232c8:	108e8504 	addi	r2,r2,14868
   232cc:	10800037 	ldwio	r2,0(r2)
   232d0:	80800815 	stw	r2,32(r16)
				observations[pipe2[pipe2_idx]].bb_right = IORD(COM_COUNTER_2_BASE, BB_HIGH_X);
   232d4:	008000f4 	movhi	r2,3
   232d8:	108e8604 	addi	r2,r2,14872
   232dc:	10800037 	ldwio	r2,0(r2)
   232e0:	80800915 	stw	r2,36(r16)
				observations[pipe2[pipe2_idx]].bb_bottom = IORD(COM_COUNTER_2_BASE, BB_HIGH_Y);
   232e4:	008000f4 	movhi	r2,3
   232e8:	108e8704 	addi	r2,r2,14876
   232ec:	10800037 	ldwio	r2,0(r2)
   232f0:	80800a15 	stw	r2,40(r16)

				pipe2_idx++;
   232f4:	8c400044 	addi	r17,r17,1
				if(pipe2_idx >= (sizeof(pipe2)/sizeof(int))) pipe2_idx = 0;
   232f8:	00800084 	movi	r2,2
   232fc:	14400236 	bltu	r2,r17,23308 <three_pipelines+0x664>
				observations[pipe2[pipe2_idx]].bb_left = IORD(COM_COUNTER_2_BASE, BB_LOW_X);
				observations[pipe2[pipe2_idx]].bb_top = IORD(COM_COUNTER_2_BASE, BB_LOW_Y);
				observations[pipe2[pipe2_idx]].bb_right = IORD(COM_COUNTER_2_BASE, BB_HIGH_X);
				observations[pipe2[pipe2_idx]].bb_bottom = IORD(COM_COUNTER_2_BASE, BB_HIGH_Y);

				pipe2_idx++;
   23300:	d4608415 	stw	r17,-32240(gp)
   23304:	00000106 	br	2330c <three_pipelines+0x668>
				if(pipe2_idx >= (sizeof(pipe2)/sizeof(int))) pipe2_idx = 0;
   23308:	d0208415 	stw	zero,-32240(gp)

		   }
}
   2330c:	dfc00517 	ldw	ra,20(sp)
   23310:	dd000417 	ldw	r20,16(sp)
   23314:	dcc00317 	ldw	r19,12(sp)
   23318:	dc800217 	ldw	r18,8(sp)
   2331c:	dc400117 	ldw	r17,4(sp)
   23320:	dc000017 	ldw	r16,0(sp)
   23324:	dec00604 	addi	sp,sp,24
   23328:	f800283a 	ret

0002332c <to_hex_code>:
#include "support.h"



int to_hex_code (int r, int g, int b){
	return (r<<16) + (g<<8) +  b;
   2332c:	2008943a 	slli	r4,r4,16
   23330:	280a923a 	slli	r5,r5,8
   23334:	2145883a 	add	r2,r4,r5
}
   23338:	1185883a 	add	r2,r2,r6
   2333c:	f800283a 	ret

00023340 <initialize_observations>:


struct observation* initialize_observations(){

	struct observation* arr = malloc(number_observations * sizeof(struct observation));
   23340:	d1207e17 	ldw	r4,-32264(gp)
int to_hex_code (int r, int g, int b){
	return (r<<16) + (g<<8) +  b;
}


struct observation* initialize_observations(){
   23344:	deffff04 	addi	sp,sp,-4
   23348:	dfc00015 	stw	ra,0(sp)

	struct observation* arr = malloc(number_observations * sizeof(struct observation));
   2334c:	21000b24 	muli	r4,r4,44
   23350:	0023a380 	call	23a38 <malloc>
	arr[1].mask_bottom = to_hex_code(55,60,100);
	arr[1].mask_top = to_hex_code(75,160,240);
	arr[1].threshold = 192;

	//Initialize blue ball parameters
	arr[2].code = 'B';
   23354:	01401084 	movi	r5,66
   23358:	11401605 	stb	r5,88(r2)
	arr[2].mask_bottom = to_hex_code(105,80,50);
   2335c:	01401a74 	movhi	r5,105
   23360:	29540c84 	addi	r5,r5,20530
   23364:	11401715 	stw	r5,92(r2)
	arr[2].mask_top = to_hex_code(125,255,128);
   23368:	01401fb4 	movhi	r5,126
   2336c:	297fe004 	addi	r5,r5,-128
   23370:	11401815 	stw	r5,96(r2)
	arr[2].threshold = 192;

	//Initialize yellow ball parameters
	arr[3].code = 'Y';
   23374:	01401644 	movi	r5,89
   23378:	11402105 	stb	r5,132(r2)
	arr[3].mask_bottom = to_hex_code(15,100,160);
   2337c:	014003f4 	movhi	r5,15
   23380:	29592804 	addi	r5,r5,25760
   23384:	11402215 	stw	r5,136(r2)
	arr[3].mask_top = to_hex_code(30,255,245);
   23388:	014007f4 	movhi	r5,31
   2338c:	297ffd44 	addi	r5,r5,-11
   23390:	11402315 	stw	r5,140(r2)
	arr[3].threshold = 192;

	//Initialize green ball parameters
	arr[4].code = 'G';
   23394:	014011c4 	movi	r5,71
   23398:	11402c05 	stb	r5,176(r2)
struct observation* initialize_observations(){

	struct observation* arr = malloc(number_observations * sizeof(struct observation));

//Initialize Red low ball parameters
	arr[0].code = 'R';
   2339c:	01001484 	movi	r4,82
	arr[3].mask_top = to_hex_code(30,255,245);
	arr[3].threshold = 192;

	//Initialize green ball parameters
	arr[4].code = 'G';
	arr[4].mask_bottom = to_hex_code(77,60,50);
   233a0:	01401374 	movhi	r5,77
struct observation* initialize_observations(){

	struct observation* arr = malloc(number_observations * sizeof(struct observation));

//Initialize Red low ball parameters
	arr[0].code = 'R';
   233a4:	11000005 	stb	r4,0(r2)
	arr[3].mask_top = to_hex_code(30,255,245);
	arr[3].threshold = 192;

	//Initialize green ball parameters
	arr[4].code = 'G';
	arr[4].mask_bottom = to_hex_code(77,60,50);
   233a8:	294f0c84 	addi	r5,r5,15410

	struct observation* arr = malloc(number_observations * sizeof(struct observation));

//Initialize Red low ball parameters
	arr[0].code = 'R';
	arr[0].mask_bottom = to_hex_code(2,130,130);
   233ac:	010000f4 	movhi	r4,3
	arr[3].mask_top = to_hex_code(30,255,245);
	arr[3].threshold = 192;

	//Initialize green ball parameters
	arr[4].code = 'G';
	arr[4].mask_bottom = to_hex_code(77,60,50);
   233b0:	11402d15 	stw	r5,180(r2)

	struct observation* arr = malloc(number_observations * sizeof(struct observation));

//Initialize Red low ball parameters
	arr[0].code = 'R';
	arr[0].mask_bottom = to_hex_code(2,130,130);
   233b4:	2120a084 	addi	r4,r4,-32126
	arr[3].threshold = 192;

	//Initialize green ball parameters
	arr[4].code = 'G';
	arr[4].mask_bottom = to_hex_code(77,60,50);
	arr[4].mask_top = to_hex_code(93,140, 140);
   233b8:	014017b4 	movhi	r5,94

	struct observation* arr = malloc(number_observations * sizeof(struct observation));

//Initialize Red low ball parameters
	arr[0].code = 'R';
	arr[0].mask_bottom = to_hex_code(2,130,130);
   233bc:	11000115 	stw	r4,4(r2)
	arr[3].threshold = 192;

	//Initialize green ball parameters
	arr[4].code = 'G';
	arr[4].mask_bottom = to_hex_code(77,60,50);
	arr[4].mask_top = to_hex_code(93,140, 140);
   233c0:	29632304 	addi	r5,r5,-29556
	struct observation* arr = malloc(number_observations * sizeof(struct observation));

//Initialize Red low ball parameters
	arr[0].code = 'R';
	arr[0].mask_bottom = to_hex_code(2,130,130);
	arr[0].mask_top = to_hex_code(8,255,240);
   233c4:	01000274 	movhi	r4,9
	arr[3].threshold = 192;

	//Initialize green ball parameters
	arr[4].code = 'G';
	arr[4].mask_bottom = to_hex_code(77,60,50);
	arr[4].mask_top = to_hex_code(93,140, 140);
   233c8:	11402e15 	stw	r5,184(r2)
	struct observation* arr = malloc(number_observations * sizeof(struct observation));

//Initialize Red low ball parameters
	arr[0].code = 'R';
	arr[0].mask_bottom = to_hex_code(2,130,130);
	arr[0].mask_top = to_hex_code(8,255,240);
   233cc:	213ffc04 	addi	r4,r4,-16
	arr[4].mask_bottom = to_hex_code(77,60,50);
	arr[4].mask_top = to_hex_code(93,140, 140);
	arr[4].threshold = 192;

	//Initialize pink ball parameters
	arr[5].code = 'P';
   233d0:	01401404 	movi	r5,80
	struct observation* arr = malloc(number_observations * sizeof(struct observation));

//Initialize Red low ball parameters
	arr[0].code = 'R';
	arr[0].mask_bottom = to_hex_code(2,130,130);
	arr[0].mask_top = to_hex_code(8,255,240);
   233d4:	11000215 	stw	r4,8(r2)
	arr[4].mask_bottom = to_hex_code(77,60,50);
	arr[4].mask_top = to_hex_code(93,140, 140);
	arr[4].threshold = 192;

	//Initialize pink ball parameters
	arr[5].code = 'P';
   233d8:	11403705 	stb	r5,220(r2)

//Initialize Red low ball parameters
	arr[0].code = 'R';
	arr[0].mask_bottom = to_hex_code(2,130,130);
	arr[0].mask_top = to_hex_code(8,255,240);
	arr[0].threshold = 220;
   233dc:	01003704 	movi	r4,220
	arr[4].mask_top = to_hex_code(93,140, 140);
	arr[4].threshold = 192;

	//Initialize pink ball parameters
	arr[5].code = 'P';
	arr[5].mask_bottom = to_hex_code(170,80,100);
   233e0:	01402ab4 	movhi	r5,170

//Initialize Red low ball parameters
	arr[0].code = 'R';
	arr[0].mask_bottom = to_hex_code(2,130,130);
	arr[0].mask_top = to_hex_code(8,255,240);
	arr[0].threshold = 220;
   233e4:	11000315 	stw	r4,12(r2)
	arr[4].mask_top = to_hex_code(93,140, 140);
	arr[4].threshold = 192;

	//Initialize pink ball parameters
	arr[5].code = 'P';
	arr[5].mask_bottom = to_hex_code(170,80,100);
   233e8:	29541904 	addi	r5,r5,20580
	arr[0].mask_bottom = to_hex_code(2,130,130);
	arr[0].mask_top = to_hex_code(8,255,240);
	arr[0].threshold = 220;

	//Initialize lime ball parameters
	arr[1].code = 'L';
   233ec:	01001304 	movi	r4,76
   233f0:	11000b05 	stb	r4,44(r2)
	arr[4].mask_top = to_hex_code(93,140, 140);
	arr[4].threshold = 192;

	//Initialize pink ball parameters
	arr[5].code = 'P';
	arr[5].mask_bottom = to_hex_code(170,80,100);
   233f4:	11403815 	stw	r5,224(r2)
	arr[0].mask_top = to_hex_code(8,255,240);
	arr[0].threshold = 220;

	//Initialize lime ball parameters
	arr[1].code = 'L';
	arr[1].mask_bottom = to_hex_code(55,60,100);
   233f8:	01000df4 	movhi	r4,55
	arr[4].threshold = 192;

	//Initialize pink ball parameters
	arr[5].code = 'P';
	arr[5].mask_bottom = to_hex_code(170,80,100);
	arr[5].mask_top = to_hex_code(179,255,255);
   233fc:	01402d34 	movhi	r5,180
	arr[0].mask_top = to_hex_code(8,255,240);
	arr[0].threshold = 220;

	//Initialize lime ball parameters
	arr[1].code = 'L';
	arr[1].mask_bottom = to_hex_code(55,60,100);
   23400:	210f1904 	addi	r4,r4,15460
	arr[4].threshold = 192;

	//Initialize pink ball parameters
	arr[5].code = 'P';
	arr[5].mask_bottom = to_hex_code(170,80,100);
	arr[5].mask_top = to_hex_code(179,255,255);
   23404:	297fffc4 	addi	r5,r5,-1
	arr[0].mask_top = to_hex_code(8,255,240);
	arr[0].threshold = 220;

	//Initialize lime ball parameters
	arr[1].code = 'L';
	arr[1].mask_bottom = to_hex_code(55,60,100);
   23408:	11000c15 	stw	r4,48(r2)
	arr[4].threshold = 192;

	//Initialize pink ball parameters
	arr[5].code = 'P';
	arr[5].mask_bottom = to_hex_code(170,80,100);
	arr[5].mask_top = to_hex_code(179,255,255);
   2340c:	11403915 	stw	r5,228(r2)
	arr[0].threshold = 220;

	//Initialize lime ball parameters
	arr[1].code = 'L';
	arr[1].mask_bottom = to_hex_code(55,60,100);
	arr[1].mask_top = to_hex_code(75,160,240);
   23410:	01001334 	movhi	r4,76

	//Initialize pink ball parameters
	arr[5].code = 'P';
	arr[5].mask_bottom = to_hex_code(170,80,100);
	arr[5].mask_top = to_hex_code(179,255,255);
	arr[5].threshold = 64;
   23414:	01401004 	movi	r5,64
   23418:	11403a15 	stw	r5,232(r2)
	arr[0].threshold = 220;

	//Initialize lime ball parameters
	arr[1].code = 'L';
	arr[1].mask_bottom = to_hex_code(55,60,100);
	arr[1].mask_top = to_hex_code(75,160,240);
   2341c:	21283c04 	addi	r4,r4,-24336
	arr[5].mask_bottom = to_hex_code(170,80,100);
	arr[5].mask_top = to_hex_code(179,255,255);
	arr[5].threshold = 64;

	//Initialize Building 1 parameters
	arr[6].code = 'W';
   23420:	014015c4 	movi	r5,87
	arr[6].mask_bottom = to_hex_code(0,00,0);
	arr[6].mask_top = to_hex_code(255, 255, 255);
   23424:	01804034 	movhi	r6,256
	arr[0].threshold = 220;

	//Initialize lime ball parameters
	arr[1].code = 'L';
	arr[1].mask_bottom = to_hex_code(55,60,100);
	arr[1].mask_top = to_hex_code(75,160,240);
   23428:	11000d15 	stw	r4,52(r2)
	arr[5].mask_bottom = to_hex_code(170,80,100);
	arr[5].mask_top = to_hex_code(179,255,255);
	arr[5].threshold = 64;

	//Initialize Building 1 parameters
	arr[6].code = 'W';
   2342c:	11404205 	stb	r5,264(r2)

	//Initialize lime ball parameters
	arr[1].code = 'L';
	arr[1].mask_bottom = to_hex_code(55,60,100);
	arr[1].mask_top = to_hex_code(75,160,240);
	arr[1].threshold = 192;
   23430:	01003004 	movi	r4,192
	arr[5].threshold = 64;

	//Initialize Building 1 parameters
	arr[6].code = 'W';
	arr[6].mask_bottom = to_hex_code(0,00,0);
	arr[6].mask_top = to_hex_code(255, 255, 255);
   23434:	31bfffc4 	addi	r6,r6,-1
	arr[6].threshold = 80;
   23438:	01401404 	movi	r5,80

	//Initialize Building 2 parameters
	arr[7].code = 'X';
   2343c:	01c01604 	movi	r7,88

	//Initialize Building 1 parameters
	arr[6].code = 'W';
	arr[6].mask_bottom = to_hex_code(0,00,0);
	arr[6].mask_top = to_hex_code(255, 255, 255);
	arr[6].threshold = 80;
   23440:	11404515 	stw	r5,276(r2)

	//Initialize Building 2 parameters
	arr[7].code = 'X';
	arr[7].mask_bottom = to_hex_code(0,0,0);
	arr[7].mask_top = to_hex_code(255, 255, 255);
	arr[7].threshold = 80;
   23444:	11405015 	stw	r5,320(r2)

	//Initialize lime ball parameters
	arr[1].code = 'L';
	arr[1].mask_bottom = to_hex_code(55,60,100);
	arr[1].mask_top = to_hex_code(75,160,240);
	arr[1].threshold = 192;
   23448:	11000e15 	stw	r4,56(r2)

	//Initialize blue ball parameters
	arr[2].code = 'B';
	arr[2].mask_bottom = to_hex_code(105,80,50);
	arr[2].mask_top = to_hex_code(125,255,128);
	arr[2].threshold = 192;
   2344c:	11001915 	stw	r4,100(r2)

	//Initialize yellow ball parameters
	arr[3].code = 'Y';
	arr[3].mask_bottom = to_hex_code(15,100,160);
	arr[3].mask_top = to_hex_code(30,255,245);
	arr[3].threshold = 192;
   23450:	11002415 	stw	r4,144(r2)

	//Initialize green ball parameters
	arr[4].code = 'G';
	arr[4].mask_bottom = to_hex_code(77,60,50);
	arr[4].mask_top = to_hex_code(93,140, 140);
	arr[4].threshold = 192;
   23454:	11002f15 	stw	r4,188(r2)
	arr[5].mask_top = to_hex_code(179,255,255);
	arr[5].threshold = 64;

	//Initialize Building 1 parameters
	arr[6].code = 'W';
	arr[6].mask_bottom = to_hex_code(0,00,0);
   23458:	10004315 	stw	zero,268(r2)
	arr[6].mask_top = to_hex_code(255, 255, 255);
   2345c:	11804415 	stw	r6,272(r2)
	arr[6].threshold = 80;

	//Initialize Building 2 parameters
	arr[7].code = 'X';
   23460:	11c04d05 	stb	r7,308(r2)
	arr[7].mask_bottom = to_hex_code(0,0,0);
   23464:	10004e15 	stw	zero,312(r2)
	arr[7].mask_top = to_hex_code(255, 255, 255);
   23468:	11804f15 	stw	r6,316(r2)
	arr[7].threshold = 80;

	//Initialize pink ball parameters
	arr[8].code = 'Q';
   2346c:	01401444 	movi	r5,81
   23470:	11405805 	stb	r5,352(r2)
	arr[8].mask_bottom = to_hex_code(0,80,160);
   23474:	01542804 	movi	r5,20640
   23478:	11405915 	stw	r5,356(r2)
	arr[8].mask_top = to_hex_code(3,110,255);
   2347c:	014000f4 	movhi	r5,3
   23480:	295bbfc4 	addi	r5,r5,28415
   23484:	11405a15 	stw	r5,360(r2)
